///////////////////////////////////////////////////////////////////////////////
//
// IAR C/C++ Compiler V10.10.1.4655 for 8051              23/May/2018  02:42:14
// Copyright 2004-2017 IAR Systems AB.
// Standalone license - IAR Embedded Workbench for 8051
//
//    Core               =  plain
//    Code model         =  banked
//    Data model         =  large
//    Calling convention =  xdata reentrant
//    Constant location  =  data_rom
//    Dptr setup         =  1,16
//                          
//    Source file        =  
//        C:\Users\Traceur\Desktop\SmartLamp\Projects\zstack\Samples\LampCtrl\Source\LampCtrl.c
//    Command line       =  
//        -f C:\Users\Traceur\AppData\Local\Temp\EWE3B.tmp
//        (C:\Users\Traceur\Desktop\SmartLamp\Projects\zstack\Samples\LampCtrl\Source\LampCtrl.c
//        -D ZIGBEEPRO -D ZTOOL_P1 -D xMT_TASK -D xMT_SYS_FUNC -D xMT_ZDO_FUNC
//        -D LCD_SUPPORTED=DEBUG -lC
//        C:\Users\Traceur\Desktop\SmartLamp\Projects\zstack\Samples\LampCtrl\CC2530DB\EndDeviceEB\List
//        -lA
//        C:\Users\Traceur\Desktop\SmartLamp\Projects\zstack\Samples\LampCtrl\CC2530DB\EndDeviceEB\List
//        --diag_suppress Pe001,Pa010 -o
//        C:\Users\Traceur\Desktop\SmartLamp\Projects\zstack\Samples\LampCtrl\CC2530DB\EndDeviceEB\Obj
//        -e --debug --core=plain --dptr=16,1 --data_model=large
//        --code_model=banked --calling_convention=xdata_reentrant
//        --place_constants=data_rom --nr_virtual_regs 16 -f
//        C:\Users\Traceur\Desktop\SmartLamp\Projects\zstack\Samples\LampCtrl\CC2530DB\..\..\..\Tools\CC2530DB\f8wEndev.cfg
//        (-DCPU32MHZ -DROOT=__near_func -DMAC_CFG_TX_DATA_MAX=3
//        -DMAC_CFG_TX_MAX=6 -DMAC_CFG_RX_MAX=3) -f
//        C:\Users\Traceur\Desktop\SmartLamp\Projects\zstack\Samples\LampCtrl\CC2530DB\..\..\..\Tools\CC2530DB\f8wConfig.cfg
//        (-DZIGBEEPRO -DSECURE=0 -DZG_SECURE_DYNAMIC=0 -DREFLECTOR
//        -DDEFAULT_CHANLIST=0x00000800 -DZDAPP_CONFIG_PAN_ID=0xFFF1
//        -DNWK_START_DELAY=100 -DEXTENDED_JOINING_RANDOM_MASK=0x007F
//        -DBEACON_REQUEST_DELAY=100 -DBEACON_REQ_DELAY_MASK=0x00FF
//        -DLINK_STATUS_JITTER_MASK=0x007F -DROUTE_EXPIRY_TIME=30
//        -DAPSC_ACK_WAIT_DURATION_POLLED=3000 -DNWK_INDIRECT_MSG_TIMEOUT=7
//        -DMAX_RREQ_ENTRIES=8 -DAPSC_MAX_FRAME_RETRIES=3
//        -DNWK_MAX_DATA_RETRIES=2 -DMAX_POLL_FAILURE_RETRIES=2 -DMAX_BCAST=9
//        -DAPS_MAX_GROUPS=16 -DMAX_RTG_ENTRIES=40 -DNWK_MAX_BINDING_ENTRIES=4
//        -DMAX_BINDING_CLUSTER_IDS=4 "-DDEFAULT_KEY={0x01, 0x03, 0x05, 0x07,
//        0x09, 0x0B, 0x0D, 0x0F, 0x00, 0x02, 0x04, 0x06, 0x08, 0x0A, 0x0C,
//        0x0D}" -DMAC_MAX_FRAME_SIZE=116 -DZDNWKMGR_MIN_TRANSMISSIONS=20
//        "-DCONST=const __code" -DGENERIC=__generic -DRFD_RCVC_ALWAYS_ON=FALSE
//        -DPOLL_RATE=1000 -DQUEUED_POLL_RATE=100 -DRESPONSE_POLL_RATE=100
//        -DREJOIN_POLL_RATE=440) -I
//        C:\Users\Traceur\Desktop\SmartLamp\Projects\zstack\Samples\LampCtrl\CC2530DB\
//        -I
//        C:\Users\Traceur\Desktop\SmartLamp\Projects\zstack\Samples\LampCtrl\CC2530DB\..\Source\
//        -I
//        C:\Users\Traceur\Desktop\SmartLamp\Projects\zstack\Samples\LampCtrl\CC2530DB\..\..\..\ZMain\TI2530DB\
//        -I
//        C:\Users\Traceur\Desktop\SmartLamp\Projects\zstack\Samples\LampCtrl\CC2530DB\..\..\..\..\..\Components\hal\include\
//        -I
//        C:\Users\Traceur\Desktop\SmartLamp\Projects\zstack\Samples\LampCtrl\CC2530DB\..\..\..\..\..\Components\hal\target\CC2530EB\
//        -I
//        C:\Users\Traceur\Desktop\SmartLamp\Projects\zstack\Samples\LampCtrl\CC2530DB\..\..\..\..\..\Components\mac\include\
//        -I
//        C:\Users\Traceur\Desktop\SmartLamp\Projects\zstack\Samples\LampCtrl\CC2530DB\..\..\..\..\..\Components\mac\high_level\
//        -I
//        C:\Users\Traceur\Desktop\SmartLamp\Projects\zstack\Samples\LampCtrl\CC2530DB\..\..\..\..\..\Components\mac\low_level\srf04\
//        -I
//        C:\Users\Traceur\Desktop\SmartLamp\Projects\zstack\Samples\LampCtrl\CC2530DB\..\..\..\..\..\Components\mac\low_level\srf04\single_chip\
//        -I
//        C:\Users\Traceur\Desktop\SmartLamp\Projects\zstack\Samples\LampCtrl\CC2530DB\..\..\..\..\..\Components\mt\
//        -I
//        C:\Users\Traceur\Desktop\SmartLamp\Projects\zstack\Samples\LampCtrl\CC2530DB\..\..\..\..\..\Components\osal\include\
//        -I
//        C:\Users\Traceur\Desktop\SmartLamp\Projects\zstack\Samples\LampCtrl\CC2530DB\..\..\..\..\..\Components\services\saddr\
//        -I
//        C:\Users\Traceur\Desktop\SmartLamp\Projects\zstack\Samples\LampCtrl\CC2530DB\..\..\..\..\..\Components\services\sdata\
//        -I
//        C:\Users\Traceur\Desktop\SmartLamp\Projects\zstack\Samples\LampCtrl\CC2530DB\..\..\..\..\..\Components\stack\af\
//        -I
//        C:\Users\Traceur\Desktop\SmartLamp\Projects\zstack\Samples\LampCtrl\CC2530DB\..\..\..\..\..\Components\stack\nwk\
//        -I
//        C:\Users\Traceur\Desktop\SmartLamp\Projects\zstack\Samples\LampCtrl\CC2530DB\..\..\..\..\..\Components\stack\sapi\
//        -I
//        C:\Users\Traceur\Desktop\SmartLamp\Projects\zstack\Samples\LampCtrl\CC2530DB\..\..\..\..\..\Components\stack\sec\
//        -I
//        C:\Users\Traceur\Desktop\SmartLamp\Projects\zstack\Samples\LampCtrl\CC2530DB\..\..\..\..\..\Components\stack\sys\
//        -I
//        C:\Users\Traceur\Desktop\SmartLamp\Projects\zstack\Samples\LampCtrl\CC2530DB\..\..\..\..\..\Components\stack\zdo\
//        -I
//        C:\Users\Traceur\Desktop\SmartLamp\Projects\zstack\Samples\LampCtrl\CC2530DB\..\..\..\..\..\Components\zmac\
//        -I
//        C:\Users\Traceur\Desktop\SmartLamp\Projects\zstack\Samples\LampCtrl\CC2530DB\..\..\..\..\..\Components\zmac\f8w\
//        -Ohz --require_prototypes --no_code_motion)
//    Locale             =  Chinese (Simplified)_China.936
//    List file          =  
//        C:\Users\Traceur\Desktop\SmartLamp\Projects\zstack\Samples\LampCtrl\CC2530DB\EndDeviceEB\List\LampCtrl.s51
//
///////////////////////////////////////////////////////////////////////////////

        NAME LampCtrl

        RTMODEL "__SystemLibrary", "CLib"
        RTMODEL "__calling_convention", "xdata_reentrant"
        RTMODEL "__code_model", "banked"
        RTMODEL "__core", "plain"
        RTMODEL "__data_model", "large"
        RTMODEL "__dptr_size", "16"
        RTMODEL "__extended_stack", "disabled"
        RTMODEL "__location_for_constants", "data"
        RTMODEL "__number_of_dptrs", "1"
        RTMODEL "__register_banks", "*"
        RTMODEL "__rt_version", "1"

        RSEG DOVERLAY:DATA:NOROOT(0)
        RSEG IOVERLAY:IDATA:NOROOT(0)
        RSEG ISTACK:IDATA:NOROOT(0)
        RSEG PSTACK:XDATA:NOROOT(0)
        RSEG XSTACK:XDATA:NOROOT(0)

        EXTERN ?V0
        EXTERN ?V1
        EXTERN ?V2
        EXTERN ?V3
        EXTERN ?ALLOC_XSTACK8
        EXTERN ?BANKED_ENTER_XDATA
        EXTERN ?BANKED_LEAVE_XDATA
        EXTERN ?BDISPATCH
        EXTERN ?DEALLOC_XSTACK8
        EXTERN ?MOVE_LONG8_XDATA_XDATA
        EXTERN ?PUSH_XSTACK_I_ONE
        EXTERN ?PUSH_XSTACK_I_THREE
        EXTERN ?PUSH_XSTACK_I_TWO
        EXTERN ?US_SWITCH_DENSE
        EXTERN ?XSP
        EXTERN ?XSTACK_DISP0_8
        EXTERN ?XSTACK_DISP100_8
        EXTERN ?XSTACK_DISP102_8
        EXTERN __INIT_XDATA_I
        EXTERN __INIT_XDATA_Z

        FUNCTION `??LampCtrl_CallBack::?relay`,0203H
        FUNCTION `??LampCtrl_HandleKeys::?relay`,0203H
        PUBLIC `??LampCtrl_Init::?relay`
        FUNCTION `??LampCtrl_Init::?relay`,0203H
        FUNCTION `??LampCtrl_MessageMSGCB::?relay`,0203H
        PUBLIC `??LampCtrl_ProcessEvent::?relay`
        FUNCTION `??LampCtrl_ProcessEvent::?relay`,0203H
        FUNCTION `??LampCtrl_Send::?relay`,0203H
        PUBLIC AppTitle
        FUNCTION LampCtrl_CallBack,021603H
        ARGFRAME XSTACK, 0, STACK
        LOCFRAME XSTACK, 9, STACK
        PUBLIC LampCtrl_ClusterList
        PUBLIC LampCtrl_Flash_DstAddr
        PUBLIC LampCtrl_Group
        FUNCTION LampCtrl_HandleKeys,0a1203H
        ARGFRAME XSTACK, 46, STACK
        ARGFRAME IOVERLAY, 0, STATIC
        ARGFRAME DOVERLAY, 0, STATIC
        LOCFRAME XSTACK, 52, STACK
        PUBLIC LampCtrl_Init
        FUNCTION LampCtrl_Init,0a1203H
        ARGFRAME XSTACK, 0, STACK
        LOCFRAME XSTACK, 43, STACK
        FUNCTION LampCtrl_MessageMSGCB,0a1203H
        ARGFRAME XSTACK, 46, STACK
        ARGFRAME IOVERLAY, 0, STATIC
        ARGFRAME DOVERLAY, 0, STATIC
        LOCFRAME XSTACK, 10, STACK
        PUBLIC LampCtrl_NwkState
        PUBLIC LampCtrl_Periodic_DstAddr
        PUBLIC LampCtrl_ProcessEvent
        FUNCTION LampCtrl_ProcessEvent,0a1203H
        ARGFRAME XSTACK, 0, STACK
        LOCFRAME XSTACK, 55, STACK
        FUNCTION LampCtrl_Send,0a1203H
        ARGFRAME XSTACK, 46, STACK
        ARGFRAME IOVERLAY, 0, STATIC
        ARGFRAME DOVERLAY, 0, STATIC
        LOCFRAME XSTACK, 19, STACK
        PUBLIC LampCtrl_SimpleDesc
        PUBLIC LampCtrl_TaskID
        PUBLIC LampCtrl_TransID
        PUBLIC LampCtrl_epDesc
        
          CFI Names cfiNames0
          CFI StackFrame CFA_SP SP IDATA
          CFI StackFrame CFA_PSP16 PSP16 XDATA
          CFI StackFrame CFA_XSP16 XSP16 XDATA
          CFI StaticOverlayFrame CFA_IOVERLAY IOVERLAY
          CFI StaticOverlayFrame CFA_DOVERLAY DOVERLAY
          CFI Resource `PSW.CY`:1, `B.BR0`:1, `B.BR1`:1, `B.BR2`:1, `B.BR3`:1
          CFI Resource `B.BR4`:1, `B.BR5`:1, `B.BR6`:1, `B.BR7`:1, `VB.BR8`:1
          CFI Resource `VB.BR9`:1, `VB.BR10`:1, `VB.BR11`:1, `VB.BR12`:1
          CFI Resource `VB.BR13`:1, `VB.BR14`:1, `VB.BR15`:1, VB:8, B:8, A:8
          CFI Resource PSW:8, DPL0:8, DPH0:8, R0:8, R1:8, R2:8, R3:8, R4:8, R5:8
          CFI Resource R6:8, R7:8, V0:8, V1:8, V2:8, V3:8, V4:8, V5:8, V6:8, V7:8
          CFI Resource V8:8, V9:8, V10:8, V11:8, V12:8, V13:8, V14:8, V15:8, SP:8
          CFI Resource PSPH:8, PSPL:8, PSP16:16, XSPH:8, XSPL:8, XSP16:16
          CFI VirtualResource ?RET:24
          CFI Resource ?BRET_EXT:8
          CFI VirtualResource ?RET_HIGH:8, ?RET_LOW:8
          CFI ResourceParts PSP16 PSPH, PSPL
          CFI ResourceParts XSP16 XSPH, XSPL
          CFI ResourceParts ?RET ?BRET_EXT, ?RET_HIGH, ?RET_LOW
          CFI EndNames cfiNames0
        
          CFI Common cfiCommon0 Using cfiNames0
          CFI CodeAlign 1
          CFI DataAlign -1
          CFI ReturnAddress ?RET CODE
          CFI CFA_DOVERLAY Used
          CFI CFA_IOVERLAY Used
          CFI CFA_SP SP+-3
          CFI CFA_PSP16 PSP16+0
          CFI CFA_XSP16 XSP16+0
          CFI `PSW.CY` SameValue
          CFI `B.BR0` SameValue
          CFI `B.BR1` SameValue
          CFI `B.BR2` SameValue
          CFI `B.BR3` SameValue
          CFI `B.BR4` SameValue
          CFI `B.BR5` SameValue
          CFI `B.BR6` SameValue
          CFI `B.BR7` SameValue
          CFI `VB.BR8` SameValue
          CFI `VB.BR9` SameValue
          CFI `VB.BR10` SameValue
          CFI `VB.BR11` SameValue
          CFI `VB.BR12` SameValue
          CFI `VB.BR13` SameValue
          CFI `VB.BR14` SameValue
          CFI `VB.BR15` SameValue
          CFI VB SameValue
          CFI B Undefined
          CFI A Undefined
          CFI PSW SameValue
          CFI DPL0 SameValue
          CFI DPH0 SameValue
          CFI R0 Undefined
          CFI R1 Undefined
          CFI R2 Undefined
          CFI R3 Undefined
          CFI R4 Undefined
          CFI R5 Undefined
          CFI R6 SameValue
          CFI R7 SameValue
          CFI V0 SameValue
          CFI V1 SameValue
          CFI V2 SameValue
          CFI V3 SameValue
          CFI V4 SameValue
          CFI V5 SameValue
          CFI V6 SameValue
          CFI V7 SameValue
          CFI V8 SameValue
          CFI V9 SameValue
          CFI V10 SameValue
          CFI V11 SameValue
          CFI V12 SameValue
          CFI V13 SameValue
          CFI V14 SameValue
          CFI V15 SameValue
          CFI PSPH Undefined
          CFI PSPL Undefined
          CFI XSPH Undefined
          CFI XSPL Undefined
          CFI ?RET Concat
          CFI ?BRET_EXT Frame(CFA_SP, 3)
          CFI ?RET_HIGH Frame(CFA_SP, 2)
          CFI ?RET_LOW Frame(CFA_SP, 1)
          CFI EndCommon cfiCommon0
        
        
          CFI Common cfiCommon1 Using cfiNames0
          CFI CodeAlign 1
          CFI DataAlign -1
          CFI ReturnAddress ?RET CODE
          CFI CFA_DOVERLAY Used
          CFI CFA_IOVERLAY Used
          CFI CFA_SP SP+-2
          CFI CFA_PSP16 PSP16+0
          CFI CFA_XSP16 XSP16+0
          CFI `PSW.CY` SameValue
          CFI `B.BR0` SameValue
          CFI `B.BR1` SameValue
          CFI `B.BR2` SameValue
          CFI `B.BR3` SameValue
          CFI `B.BR4` SameValue
          CFI `B.BR5` SameValue
          CFI `B.BR6` SameValue
          CFI `B.BR7` SameValue
          CFI `VB.BR8` SameValue
          CFI `VB.BR9` SameValue
          CFI `VB.BR10` SameValue
          CFI `VB.BR11` SameValue
          CFI `VB.BR12` SameValue
          CFI `VB.BR13` SameValue
          CFI `VB.BR14` SameValue
          CFI `VB.BR15` SameValue
          CFI VB SameValue
          CFI B SameValue
          CFI A SameValue
          CFI PSW SameValue
          CFI DPL0 SameValue
          CFI DPH0 SameValue
          CFI R0 SameValue
          CFI R1 SameValue
          CFI R2 SameValue
          CFI R3 SameValue
          CFI R4 SameValue
          CFI R5 SameValue
          CFI R6 SameValue
          CFI R7 SameValue
          CFI V0 SameValue
          CFI V1 SameValue
          CFI V2 SameValue
          CFI V3 SameValue
          CFI V4 SameValue
          CFI V5 SameValue
          CFI V6 SameValue
          CFI V7 SameValue
          CFI V8 SameValue
          CFI V9 SameValue
          CFI V10 SameValue
          CFI V11 SameValue
          CFI V12 SameValue
          CFI V13 SameValue
          CFI V14 SameValue
          CFI V15 SameValue
          CFI PSPH Undefined
          CFI PSPL Undefined
          CFI XSPH Undefined
          CFI XSPL Undefined
          CFI ?RET Concat
          CFI ?BRET_EXT SameValue
          CFI ?RET_HIGH Frame(CFA_SP, 2)
          CFI ?RET_LOW Frame(CFA_SP, 1)
          CFI EndCommon cfiCommon1
        
AF_DataRequest      SYMBOL "AF_DataRequest"
`??AF_DataRequest::?relay` SYMBOL "?relay", AF_DataRequest
HalLcdWriteString   SYMBOL "HalLcdWriteString"
`??HalLcdWriteString::?relay` SYMBOL "?relay", HalLcdWriteString
HalLedBlink         SYMBOL "HalLedBlink"
`??HalLedBlink::?relay` SYMBOL "?relay", HalLedBlink
HalLedGetState      SYMBOL "HalLedGetState"
`??HalLedGetState::?relay` SYMBOL "?relay", HalLedGetState
HalLedSet           SYMBOL "HalLedSet"
`??HalLedSet::?relay` SYMBOL "?relay", HalLedSet
HalUARTOpen         SYMBOL "HalUARTOpen"
`??HalUARTOpen::?relay` SYMBOL "?relay", HalUARTOpen
HalUARTRead         SYMBOL "HalUARTRead"
`??HalUARTRead::?relay` SYMBOL "?relay", HalUARTRead
HalUARTWrite        SYMBOL "HalUARTWrite"
`??HalUARTWrite::?relay` SYMBOL "?relay", HalUARTWrite
MT_UartRegisterTaskID SYMBOL "MT_UartRegisterTaskID"
`??MT_UartRegisterTaskID::?relay` SYMBOL "?relay", MT_UartRegisterTaskID
RegisterForKeys     SYMBOL "RegisterForKeys"
`??RegisterForKeys::?relay` SYMBOL "?relay", RegisterForKeys
ZDO_RegisterForZDOMsg SYMBOL "ZDO_RegisterForZDOMsg"
`??ZDO_RegisterForZDOMsg::?relay` SYMBOL "?relay", ZDO_RegisterForZDOMsg
afRegister          SYMBOL "afRegister"
`??afRegister::?relay` SYMBOL "?relay", afRegister
aps_AddGroup        SYMBOL "aps_AddGroup"
`??aps_AddGroup::?relay` SYMBOL "?relay", aps_AddGroup
osal_memcpy         SYMBOL "osal_memcpy"
`??osal_memcpy::?relay` SYMBOL "?relay", osal_memcpy
osal_msg_deallocate SYMBOL "osal_msg_deallocate"
`??osal_msg_deallocate::?relay` SYMBOL "?relay", osal_msg_deallocate
osal_msg_receive    SYMBOL "osal_msg_receive"
`??osal_msg_receive::?relay` SYMBOL "?relay", osal_msg_receive
osal_set_event      SYMBOL "osal_set_event"
`??osal_set_event::?relay` SYMBOL "?relay", osal_set_event
LampCtrl_Init       SYMBOL "LampCtrl_Init"
`??LampCtrl_Init::?relay` SYMBOL "?relay", LampCtrl_Init
LampCtrl_ProcessEvent SYMBOL "LampCtrl_ProcessEvent"
`??LampCtrl_ProcessEvent::?relay` SYMBOL "?relay", LampCtrl_ProcessEvent

        EXTERN `??AF_DataRequest::?relay`
        FUNCTION `??AF_DataRequest::?relay`,00H
        EXTERN `??HalLcdWriteString::?relay`
        FUNCTION `??HalLcdWriteString::?relay`,00H
        EXTERN `??HalLedBlink::?relay`
        FUNCTION `??HalLedBlink::?relay`,00H
        EXTERN `??HalLedGetState::?relay`
        FUNCTION `??HalLedGetState::?relay`,00H
        EXTERN `??HalLedSet::?relay`
        FUNCTION `??HalLedSet::?relay`,00H
        EXTERN `??HalUARTOpen::?relay`
        FUNCTION `??HalUARTOpen::?relay`,00H
        EXTERN `??HalUARTRead::?relay`
        FUNCTION `??HalUARTRead::?relay`,00H
        EXTERN `??HalUARTWrite::?relay`
        FUNCTION `??HalUARTWrite::?relay`,00H
        EXTERN `??MT_UartRegisterTaskID::?relay`
        FUNCTION `??MT_UartRegisterTaskID::?relay`,00H
        EXTERN `??RegisterForKeys::?relay`
        FUNCTION `??RegisterForKeys::?relay`,00H
        EXTERN `??ZDO_RegisterForZDOMsg::?relay`
        FUNCTION `??ZDO_RegisterForZDOMsg::?relay`,00H
        EXTERN `??afRegister::?relay`
        FUNCTION `??afRegister::?relay`,00H
        EXTERN `??aps_AddGroup::?relay`
        FUNCTION `??aps_AddGroup::?relay`,00H
        EXTERN `??osal_memcpy::?relay`
        FUNCTION `??osal_memcpy::?relay`,00H
        EXTERN `??osal_msg_deallocate::?relay`
        FUNCTION `??osal_msg_deallocate::?relay`,00H
        EXTERN `??osal_msg_receive::?relay`
        FUNCTION `??osal_msg_receive::?relay`,00H
        EXTERN `??osal_set_event::?relay`
        FUNCTION `??osal_set_event::?relay`,00H
        EXTERN AF_DataRequest
        FUNCTION AF_DataRequest,0202H
        ARGFRAME ISTACK, 0, STACK
        ARGFRAME PSTACK, 0, STACK
        ARGFRAME XSTACK, 55, STACK
        ARGFRAME IOVERLAY, 0, STATIC
        ARGFRAME DOVERLAY, 0, STATIC
        EXTERN HalLcdWriteString
        FUNCTION HalLcdWriteString,0202H
        ARGFRAME ISTACK, 0, STACK
        ARGFRAME PSTACK, 0, STACK
        ARGFRAME XSTACK, 40, STACK
        ARGFRAME IOVERLAY, 0, STATIC
        ARGFRAME DOVERLAY, 0, STATIC
        EXTERN HalLedBlink
        FUNCTION HalLedBlink,0202H
        ARGFRAME ISTACK, 0, STACK
        ARGFRAME PSTACK, 0, STACK
        ARGFRAME XSTACK, 46, STACK
        ARGFRAME IOVERLAY, 0, STATIC
        ARGFRAME DOVERLAY, 0, STATIC
        EXTERN HalLedGetState
        FUNCTION HalLedGetState,0202H
        ARGFRAME ISTACK, 0, STACK
        ARGFRAME PSTACK, 0, STACK
        ARGFRAME XSTACK, 43, STACK
        ARGFRAME IOVERLAY, 0, STATIC
        ARGFRAME DOVERLAY, 0, STATIC
        EXTERN HalLedSet
        FUNCTION HalLedSet,0202H
        ARGFRAME ISTACK, 0, STACK
        ARGFRAME PSTACK, 0, STACK
        ARGFRAME XSTACK, 43, STACK
        ARGFRAME IOVERLAY, 0, STATIC
        ARGFRAME DOVERLAY, 0, STATIC
        EXTERN HalUARTOpen
        FUNCTION HalUARTOpen,0202H
        ARGFRAME ISTACK, 0, STACK
        ARGFRAME PSTACK, 0, STACK
        ARGFRAME XSTACK, 40, STACK
        ARGFRAME IOVERLAY, 0, STATIC
        ARGFRAME DOVERLAY, 0, STATIC
        EXTERN HalUARTRead
        FUNCTION HalUARTRead,0202H
        ARGFRAME ISTACK, 0, STACK
        ARGFRAME PSTACK, 0, STACK
        ARGFRAME XSTACK, 10, STACK
        ARGFRAME IOVERLAY, 0, STATIC
        ARGFRAME DOVERLAY, 0, STATIC
        EXTERN HalUARTWrite
        FUNCTION HalUARTWrite,0202H
        ARGFRAME ISTACK, 0, STACK
        ARGFRAME PSTACK, 0, STACK
        ARGFRAME XSTACK, 10, STACK
        ARGFRAME IOVERLAY, 0, STATIC
        ARGFRAME DOVERLAY, 0, STATIC
        EXTERN MT_UartRegisterTaskID
        FUNCTION MT_UartRegisterTaskID,0202H
        ARGFRAME ISTACK, 0, STACK
        ARGFRAME PSTACK, 0, STACK
        ARGFRAME XSTACK, 40, STACK
        ARGFRAME IOVERLAY, 0, STATIC
        ARGFRAME DOVERLAY, 0, STATIC
        EXTERN RegisterForKeys
        FUNCTION RegisterForKeys,0202H
        ARGFRAME ISTACK, 0, STACK
        ARGFRAME PSTACK, 0, STACK
        ARGFRAME XSTACK, 40, STACK
        ARGFRAME IOVERLAY, 0, STATIC
        ARGFRAME DOVERLAY, 0, STATIC
        EXTERN ZDO_RegisterForZDOMsg
        FUNCTION ZDO_RegisterForZDOMsg,0202H
        ARGFRAME ISTACK, 0, STACK
        ARGFRAME PSTACK, 0, STACK
        ARGFRAME XSTACK, 40, STACK
        ARGFRAME IOVERLAY, 0, STATIC
        ARGFRAME DOVERLAY, 0, STATIC
        EXTERN afRegister
        FUNCTION afRegister,0202H
        ARGFRAME ISTACK, 0, STACK
        ARGFRAME PSTACK, 0, STACK
        ARGFRAME XSTACK, 40, STACK
        ARGFRAME IOVERLAY, 0, STATIC
        ARGFRAME DOVERLAY, 0, STATIC
        EXTERN aps_AddGroup
        FUNCTION aps_AddGroup,0202H
        ARGFRAME ISTACK, 0, STACK
        ARGFRAME PSTACK, 0, STACK
        ARGFRAME XSTACK, 40, STACK
        ARGFRAME IOVERLAY, 0, STATIC
        ARGFRAME DOVERLAY, 0, STATIC
        EXTERN osal_memcpy
        FUNCTION osal_memcpy,0202H
        ARGFRAME ISTACK, 0, STACK
        ARGFRAME PSTACK, 0, STACK
        ARGFRAME XSTACK, 43, STACK
        ARGFRAME IOVERLAY, 0, STATIC
        ARGFRAME DOVERLAY, 0, STATIC
        EXTERN osal_msg_deallocate
        FUNCTION osal_msg_deallocate,0202H
        ARGFRAME ISTACK, 0, STACK
        ARGFRAME PSTACK, 0, STACK
        ARGFRAME XSTACK, 46, STACK
        ARGFRAME IOVERLAY, 0, STATIC
        ARGFRAME DOVERLAY, 0, STATIC
        EXTERN osal_msg_receive
        FUNCTION osal_msg_receive,0202H
        ARGFRAME ISTACK, 0, STACK
        ARGFRAME PSTACK, 0, STACK
        ARGFRAME XSTACK, 46, STACK
        ARGFRAME IOVERLAY, 0, STATIC
        ARGFRAME DOVERLAY, 0, STATIC
        EXTERN osal_set_event
        FUNCTION osal_set_event,0202H
        ARGFRAME ISTACK, 0, STACK
        ARGFRAME PSTACK, 0, STACK
        ARGFRAME XSTACK, 10, STACK
        ARGFRAME IOVERLAY, 0, STATIC
        ARGFRAME DOVERLAY, 0, STATIC

// C:\Users\Traceur\Desktop\SmartLamp\Projects\zstack\Samples\LampCtrl\Source\LampCtrl.c
//    1 /******************************************************************************
//    2   Filename:       LampCtrl.c
//    3   Revised:        $Date: 2012-03-07 01:04:58 -0800 (Wed, 07 Mar 2012) $
//    4   Revision:       $Revision: 29656 $
//    5 
//    6   Description:    Generic Application (no Profile).
//    7 
//    8 
//    9   Copyright 2004-2012 Texas Instruments Incorporated. All rights reserved.
//   10 
//   11   IMPORTANT: Your use of this Software is limited to those specific rights
//   12   granted under the terms of a software license agreement between the user
//   13   who downloaded the software, his/her employer (which must be your employer)
//   14   and Texas Instruments Incorporated (the "License"). You may not use this
//   15   Software unless you agree to abide by the terms of the License. The License
//   16   limits your use, and you acknowledge, that the Software may not be modified,
//   17   copied or distributed unless embedded on a Texas Instruments microcontroller
//   18   or used solely and exclusively in conjunction with a Texas Instruments radio
//   19   frequency transceiver, which is integrated into your product. Other than for
//   20   the foregoing purpose, you may not use, reproduce, copy, prepare derivative
//   21   works of, modify, distribute, perform, display or sell this Software and/or
//   22   its documentation for any purpose.
//   23 
//   24   YOU FURTHER ACKNOWLEDGE AND AGREE THAT THE SOFTWARE AND DOCUMENTATION ARE
//   25   PROVIDED AS IS?WITHOUT WARRANTY OF ANY KIND, EITHER EXPRESS OR IMPLIED,
//   26   INCLUDING WITHOUT LIMITATION, ANY WARRANTY OF MERCHANTABILITY, TITLE,
//   27   NON-INFRINGEMENT AND FITNESS FOR A PARTICULAR PURPOSE. IN NO EVENT SHALL
//   28   TEXAS INSTRUMENTS OR ITS LICENSORS BE LIABLE OR OBLIGATED UNDER CONTRACT,
//   29   NEGLIGENCE, STRICT LIABILITY, CONTRIBUTION, BREACH OF WARRANTY, OR OTHER
//   30   LEGAL EQUITABLE THEORY ANY DIRECT OR INDIRECT DAMAGES OR EXPENSES
//   31   INCLUDING BUT NOT LIMITED TO ANY INCIDENTAL, SPECIAL, INDIRECT, PUNITIVE
//   32   OR CONSEQUENTIAL DAMAGES, LOST PROFITS OR LOST DATA, COST OF PROCUREMENT
//   33   OF SUBSTITUTE GOODS, TECHNOLOGY, SERVICES, OR ANY CLAIMS BY THIRD PARTIES
//   34   (INCLUDING BUT NOT LIMITED TO ANY DEFENSE THEREOF), OR OTHER SIMILAR COSTS.
//   35 
//   36   Should you have any questions regarding your right to use this Software,
//   37   contact Texas Instruments Incorporated at www.TI.com.
//   38 ******************************************************************************/
//   39 
//   40 /*********************************************************************
//   41   This application isn't intended to do anything useful, it is
//   42   intended to be a simple example of an application's structure.
//   43 
//   44   This application sends "Hello World" to another "Generic"
//   45   application every 5 seconds.  The application will also
//   46   receives "Hello World" packets.
//   47 
//   48   The "Hello World" messages are sent/received as MSG type message.
//   49 
//   50   This applications doesn't have a profile, so it handles everything
//   51   directly - itself.
//   52 
//   53   Key control:
//   54     SW1:
//   55     SW2:  initiates end device binding
//   56     SW3:
//   57     SW4:  initiates a match description request
//   58 *********************************************************************/
//   59 
//   60 /*********************************************************************
//   61  * INCLUDES
//   62  */
//   63 #include "OSAL.h"
//   64 #include "AF.h"
//   65 #include "ZDApp.h"
//   66 #include "ZDObject.h"
//   67 #include "ZDProfile.h"
//   68 #include "aps_groups.h"
//   69 #include "LampCtrl.h"
//   70 #include "DebugTrace.h"
//   71 
//   72 
//   73 #include "ZGlobals.h"
//   74 #include "OnBoard.h"
//   75 
//   76 
//   77 #include "MT_UART.h"
//   78 #include "MT_APP.h"
//   79 #include "MT.h"
//   80 
//   81 /* HAL */
//   82 #include "hal_lcd.h"
//   83 #include "hal_led.h"
//   84 #include "hal_key.h"
//   85 #include "hal_uart.h"
//   86 #include "hal_drivers.h"
//   87 
//   88 

        RSEG XDATA_I:XDATA:NOROOT(0)
//   89 uint8 AppTitle[] = "LampCtrl";
AppTitle:
        DATA8
        DS 9
        REQUIRE `?<Initializer for AppTitle>`
        REQUIRE __INIT_XDATA_I
//   90 
//   91 
//   92 
//   93 #if !defined( LAMPCTRL_PORT )
//   94 #define LAMPCTRL_PORT  0
//   95 #endif
//   96 
//   97 #if !defined( LAMPCTRL_BAUD )
//   98   #define LAMPCTRL_BAUD  HAL_UART_BR_115200
//   99 #endif
//  100 
//  101 // When the Rx buf space is less than this threshold, invoke the Rx callback.
//  102 #if !defined( LAMPCTRL_THRESH )
//  103 #define LAMPCTRL_THRESH  64
//  104 #endif
//  105 
//  106 #if !defined( LAMPCTRL_RX_SZ )
//  107 #define LAMPCTRL_RX_SZ  128
//  108 #endif
//  109 
//  110 #if !defined( LAMPCTRL_TX_SZ )
//  111 #define LAMPCTRL_TX_SZ  128
//  112 #endif
//  113 
//  114 // Millisecs of idle time after a byte is received before invoking Rx callback.
//  115 #if !defined( LAMPCTRL_IDLE )
//  116 #define LAMPCTRL_IDLE  6
//  117 #endif
//  118 
//  119 // Loopback Rx bytes to Tx for throughput testing.
//  120 #if !defined( LAMPCTRL_LOOPBACK )
//  121 #define LAMPCTRL_LOOPBACK  FALSE
//  122 #endif
//  123 
//  124 // This is the max byte count per OTA message.
//  125 #if !defined( LAMPCTRL_TX_MAX )
//  126 #define LAMPCTRL_TX_MAX  80
//  127 #endif
//  128 
//  129 #define LAMPCTRL_RSP_CNT  4
//  130 
//  131 
//  132 
//  133 // This list should be filled with Application specific Cluster IDs.

        RSEG XDATA_ROM_C:CONST:REORDER:NOROOT(0)
        DATA8
//  134 const cId_t LampCtrl_ClusterList[LAMPCTRL_MAX_CLUSTERS] =
LampCtrl_ClusterList:
        DATA16
        DW 1
        DW 2
        DW 3
//  135 {
//  136   LAMPCTRL_KEYMSG_CLUSTERID,
//  137   LAMPCTRL_PCMSG_CLUSTERID,
//  138   LAMPCTRL_REGMSG_CLUSTERID
//  139 };
//  140 

        RSEG XDATA_ROM_C:CONST:REORDER:NOROOT(0)
        DATA8
//  141 const SimpleDescriptionFormat_t LampCtrl_SimpleDesc =
LampCtrl_SimpleDesc:
        DB 10
        DATA16
        DW 3844
        DW 1
        DATA8
        DB 0
        DB 3
        DATA16
        DW LampCtrl_ClusterList
        DATA8
        DB 3
        DATA16
        DW LampCtrl_ClusterList
//  142 {
//  143   LAMPCTRL_ENDPOINT,              //  int Endpoint;
//  144   LAMPCTRL_PROFID,                //  uint16 AppProfId[2];
//  145   LAMPCTRL_DEVICEID,              //  uint16 AppDeviceId[2];
//  146   LAMPCTRL_DEVICE_VERSION,        //  int   AppDevVer:4;
//  147   LAMPCTRL_FLAGS,                 //  int   AppFlags:4;
//  148   LAMPCTRL_MAX_CLUSTERS,          //  byte  AppNumInClusters;
//  149   (cId_t *)LampCtrl_ClusterList,  //  byte *pAppInClusterList;
//  150   LAMPCTRL_MAX_CLUSTERS,          //  byte  AppNumInClusters;
//  151   (cId_t *)LampCtrl_ClusterList   //  byte *pAppInClusterList;
//  152 };
//  153 
//  154 
//  155 

        RSEG XDATA_Z:XDATA:NOROOT(0)
        DATA8
//  156 uint8 LampCtrl_TaskID;   // Task ID for internal task/event processing
LampCtrl_TaskID:
        DS 1
        REQUIRE __INIT_XDATA_Z
//  157                           // This variable will be received when
//  158                           // LampCtrl_Init() is called.

        RSEG XDATA_Z:XDATA:NOROOT(0)
        DATA8
//  159 devStates_t LampCtrl_NwkState;
LampCtrl_NwkState:
        DS 1
        REQUIRE __INIT_XDATA_Z
//  160 
//  161 

        RSEG XDATA_Z:XDATA:NOROOT(0)
        DATA8
//  162 uint8 LampCtrl_TransID;  // This is the unique message ID (counter)统计数据发送包 个数
LampCtrl_TransID:
        DS 1
        REQUIRE __INIT_XDATA_Z
//  163 

        RSEG XDATA_I:XDATA:NOROOT(0)
//  164 endPointDesc_t LampCtrl_epDesc = 
LampCtrl_epDesc:
        DATA8
        DS 6
        REQUIRE `?<Initializer for LampCtrl_epDesc>`
        REQUIRE __INIT_XDATA_I
//  165 {
//  166   LAMPCTRL_ENDPOINT,
//  167   &LampCtrl_TaskID,
//  168   (SimpleDescriptionFormat_t *)&LampCtrl_SimpleDesc,
//  169   noLatencyReqs
//  170 };
//  171 

        RSEG XDATA_Z:XDATA:NOROOT(0)
        DATA8
//  172 afAddrType_t LampCtrl_Periodic_DstAddr;
LampCtrl_Periodic_DstAddr:
        DS 12
        REQUIRE __INIT_XDATA_Z

        RSEG XDATA_Z:XDATA:NOROOT(0)
        DATA8
//  173 afAddrType_t LampCtrl_Flash_DstAddr;
LampCtrl_Flash_DstAddr:
        DS 12
        REQUIRE __INIT_XDATA_Z
//  174 

        RSEG XDATA_Z:XDATA:NOROOT(0)
        DATA8
//  175 aps_Group_t LampCtrl_Group;
LampCtrl_Group:
        DS 18
        REQUIRE __INIT_XDATA_Z
//  176 
//  177 

        RSEG XDATA_Z:XDATA:NOROOT(0)
        DATA8
//  178 static afAddrType_t LampCtrl_TxAddr;
LampCtrl_TxAddr:
        DS 12
        REQUIRE __INIT_XDATA_Z

        RSEG XDATA_Z:XDATA:NOROOT(0)
        DATA8
//  179 static uint8 LampCtrl_TxBuf[LAMPCTRL_TX_MAX+1];
LampCtrl_TxBuf:
        DS 81
        REQUIRE __INIT_XDATA_Z

        RSEG XDATA_Z:XDATA:NOROOT(0)
        DATA8
//  180 static uint8 LampCtrl_TxLen;
LampCtrl_TxLen:
        DS 1
        REQUIRE __INIT_XDATA_Z
//  181 
//  182 
//  183 
//  184 /*********************************************************************
//  185  * LOCAL FUNCTIONS
//  186  */
//  187 static void LampCtrl_HandleKeys( uint8 shift, uint8 keys );
//  188 static void LampCtrl_MessageMSGCB( afIncomingMSGPacket_t *pckt );
//  189 static void LampCtrl_CallBack(uint8 port , uint8 event);
//  190 static void LampCtrl_Send( void );
//  191 
//  192 
//  193 /*********************************************************************
//  194  * @fn      LampCtrl_Init
//  195  *
//  196  * @brief   Initialization function for the Generic App Task.
//  197  *          This is called during initialization and should contain
//  198  *          any application specific initialization (ie. hardware
//  199  *          initialization/setup, table initialization, power up
//  200  *          notificaiton ... ).
//  201  *
//  202  * @param   task_id - the ID assigned by OSAL.  This ID should be
//  203  *                    used to send messages and set timers.
//  204  *
//  205  * @return  none
//  206  */

        RSEG BANKED_CODE:HUGECODE:NOROOT(0)
//  207 void LampCtrl_Init( uint8 task_id )
LampCtrl_Init:
          CFI Block cfiBlock0 Using cfiCommon0
          CFI Function LampCtrl_Init
        CODE
//  208 {
        FUNCALL LampCtrl_Init, RegisterForKeys
        LOCFRAME ISTACK, 0, STACK
        LOCFRAME PSTACK, 0, STACK
        LOCFRAME XSTACK, 40, STACK
        LOCFRAME IOVERLAY, 0, STATIC
        LOCFRAME DOVERLAY, 0, STATIC
        ARGFRAME ISTACK, 0, STACK
        ARGFRAME PSTACK, 0, STACK
        ARGFRAME XSTACK, 40, STACK
        ARGFRAME IOVERLAY, 0, STATIC
        ARGFRAME DOVERLAY, 0, STATIC
        FUNCALL LampCtrl_Init, HalUARTOpen
        LOCFRAME ISTACK, 0, STACK
        LOCFRAME PSTACK, 0, STACK
        LOCFRAME XSTACK, 40, STACK
        LOCFRAME IOVERLAY, 0, STATIC
        LOCFRAME DOVERLAY, 0, STATIC
        ARGFRAME ISTACK, 0, STACK
        ARGFRAME PSTACK, 0, STACK
        ARGFRAME XSTACK, 40, STACK
        ARGFRAME IOVERLAY, 0, STATIC
        ARGFRAME DOVERLAY, 0, STATIC
        FUNCALL LampCtrl_Init, MT_UartRegisterTaskID
        LOCFRAME ISTACK, 0, STACK
        LOCFRAME PSTACK, 0, STACK
        LOCFRAME XSTACK, 40, STACK
        LOCFRAME IOVERLAY, 0, STATIC
        LOCFRAME DOVERLAY, 0, STATIC
        ARGFRAME ISTACK, 0, STACK
        ARGFRAME PSTACK, 0, STACK
        ARGFRAME XSTACK, 40, STACK
        ARGFRAME IOVERLAY, 0, STATIC
        ARGFRAME DOVERLAY, 0, STATIC
        FUNCALL LampCtrl_Init, afRegister
        LOCFRAME ISTACK, 0, STACK
        LOCFRAME PSTACK, 0, STACK
        LOCFRAME XSTACK, 40, STACK
        LOCFRAME IOVERLAY, 0, STATIC
        LOCFRAME DOVERLAY, 0, STATIC
        ARGFRAME ISTACK, 0, STACK
        ARGFRAME PSTACK, 0, STACK
        ARGFRAME XSTACK, 40, STACK
        ARGFRAME IOVERLAY, 0, STATIC
        ARGFRAME DOVERLAY, 0, STATIC
        FUNCALL LampCtrl_Init, osal_memcpy
        LOCFRAME ISTACK, 0, STACK
        LOCFRAME PSTACK, 0, STACK
        LOCFRAME XSTACK, 43, STACK
        LOCFRAME IOVERLAY, 0, STATIC
        LOCFRAME DOVERLAY, 0, STATIC
        ARGFRAME ISTACK, 0, STACK
        ARGFRAME PSTACK, 0, STACK
        ARGFRAME XSTACK, 43, STACK
        ARGFRAME IOVERLAY, 0, STATIC
        ARGFRAME DOVERLAY, 0, STATIC
        FUNCALL LampCtrl_Init, aps_AddGroup
        LOCFRAME ISTACK, 0, STACK
        LOCFRAME PSTACK, 0, STACK
        LOCFRAME XSTACK, 40, STACK
        LOCFRAME IOVERLAY, 0, STATIC
        LOCFRAME DOVERLAY, 0, STATIC
        ARGFRAME ISTACK, 0, STACK
        ARGFRAME PSTACK, 0, STACK
        ARGFRAME XSTACK, 40, STACK
        ARGFRAME IOVERLAY, 0, STATIC
        ARGFRAME DOVERLAY, 0, STATIC
        FUNCALL LampCtrl_Init, HalLcdWriteString
        LOCFRAME ISTACK, 0, STACK
        LOCFRAME PSTACK, 0, STACK
        LOCFRAME XSTACK, 40, STACK
        LOCFRAME IOVERLAY, 0, STATIC
        LOCFRAME DOVERLAY, 0, STATIC
        ARGFRAME ISTACK, 0, STACK
        ARGFRAME PSTACK, 0, STACK
        ARGFRAME XSTACK, 40, STACK
        ARGFRAME IOVERLAY, 0, STATIC
        ARGFRAME DOVERLAY, 0, STATIC
        FUNCALL LampCtrl_Init, ZDO_RegisterForZDOMsg
        LOCFRAME ISTACK, 0, STACK
        LOCFRAME PSTACK, 0, STACK
        LOCFRAME XSTACK, 40, STACK
        LOCFRAME IOVERLAY, 0, STATIC
        LOCFRAME DOVERLAY, 0, STATIC
        ARGFRAME ISTACK, 0, STACK
        ARGFRAME PSTACK, 0, STACK
        ARGFRAME XSTACK, 40, STACK
        ARGFRAME IOVERLAY, 0, STATIC
        ARGFRAME DOVERLAY, 0, STATIC
        FUNCALL LampCtrl_Init, ZDO_RegisterForZDOMsg
        LOCFRAME ISTACK, 0, STACK
        LOCFRAME PSTACK, 0, STACK
        LOCFRAME XSTACK, 40, STACK
        LOCFRAME IOVERLAY, 0, STATIC
        LOCFRAME DOVERLAY, 0, STATIC
        ARGFRAME ISTACK, 0, STACK
        ARGFRAME PSTACK, 0, STACK
        ARGFRAME XSTACK, 40, STACK
        ARGFRAME IOVERLAY, 0, STATIC
        ARGFRAME DOVERLAY, 0, STATIC
        REQUIRE ?V0
        REQUIRE ?V1
        REQUIRE ?V2
        MOV       A,#-0xb
        LCALL     ?BANKED_ENTER_XDATA
          CFI DPH0 load(1, XDATA, add(CFA_XSP16, literal(-1)))
          CFI DPL0 load(1, XDATA, add(CFA_XSP16, literal(-2)))
          CFI ?BRET_EXT load(1, XDATA, add(CFA_XSP16, literal(-3)))
          CFI ?RET_HIGH load(1, XDATA, add(CFA_XSP16, literal(-4)))
          CFI ?RET_LOW load(1, XDATA, add(CFA_XSP16, literal(-5)))
          CFI R7 load(1, XDATA, add(CFA_XSP16, literal(-6)))
          CFI V2 load(1, XDATA, add(CFA_XSP16, literal(-7)))
          CFI V1 load(1, XDATA, add(CFA_XSP16, literal(-8)))
          CFI V0 load(1, XDATA, add(CFA_XSP16, literal(-9)))
          CFI VB load(1, XDATA, add(CFA_XSP16, literal(-10)))
          CFI R6 load(1, XDATA, add(CFA_XSP16, literal(-11)))
          CFI CFA_SP SP+0
          CFI CFA_XSP16 add(XSP16, 11)
        ; Saved register size: 11
        ; Auto size: 29
        MOV       A,#-0x1d
        LCALL     ?ALLOC_XSTACK8
          CFI CFA_XSP16 add(XSP16, 40)
        MOV       A,R1
        MOV       R6,A
//  209   LampCtrl_TaskID = task_id;
        MOV       DPTR,#LampCtrl_TaskID
        MOVX      @DPTR,A
//  210   LampCtrl_NwkState = DEV_INIT;
        MOV       DPTR,#LampCtrl_NwkState
        MOV       A,#0x1
        MOVX      @DPTR,A
//  211   LampCtrl_TransID = 0;
        MOV       DPTR,#LampCtrl_TransID
        CLR       A
        MOVX      @DPTR,A
//  212   LampCtrl_TxLen = 0;
        MOV       DPTR,#LampCtrl_TxLen
        MOVX      @DPTR,A
//  213   
//  214   
//  215     #if defined ( HOLD_AUTO_START )
//  216   // HOLD_AUTO_START is a compile option that will surpress ZDApp
//  217   //  from starting the device and wait for the application to
//  218   //  start the device.
//  219   ZDOInitDevice(0);
//  220 #endif
//  221   
//  222   
//  223   RegisterForKeys( LampCtrl_TaskID );//为按键事件登记在LampCtrl下
        ; Setup parameters for call to function RegisterForKeys
        LCALL     `??RegisterForKeys::?relay`; Banked call to: RegisterForKeys
//  224   
//  225   halUARTCfg_t uartConfig;//记录串口设置信息
//  226 
//  227   //初始化串口
//  228   uartConfig.configured           = TRUE;
        MOV       DPL,?XSP + 0
        MOV       DPH,?XSP + 1
        MOV       A,#0x1
        MOVX      @DPTR,A
//  229   uartConfig.baudRate             = LAMPCTRL_BAUD;
        LCALL     ?XSTACK_DISP0_8
        MOV       A,#0x4
        MOVX      @DPTR,A
//  230   uartConfig.flowControl          = FALSE;
        MOV       A,#0x2
        LCALL     ?XSTACK_DISP0_8
        CLR       A
        MOVX      @DPTR,A
//  231   uartConfig.flowControlThreshold = LAMPCTRL_THRESH;
        MOV       A,#0x3
        LCALL     ?XSTACK_DISP0_8
        MOV       A,#0x40
        MOVX      @DPTR,A
        INC       DPTR
        CLR       A
        MOVX      @DPTR,A
//  232   uartConfig.rx.maxBufSize        = LAMPCTRL_RX_SZ;
        MOV       A,#0xa
        LCALL     ?XSTACK_DISP0_8
        MOV       A,#-0x80
        MOVX      @DPTR,A
        INC       DPTR
        CLR       A
        MOVX      @DPTR,A
//  233   uartConfig.tx.maxBufSize        = LAMPCTRL_TX_SZ;
        MOV       A,#0x12
        LCALL     ?XSTACK_DISP0_8
        MOV       A,#-0x80
        MOVX      @DPTR,A
        INC       DPTR
        CLR       A
        MOVX      @DPTR,A
//  234   uartConfig.idleTimeout          = LAMPCTRL_IDLE;
        MOV       A,#0x5
        LCALL     ?XSTACK_DISP0_8
        MOV       A,#0x6
        MOVX      @DPTR,A
//  235   uartConfig.intEnable            = TRUE;         
        MOV       A,#0x16
        LCALL     ?XSTACK_DISP0_8
        MOV       A,#0x1
        MOVX      @DPTR,A
//  236   uartConfig.callBackFunc         = LampCtrl_CallBack;
        MOV       A,#0x1b
        LCALL     ?XSTACK_DISP0_8
        MOV       A,#`??LampCtrl_CallBack::?relay` & 0xff
        MOVX      @DPTR,A
        INC       DPTR
        MOV       A,#(`??LampCtrl_CallBack::?relay` >> 8) & 0xff
        MOVX      @DPTR,A
//  237   //打开串口
//  238   HalUARTOpen (LAMPCTRL_PORT, &uartConfig);
        ; Setup parameters for call to function HalUARTOpen
        MOV       R2,?XSP + 0
        MOV       R3,?XSP + 1
        MOV       R1,#0x0
        LCALL     `??HalUARTOpen::?relay`; Banked call to: HalUARTOpen
//  239   
//  240   MT_UartRegisterTaskID(task_id); //注册串口任务
        ; Setup parameters for call to function MT_UartRegisterTaskID
        MOV       A,R6
        MOV       R1,A
        LCALL     `??MT_UartRegisterTaskID::?relay`; Banked call to: MT_UartRegisterTaskID
//  241 
//  242 
//  243   // Setup for the periodic message's destination address
//  244   // Broadcast to everyone
//  245   LampCtrl_Periodic_DstAddr.addrMode = (afAddrMode_t)AddrBroadcast;
        MOV       DPTR,#LampCtrl_Periodic_DstAddr + 8
        MOV       A,#0xf
        MOVX      @DPTR,A
//  246   LampCtrl_Periodic_DstAddr.endPoint = LAMPCTRL_ENDPOINT;
        INC       DPTR
        MOV       A,#0xa
        MOVX      @DPTR,A
//  247   LampCtrl_Periodic_DstAddr.addr.shortAddr = 0xFFFF;
        MOV       DPTR,#LampCtrl_Periodic_DstAddr
        MOV       A,#-0x1
        MOVX      @DPTR,A
        INC       DPTR
        MOVX      @DPTR,A
//  248 
//  249   // Setup for the flash command's destination address - Group 1
//  250   LampCtrl_Flash_DstAddr.addrMode = (afAddrMode_t)afAddrGroup;
        MOV       DPTR,#LampCtrl_Flash_DstAddr + 8
        MOV       A,#0x1
        MOVX      @DPTR,A
//  251   LampCtrl_Flash_DstAddr.endPoint = LAMPCTRL_ENDPOINT;
        INC       DPTR
        MOV       A,#0xa
        MOVX      @DPTR,A
//  252   LampCtrl_Flash_DstAddr.addr.shortAddr = LAMPCTRL_FLASH_GROUP;
        MOV       DPTR,#LampCtrl_Flash_DstAddr
        MOV       A,#0x1
        MOVX      @DPTR,A
        INC       DPTR
        CLR       A
        MOVX      @DPTR,A
//  253   
//  254   LampCtrl_TxAddr.addrMode = (afAddrMode_t)Addr16Bit;
        MOV       DPTR,#LampCtrl_TxAddr + 8
        MOV       A,#0x2
        MOVX      @DPTR,A
//  255   LampCtrl_TxAddr.endPoint = LAMPCTRL_ENDPOINT;
        INC       DPTR
        MOV       A,#0xa
        MOVX      @DPTR,A
//  256   LampCtrl_TxAddr.addr.shortAddr = 0xFFFF;
        MOV       DPTR,#LampCtrl_TxAddr
        MOV       A,#-0x1
        MOVX      @DPTR,A
        INC       DPTR
        MOVX      @DPTR,A
//  257     
//  258     
//  259   afRegister( &LampCtrl_epDesc );//将endpoint登记到AF
        ; Setup parameters for call to function afRegister
        MOV       R2,#LampCtrl_epDesc & 0xff
        MOV       R3,#(LampCtrl_epDesc >> 8) & 0xff
        LCALL     `??afRegister::?relay`; Banked call to: afRegister
//  260 
//  261   // 默认将所有设备分到第一组
//  262   LampCtrl_Group.ID = 0x0001;
        MOV       DPTR,#LampCtrl_Group
        MOV       A,#0x1
        MOVX      @DPTR,A
        INC       DPTR
        CLR       A
        MOVX      @DPTR,A
//  263   osal_memcpy( LampCtrl_Group.name, "Group 1", 7 );
        ; Setup parameters for call to function osal_memcpy
        MOV       ?V0,#`?<Constant "Group 1">` & 0xff
        MOV       ?V1,#(`?<Constant "Group 1">` >> 8) & 0xff
        MOV       ?V2,A
        MOV       R0,#?V0
        LCALL     ?PUSH_XSTACK_I_THREE
          CFI CFA_XSP16 add(XSP16, 43)
        MOV       R4,#0x7
        MOV       R5,#0x0
        MOV       R2,#(LampCtrl_Group + 2) & 0xff
        MOV       R3,#((LampCtrl_Group + 2) >> 8) & 0xff
        LCALL     `??osal_memcpy::?relay`; Banked call to: osal_memcpy
        MOV       A,#0x3
        LCALL     ?DEALLOC_XSTACK8
          CFI CFA_XSP16 add(XSP16, 40)
//  264   aps_AddGroup( LAMPCTRL_ENDPOINT, &LampCtrl_Group );
        ; Setup parameters for call to function aps_AddGroup
        MOV       R2,#LampCtrl_Group & 0xff
        MOV       R3,#(LampCtrl_Group >> 8) & 0xff
        MOV       R1,#0xa
        LCALL     `??aps_AddGroup::?relay`; Banked call to: aps_AddGroup
//  265   
//  266   
//  267   // Update the display
//  268 #if defined ( LCD_SUPPORTED )
//  269   HalLcdWriteString( "LampCtrl", HAL_LCD_LINE_1 );
        ; Setup parameters for call to function HalLcdWriteString
        MOV       R1,#0x0
        MOV       R2,#`?<Constant "LampCtrl">` & 0xff
        MOV       R3,#(`?<Constant "LampCtrl">` >> 8) & 0xff
        LCALL     `??HalLcdWriteString::?relay`; Banked call to: HalLcdWriteString
//  270 #endif
//  271 
//  272   ZDO_RegisterForZDOMsg( LampCtrl_TaskID, End_Device_Bind_rsp );
        ; Setup parameters for call to function ZDO_RegisterForZDOMsg
        MOV       R2,#0x20
        MOV       R3,#-0x80
        MOV       DPTR,#LampCtrl_TaskID
        MOVX      A,@DPTR
        MOV       R1,A
        LCALL     `??ZDO_RegisterForZDOMsg::?relay`; Banked call to: ZDO_RegisterForZDOMsg
//  273   ZDO_RegisterForZDOMsg( LampCtrl_TaskID, Match_Desc_rsp );
        ; Setup parameters for call to function ZDO_RegisterForZDOMsg
        MOV       R2,#0x6
        MOV       R3,#-0x80
        MOV       DPTR,#LampCtrl_TaskID
        MOVX      A,@DPTR
        MOV       R1,A
        LCALL     `??ZDO_RegisterForZDOMsg::?relay`; Banked call to: ZDO_RegisterForZDOMsg
//  274 
//  275 }
        MOV       A,#0x1d
        LCALL     ?DEALLOC_XSTACK8
          CFI CFA_XSP16 add(XSP16, 11)
        MOV       R7,#0x3
        LJMP      ?BANKED_LEAVE_XDATA
          CFI EndBlock cfiBlock0
//  276 /*  end of LampCtrl_Init  */
//  277 
//  278 
//  279 
//  280 /*********************************************************************
//  281  * @fn      LampCtrl_ProcessEvent
//  282  *
//  283  * @brief   Generic Application Task event processor.  This function
//  284  *          is called to process all events for the task.  Events
//  285  *          include timers, messages and any other user defined events.
//  286  *
//  287  * @param   task_id  - The OSAL assigned task ID.
//  288  * @param   events - events to process.  This is a bit map and can
//  289  *                   contain more than one event.
//  290  *
//  291  * @return  none
//  292  */

        RSEG BANKED_CODE:HUGECODE:NOROOT(0)
//  293 uint16 LampCtrl_ProcessEvent( uint8 task_id, uint16 events )
LampCtrl_ProcessEvent:
          CFI Block cfiBlock1 Using cfiCommon0
          CFI Function LampCtrl_ProcessEvent
        CODE
//  294 {
        FUNCALL LampCtrl_ProcessEvent, osal_msg_receive
        LOCFRAME ISTACK, 0, STACK
        LOCFRAME PSTACK, 0, STACK
        LOCFRAME XSTACK, 46, STACK
        LOCFRAME IOVERLAY, 0, STATIC
        LOCFRAME DOVERLAY, 0, STATIC
        ARGFRAME ISTACK, 0, STACK
        ARGFRAME PSTACK, 0, STACK
        ARGFRAME XSTACK, 46, STACK
        ARGFRAME IOVERLAY, 0, STATIC
        ARGFRAME DOVERLAY, 0, STATIC
        FUNCALL LampCtrl_ProcessEvent, AF_DataRequest
        LOCFRAME ISTACK, 0, STACK
        LOCFRAME PSTACK, 0, STACK
        LOCFRAME XSTACK, 55, STACK
        LOCFRAME IOVERLAY, 0, STATIC
        LOCFRAME DOVERLAY, 0, STATIC
        ARGFRAME ISTACK, 0, STACK
        ARGFRAME PSTACK, 0, STACK
        ARGFRAME XSTACK, 55, STACK
        ARGFRAME IOVERLAY, 0, STATIC
        ARGFRAME DOVERLAY, 0, STATIC
        FUNCALL LampCtrl_ProcessEvent, AF_DataRequest
        LOCFRAME ISTACK, 0, STACK
        LOCFRAME PSTACK, 0, STACK
        LOCFRAME XSTACK, 55, STACK
        LOCFRAME IOVERLAY, 0, STATIC
        LOCFRAME DOVERLAY, 0, STATIC
        ARGFRAME ISTACK, 0, STACK
        ARGFRAME PSTACK, 0, STACK
        ARGFRAME XSTACK, 55, STACK
        ARGFRAME IOVERLAY, 0, STATIC
        ARGFRAME DOVERLAY, 0, STATIC
        FUNCALL LampCtrl_ProcessEvent, HalLedBlink
        LOCFRAME ISTACK, 0, STACK
        LOCFRAME PSTACK, 0, STACK
        LOCFRAME XSTACK, 46, STACK
        LOCFRAME IOVERLAY, 0, STATIC
        LOCFRAME DOVERLAY, 0, STATIC
        ARGFRAME ISTACK, 0, STACK
        ARGFRAME PSTACK, 0, STACK
        ARGFRAME XSTACK, 46, STACK
        ARGFRAME IOVERLAY, 0, STATIC
        ARGFRAME DOVERLAY, 0, STATIC
        FUNCALL LampCtrl_ProcessEvent, osal_msg_deallocate
        LOCFRAME ISTACK, 0, STACK
        LOCFRAME PSTACK, 0, STACK
        LOCFRAME XSTACK, 46, STACK
        LOCFRAME IOVERLAY, 0, STATIC
        LOCFRAME DOVERLAY, 0, STATIC
        ARGFRAME ISTACK, 0, STACK
        ARGFRAME PSTACK, 0, STACK
        ARGFRAME XSTACK, 46, STACK
        ARGFRAME IOVERLAY, 0, STATIC
        ARGFRAME DOVERLAY, 0, STATIC
        FUNCALL LampCtrl_ProcessEvent, osal_msg_receive
        LOCFRAME ISTACK, 0, STACK
        LOCFRAME PSTACK, 0, STACK
        LOCFRAME XSTACK, 46, STACK
        LOCFRAME IOVERLAY, 0, STATIC
        LOCFRAME DOVERLAY, 0, STATIC
        ARGFRAME ISTACK, 0, STACK
        ARGFRAME PSTACK, 0, STACK
        ARGFRAME XSTACK, 46, STACK
        ARGFRAME IOVERLAY, 0, STATIC
        ARGFRAME DOVERLAY, 0, STATIC
        FUNCALL LampCtrl_ProcessEvent, LampCtrl_HandleKeys
        LOCFRAME ISTACK, 0, STACK
        LOCFRAME PSTACK, 0, STACK
        LOCFRAME XSTACK, 46, STACK
        LOCFRAME IOVERLAY, 0, STATIC
        LOCFRAME DOVERLAY, 0, STATIC
        ARGFRAME ISTACK, 0, STACK
        ARGFRAME PSTACK, 0, STACK
        ARGFRAME XSTACK, 46, STACK
        ARGFRAME IOVERLAY, 0, STATIC
        ARGFRAME DOVERLAY, 0, STATIC
        FUNCALL LampCtrl_ProcessEvent, LampCtrl_MessageMSGCB
        LOCFRAME ISTACK, 0, STACK
        LOCFRAME PSTACK, 0, STACK
        LOCFRAME XSTACK, 46, STACK
        LOCFRAME IOVERLAY, 0, STATIC
        LOCFRAME DOVERLAY, 0, STATIC
        ARGFRAME ISTACK, 0, STACK
        ARGFRAME PSTACK, 0, STACK
        ARGFRAME XSTACK, 46, STACK
        ARGFRAME IOVERLAY, 0, STATIC
        ARGFRAME DOVERLAY, 0, STATIC
        FUNCALL LampCtrl_ProcessEvent, LampCtrl_Send
        LOCFRAME ISTACK, 0, STACK
        LOCFRAME PSTACK, 0, STACK
        LOCFRAME XSTACK, 46, STACK
        LOCFRAME IOVERLAY, 0, STATIC
        LOCFRAME DOVERLAY, 0, STATIC
        ARGFRAME ISTACK, 0, STACK
        ARGFRAME PSTACK, 0, STACK
        ARGFRAME XSTACK, 46, STACK
        ARGFRAME IOVERLAY, 0, STATIC
        ARGFRAME DOVERLAY, 0, STATIC
        REQUIRE ?V0
        REQUIRE ?V1
        REQUIRE ?V2
        REQUIRE ?V3
        MOV       A,#-0xc
        LCALL     ?BANKED_ENTER_XDATA
          CFI DPH0 load(1, XDATA, add(CFA_XSP16, literal(-1)))
          CFI DPL0 load(1, XDATA, add(CFA_XSP16, literal(-2)))
          CFI ?BRET_EXT load(1, XDATA, add(CFA_XSP16, literal(-3)))
          CFI ?RET_HIGH load(1, XDATA, add(CFA_XSP16, literal(-4)))
          CFI ?RET_LOW load(1, XDATA, add(CFA_XSP16, literal(-5)))
          CFI R7 load(1, XDATA, add(CFA_XSP16, literal(-6)))
          CFI V3 load(1, XDATA, add(CFA_XSP16, literal(-7)))
          CFI V2 load(1, XDATA, add(CFA_XSP16, literal(-8)))
          CFI V1 load(1, XDATA, add(CFA_XSP16, literal(-9)))
          CFI V0 load(1, XDATA, add(CFA_XSP16, literal(-10)))
          CFI VB load(1, XDATA, add(CFA_XSP16, literal(-11)))
          CFI R6 load(1, XDATA, add(CFA_XSP16, literal(-12)))
          CFI CFA_SP SP+0
          CFI CFA_XSP16 add(XSP16, 12)
        ; Saved register size: 12
        ; Auto size: 34
        MOV       A,#-0x22
        LCALL     ?ALLOC_XSTACK8
          CFI CFA_XSP16 add(XSP16, 46)
        MOV       A,R2
        MOV       R6,A
        MOV       A,R3
        MOV       R7,A
//  295   afIncomingMSGPacket_t *MSGpkt;
//  296   afDataConfirm_t *afDataConfirm;
//  297 
//  298   // Data Confirmation message fields
//  299   uint8 sentEP;
//  300   ZStatus_t sentStatus;
//  301   uint8 sentTransID;       // This should match the value sent
//  302   (void)task_id;  // Intentionally unreferenced parameter
//  303 
//  304   if ( events & SYS_EVENT_MSG )
        ANL       A,#0x80
        JNZ       $+5
        LJMP      ??LampCtrl_ProcessEvent_0 & 0xFFFF
//  305   {
//  306     MSGpkt = (afIncomingMSGPacket_t *)osal_msg_receive( LampCtrl_TaskID );
        ; Setup parameters for call to function osal_msg_receive
        LJMP      ??LampCtrl_ProcessEvent_1 & 0xFFFF
//  307     while ( MSGpkt )
//  308     {
//  309       switch ( MSGpkt->hdr.event )
//  310       {
//  311         case KEY_CHANGE:
//  312           LampCtrl_HandleKeys( ((keyChange_t *)MSGpkt)->state, ((keyChange_t *)MSGpkt)->keys );
//  313           break;
//  314           
//  315         case AF_INCOMING_MSG_CMD:
//  316           LampCtrl_MessageMSGCB( MSGpkt );
//  317           break;
//  318 
//  319 
//  320         case AF_DATA_CONFIRM_CMD:
//  321           // This message is received as a confirmation of a data packet sent.
//  322           // The status is of ZStatus_t type [defined in ZComDef.h]
//  323           // The message fields are defined in AF.h
//  324           afDataConfirm = (afDataConfirm_t *)MSGpkt;
//  325           sentEP = afDataConfirm->endpoint;
//  326           sentStatus = afDataConfirm->hdr.status;
//  327           sentTransID = afDataConfirm->transID;
//  328           (void)sentEP;
//  329           (void)sentTransID;
//  330 
//  331           // Action taken when confirmation is received.
//  332           if ( sentStatus != ZSuccess )
//  333           {
//  334             // The data wasn't delivered -- Do something
//  335           }
//  336           break;
//  337 
//  338         case ZDO_STATE_CHANGE:
//  339           LampCtrl_NwkState = (devStates_t)(MSGpkt->hdr.status);
??LampCtrl_ProcessEvent_2:
        INC       DPTR
        MOVX      A,@DPTR
        MOV       DPTR,#LampCtrl_NwkState
        MOVX      @DPTR,A
//  340           
//  341           if ( (LampCtrl_NwkState == DEV_ROUTER) || (LampCtrl_NwkState == DEV_END_DEVICE) )
        XRL       A,#0x7
        JZ        ??LampCtrl_ProcessEvent_3
        MOVX      A,@DPTR
        XRL       A,#0x6
        JZ        $+5
        LJMP      ??LampCtrl_ProcessEvent_4 & 0xFFFF
//  342           {
//  343 
//  344             uint8 reg1[17] = "Register,KEY1,on,";
??LampCtrl_ProcessEvent_3:
        MOV       DPTR,#`?<Constant "Register,KEY1,on,">`
        MOV       A,#0x11
        LCALL     ?XSTACK_DISP102_8
        MOV       A,#0x11
        LCALL     ?MOVE_LONG8_XDATA_XDATA
//  345             
//  346             AF_DataRequest(&LampCtrl_Periodic_DstAddr,
//  347                           &LampCtrl_epDesc,
//  348                           LAMPCTRL_REGMSG_CLUSTERID,
//  349                           sizeof(reg1),
//  350                           reg1,
//  351                           &LampCtrl_TransID,
//  352                           AF_DISCV_ROUTE,
//  353                           AF_DEFAULT_RADIUS );
        ; Setup parameters for call to function AF_DataRequest
        MOV       ?V2,#0x1e
        MOV       R0,#?V2
        LCALL     ?PUSH_XSTACK_I_ONE
          CFI CFA_XSP16 add(XSP16, 47)
        MOV       ?V2,#LampCtrl_TransID & 0xff
        MOV       ?V3,#(LampCtrl_TransID >> 8) & 0xff
        MOV       R0,#?V2
        LCALL     ?PUSH_XSTACK_I_TWO
          CFI CFA_XSP16 add(XSP16, 49)
        MOV       A,#0x14
        LCALL     ?XSTACK_DISP100_8
        MOV       ?V2,R0
        MOV       ?V3,R1
        MOV       R0,#?V2
        LCALL     ?PUSH_XSTACK_I_TWO
          CFI CFA_XSP16 add(XSP16, 51)
        MOV       ?V2,#0x11
        MOV       ?V3,#0x0
        MOV       R0,#?V2
        LCALL     ?PUSH_XSTACK_I_TWO
          CFI CFA_XSP16 add(XSP16, 53)
        MOV       ?V2,#0x3
        MOV       R0,#?V2
        LCALL     ?PUSH_XSTACK_I_TWO
          CFI CFA_XSP16 add(XSP16, 55)
        MOV       R1,#0x20
        MOV       R4,#LampCtrl_epDesc & 0xff
        MOV       R5,#(LampCtrl_epDesc >> 8) & 0xff
        MOV       R2,#LampCtrl_Periodic_DstAddr & 0xff
        MOV       R3,#(LampCtrl_Periodic_DstAddr >> 8) & 0xff
        LCALL     `??AF_DataRequest::?relay`; Banked call to: AF_DataRequest
        MOV       A,#0x9
        LCALL     ?DEALLOC_XSTACK8
          CFI CFA_XSP16 add(XSP16, 46)
//  354             
//  355             uint8 reg2[17] = "Register,KEY2,on,";
        MOV       DPTR,#`?<Constant "Register,KEY2,on,">`
        MOV       R4,?XSP + 0
        MOV       R5,?XSP + 1
        MOV       A,#0x11
        LCALL     ?MOVE_LONG8_XDATA_XDATA
//  356             AF_DataRequest(&LampCtrl_Periodic_DstAddr,
//  357                           &LampCtrl_epDesc,
//  358                           LAMPCTRL_REGMSG_CLUSTERID,
//  359                           sizeof(reg2),
//  360                           reg2,
//  361                           &LampCtrl_TransID,
//  362                           AF_DISCV_ROUTE,
//  363                           AF_DEFAULT_RADIUS );
        ; Setup parameters for call to function AF_DataRequest
        MOV       ?V2,#0x1e
        MOV       R0,#?V2
        LCALL     ?PUSH_XSTACK_I_ONE
          CFI CFA_XSP16 add(XSP16, 47)
        MOV       ?V2,#LampCtrl_TransID & 0xff
        MOV       ?V3,#(LampCtrl_TransID >> 8) & 0xff
        MOV       R0,#?V2
        LCALL     ?PUSH_XSTACK_I_TWO
          CFI CFA_XSP16 add(XSP16, 49)
        MOV       A,#0x3
        LCALL     ?XSTACK_DISP100_8
        MOV       ?V2,R0
        MOV       ?V3,R1
        MOV       R0,#?V2
        LCALL     ?PUSH_XSTACK_I_TWO
          CFI CFA_XSP16 add(XSP16, 51)
        MOV       ?V2,#0x11
        MOV       ?V3,#0x0
        MOV       R0,#?V2
        LCALL     ?PUSH_XSTACK_I_TWO
          CFI CFA_XSP16 add(XSP16, 53)
        MOV       ?V2,#0x3
        MOV       R0,#?V2
        LCALL     ?PUSH_XSTACK_I_TWO
          CFI CFA_XSP16 add(XSP16, 55)
        MOV       R1,#0x20
        MOV       R4,#LampCtrl_epDesc & 0xff
        MOV       R5,#(LampCtrl_epDesc >> 8) & 0xff
        MOV       R2,#LampCtrl_Periodic_DstAddr & 0xff
        MOV       R3,#(LampCtrl_Periodic_DstAddr >> 8) & 0xff
        LCALL     `??AF_DataRequest::?relay`; Banked call to: AF_DataRequest
        MOV       A,#0x9
        LCALL     ?DEALLOC_XSTACK8
          CFI CFA_XSP16 add(XSP16, 46)
//  364             
//  365             uint16 flashTime = BUILD_UINT16(LO_UINT16( LAMPCTRL_FLASH_DURATION ), HI_UINT16( LAMPCTRL_FLASH_DURATION ) );
//  366             HalLedBlink( HAL_LED_3, 4, 50, (flashTime / 2) );//3号灯闪烁4次
        ; Setup parameters for call to function HalLedBlink
        MOV       R4,#-0xc
        MOV       R5,#0x1
        MOV       R3,#0x32
        MOV       R2,#0x4
        MOV       R1,#0x4
        LCALL     `??HalLedBlink::?relay`; Banked call to: HalLedBlink
//  367 
//  368 
//  369             
//  370           }
//  371           break;
//  372 
//  373 
//  374         default:
//  375           break;
//  376       }
//  377 
//  378       // Release the memory
//  379       osal_msg_deallocate( (uint8 *)MSGpkt );
??LampCtrl_ProcessEvent_4:
        ; Setup parameters for call to function osal_msg_deallocate
        MOV       R2,?V0
        MOV       R3,?V1
        LCALL     `??osal_msg_deallocate::?relay`; Banked call to: osal_msg_deallocate
//  380 
//  381       // Next
//  382       MSGpkt = (afIncomingMSGPacket_t *)osal_msg_receive( LampCtrl_TaskID );
        ; Setup parameters for call to function osal_msg_receive
??LampCtrl_ProcessEvent_1:
        MOV       DPTR,#LampCtrl_TaskID
        MOVX      A,@DPTR
        MOV       R1,A
        LCALL     `??osal_msg_receive::?relay`; Banked call to: osal_msg_receive
        MOV       ?V0,R2
        MOV       ?V1,R3
        MOV       A,?V0
        ORL       A,?V1
        JZ        ??LampCtrl_ProcessEvent_5
        MOV       DPL,?V0
        MOV       DPH,?V1
        MOVX      A,@DPTR
        ADD       A,#-0x1a
        JZ        ??LampCtrl_ProcessEvent_6
        ADD       A,#0x5a
        JZ        ??LampCtrl_ProcessEvent_7
        ADD       A,#-0x11
        JNZ       $+5
        LJMP      ??LampCtrl_ProcessEvent_2 & 0xFFFF
        SJMP      ??LampCtrl_ProcessEvent_4
??LampCtrl_ProcessEvent_7:
        ; Setup parameters for call to function LampCtrl_HandleKeys
        INC       DPTR
        INC       DPTR
        INC       DPTR
        MOVX      A,@DPTR
        MOV       R2,A
        MOV       DPL,?V0
        MOV       DPH,?V1
        INC       DPTR
        INC       DPTR
        MOVX      A,@DPTR
        MOV       R1,A
        LCALL     `??LampCtrl_HandleKeys::?relay`; Banked call to: LampCtrl_HandleKeys
        SJMP      ??LampCtrl_ProcessEvent_4
??LampCtrl_ProcessEvent_6:
        ; Setup parameters for call to function LampCtrl_MessageMSGCB
        MOV       R2,?V0
        MOV       R3,?V1
        LCALL     `??LampCtrl_MessageMSGCB::?relay`; Banked call to: LampCtrl_MessageMSGCB
        SJMP      ??LampCtrl_ProcessEvent_4
//  383     }
//  384 
//  385     // return unprocessed events
//  386     return (events ^ SYS_EVENT_MSG);
??LampCtrl_ProcessEvent_5:
        MOV       A,R6
        MOV       R2,A
        MOV       A,R7
        XRL       A,#0x80
        SJMP      ??LampCtrl_ProcessEvent_8
//  387   }
//  388 
//  389   // Send a message out - This event is generated by a timer
//  390   //  (setup in LampCtrl_Init()).
//  391   if ( events & LAMPCTRL_SEND_MSG_EVT )
??LampCtrl_ProcessEvent_0:
        MOV       A,R6
        MOV       C,0xE0 /* A   */.0
        JNC       ??LampCtrl_ProcessEvent_9
//  392   {
//  393     
//  394 
//  395     // return unprocessed events
//  396     return (events ^ LAMPCTRL_SEND_MSG_EVT);
        XRL       A,#0x1
        MOV       R2,A
        SJMP      ??LampCtrl_ProcessEvent_10
//  397   }
//  398   
//  399   if ( events & LAMPCTRL_SEND_EVT )
??LampCtrl_ProcessEvent_9:
        ANL       A,#0x2
        JZ        ??LampCtrl_ProcessEvent_11
//  400   {
//  401     LampCtrl_Send();
        ; Setup parameters for call to function LampCtrl_Send
        LCALL     `??LampCtrl_Send::?relay`; Banked call to: LampCtrl_Send
//  402     return ( events^LAMPCTRL_SEND_EVT );
        MOV       A,R6
        XRL       A,#0x2
        MOV       R2,A
        MOV       A,R7
??LampCtrl_ProcessEvent_8:
        MOV       R3,A
        SJMP      ??LampCtrl_ProcessEvent_10
//  403   }
//  404 
//  405   // Discard unknown events
//  406   return 0;
??LampCtrl_ProcessEvent_11:
        MOV       R2,#0x0
        MOV       R3,#0x0
??LampCtrl_ProcessEvent_10:
        MOV       A,#0x22
        LCALL     ?DEALLOC_XSTACK8
          CFI CFA_XSP16 add(XSP16, 12)
        MOV       R7,#0x4
        LJMP      ?BANKED_LEAVE_XDATA
//  407 }
          CFI EndBlock cfiBlock1
//  408 
//  409 
//  410 /*********************************************************************
//  411  * @fn      LampCtrl_HandleKeys
//  412  *
//  413  * @brief   Handles all key events for this device.
//  414  *
//  415  * @param   shift - true if in shift/alt.
//  416  * @param   keys - bit field for key events. Valid entries:
//  417  *                 HAL_KEY_SW_4
//  418  *                 HAL_KEY_SW_3
//  419  *                 HAL_KEY_SW_2
//  420  *                 HAL_KEY_SW_1
//  421  *
//  422  * @return  none
//  423  */

        RSEG BANKED_CODE:HUGECODE:NOROOT(0)
//  424 static void LampCtrl_HandleKeys( uint8 shift, uint8 keys )
LampCtrl_HandleKeys:
          CFI Block cfiBlock2 Using cfiCommon0
          CFI Function LampCtrl_HandleKeys
        CODE
//  425 {
        FUNCALL LampCtrl_HandleKeys, HalLedGetState
        LOCFRAME ISTACK, 0, STACK
        LOCFRAME PSTACK, 0, STACK
        LOCFRAME XSTACK, 43, STACK
        LOCFRAME IOVERLAY, 0, STATIC
        LOCFRAME DOVERLAY, 0, STATIC
        ARGFRAME ISTACK, 0, STACK
        ARGFRAME PSTACK, 0, STACK
        ARGFRAME XSTACK, 43, STACK
        ARGFRAME IOVERLAY, 0, STATIC
        ARGFRAME DOVERLAY, 0, STATIC
        FUNCALL LampCtrl_HandleKeys, HalLedSet
        LOCFRAME ISTACK, 0, STACK
        LOCFRAME PSTACK, 0, STACK
        LOCFRAME XSTACK, 43, STACK
        LOCFRAME IOVERLAY, 0, STATIC
        LOCFRAME DOVERLAY, 0, STATIC
        ARGFRAME ISTACK, 0, STACK
        ARGFRAME PSTACK, 0, STACK
        ARGFRAME XSTACK, 43, STACK
        ARGFRAME IOVERLAY, 0, STATIC
        ARGFRAME DOVERLAY, 0, STATIC
        FUNCALL LampCtrl_HandleKeys, AF_DataRequest
        LOCFRAME ISTACK, 0, STACK
        LOCFRAME PSTACK, 0, STACK
        LOCFRAME XSTACK, 52, STACK
        LOCFRAME IOVERLAY, 0, STATIC
        LOCFRAME DOVERLAY, 0, STATIC
        ARGFRAME ISTACK, 0, STACK
        ARGFRAME PSTACK, 0, STACK
        ARGFRAME XSTACK, 52, STACK
        ARGFRAME IOVERLAY, 0, STATIC
        ARGFRAME DOVERLAY, 0, STATIC
        FUNCALL LampCtrl_HandleKeys, HalLedSet
        LOCFRAME ISTACK, 0, STACK
        LOCFRAME PSTACK, 0, STACK
        LOCFRAME XSTACK, 43, STACK
        LOCFRAME IOVERLAY, 0, STATIC
        LOCFRAME DOVERLAY, 0, STATIC
        ARGFRAME ISTACK, 0, STACK
        ARGFRAME PSTACK, 0, STACK
        ARGFRAME XSTACK, 43, STACK
        ARGFRAME IOVERLAY, 0, STATIC
        ARGFRAME DOVERLAY, 0, STATIC
        FUNCALL LampCtrl_HandleKeys, AF_DataRequest
        LOCFRAME ISTACK, 0, STACK
        LOCFRAME PSTACK, 0, STACK
        LOCFRAME XSTACK, 52, STACK
        LOCFRAME IOVERLAY, 0, STATIC
        LOCFRAME DOVERLAY, 0, STATIC
        ARGFRAME ISTACK, 0, STACK
        ARGFRAME PSTACK, 0, STACK
        ARGFRAME XSTACK, 52, STACK
        ARGFRAME IOVERLAY, 0, STATIC
        ARGFRAME DOVERLAY, 0, STATIC
        FUNCALL LampCtrl_HandleKeys, HalLedGetState
        LOCFRAME ISTACK, 0, STACK
        LOCFRAME PSTACK, 0, STACK
        LOCFRAME XSTACK, 43, STACK
        LOCFRAME IOVERLAY, 0, STATIC
        LOCFRAME DOVERLAY, 0, STATIC
        ARGFRAME ISTACK, 0, STACK
        ARGFRAME PSTACK, 0, STACK
        ARGFRAME XSTACK, 43, STACK
        ARGFRAME IOVERLAY, 0, STATIC
        ARGFRAME DOVERLAY, 0, STATIC
        FUNCALL LampCtrl_HandleKeys, HalLedSet
        LOCFRAME ISTACK, 0, STACK
        LOCFRAME PSTACK, 0, STACK
        LOCFRAME XSTACK, 43, STACK
        LOCFRAME IOVERLAY, 0, STATIC
        LOCFRAME DOVERLAY, 0, STATIC
        ARGFRAME ISTACK, 0, STACK
        ARGFRAME PSTACK, 0, STACK
        ARGFRAME XSTACK, 43, STACK
        ARGFRAME IOVERLAY, 0, STATIC
        ARGFRAME DOVERLAY, 0, STATIC
        FUNCALL LampCtrl_HandleKeys, HalLedSet
        LOCFRAME ISTACK, 0, STACK
        LOCFRAME PSTACK, 0, STACK
        LOCFRAME XSTACK, 43, STACK
        LOCFRAME IOVERLAY, 0, STATIC
        LOCFRAME DOVERLAY, 0, STATIC
        ARGFRAME ISTACK, 0, STACK
        ARGFRAME PSTACK, 0, STACK
        ARGFRAME XSTACK, 43, STACK
        ARGFRAME IOVERLAY, 0, STATIC
        ARGFRAME DOVERLAY, 0, STATIC
        FUNCALL LampCtrl_HandleKeys, HalLedBlink
        LOCFRAME ISTACK, 0, STACK
        LOCFRAME PSTACK, 0, STACK
        LOCFRAME XSTACK, 43, STACK
        LOCFRAME IOVERLAY, 0, STATIC
        LOCFRAME DOVERLAY, 0, STATIC
        ARGFRAME ISTACK, 0, STACK
        ARGFRAME PSTACK, 0, STACK
        ARGFRAME XSTACK, 43, STACK
        ARGFRAME IOVERLAY, 0, STATIC
        ARGFRAME DOVERLAY, 0, STATIC
        FUNCALL LampCtrl_HandleKeys, HalLedGetState
        LOCFRAME ISTACK, 0, STACK
        LOCFRAME PSTACK, 0, STACK
        LOCFRAME XSTACK, 43, STACK
        LOCFRAME IOVERLAY, 0, STATIC
        LOCFRAME DOVERLAY, 0, STATIC
        ARGFRAME ISTACK, 0, STACK
        ARGFRAME PSTACK, 0, STACK
        ARGFRAME XSTACK, 43, STACK
        ARGFRAME IOVERLAY, 0, STATIC
        ARGFRAME DOVERLAY, 0, STATIC
        FUNCALL LampCtrl_HandleKeys, HalLedSet
        LOCFRAME ISTACK, 0, STACK
        LOCFRAME PSTACK, 0, STACK
        LOCFRAME XSTACK, 43, STACK
        LOCFRAME IOVERLAY, 0, STATIC
        LOCFRAME DOVERLAY, 0, STATIC
        ARGFRAME ISTACK, 0, STACK
        ARGFRAME PSTACK, 0, STACK
        ARGFRAME XSTACK, 43, STACK
        ARGFRAME IOVERLAY, 0, STATIC
        ARGFRAME DOVERLAY, 0, STATIC
        FUNCALL LampCtrl_HandleKeys, AF_DataRequest
        LOCFRAME ISTACK, 0, STACK
        LOCFRAME PSTACK, 0, STACK
        LOCFRAME XSTACK, 52, STACK
        LOCFRAME IOVERLAY, 0, STATIC
        LOCFRAME DOVERLAY, 0, STATIC
        ARGFRAME ISTACK, 0, STACK
        ARGFRAME PSTACK, 0, STACK
        ARGFRAME XSTACK, 52, STACK
        ARGFRAME IOVERLAY, 0, STATIC
        ARGFRAME DOVERLAY, 0, STATIC
        FUNCALL LampCtrl_HandleKeys, HalLedSet
        LOCFRAME ISTACK, 0, STACK
        LOCFRAME PSTACK, 0, STACK
        LOCFRAME XSTACK, 43, STACK
        LOCFRAME IOVERLAY, 0, STATIC
        LOCFRAME DOVERLAY, 0, STATIC
        ARGFRAME ISTACK, 0, STACK
        ARGFRAME PSTACK, 0, STACK
        ARGFRAME XSTACK, 43, STACK
        ARGFRAME IOVERLAY, 0, STATIC
        ARGFRAME DOVERLAY, 0, STATIC
        FUNCALL LampCtrl_HandleKeys, AF_DataRequest
        LOCFRAME ISTACK, 0, STACK
        LOCFRAME PSTACK, 0, STACK
        LOCFRAME XSTACK, 52, STACK
        LOCFRAME IOVERLAY, 0, STATIC
        LOCFRAME DOVERLAY, 0, STATIC
        ARGFRAME ISTACK, 0, STACK
        ARGFRAME PSTACK, 0, STACK
        ARGFRAME XSTACK, 52, STACK
        ARGFRAME IOVERLAY, 0, STATIC
        ARGFRAME DOVERLAY, 0, STATIC
        FUNCALL LampCtrl_HandleKeys, HalLedGetState
        LOCFRAME ISTACK, 0, STACK
        LOCFRAME PSTACK, 0, STACK
        LOCFRAME XSTACK, 43, STACK
        LOCFRAME IOVERLAY, 0, STATIC
        LOCFRAME DOVERLAY, 0, STATIC
        ARGFRAME ISTACK, 0, STACK
        ARGFRAME PSTACK, 0, STACK
        ARGFRAME XSTACK, 43, STACK
        ARGFRAME IOVERLAY, 0, STATIC
        ARGFRAME DOVERLAY, 0, STATIC
        FUNCALL LampCtrl_HandleKeys, HalLedSet
        LOCFRAME ISTACK, 0, STACK
        LOCFRAME PSTACK, 0, STACK
        LOCFRAME XSTACK, 43, STACK
        LOCFRAME IOVERLAY, 0, STATIC
        LOCFRAME DOVERLAY, 0, STATIC
        ARGFRAME ISTACK, 0, STACK
        ARGFRAME PSTACK, 0, STACK
        ARGFRAME XSTACK, 43, STACK
        ARGFRAME IOVERLAY, 0, STATIC
        ARGFRAME DOVERLAY, 0, STATIC
        FUNCALL LampCtrl_HandleKeys, HalLedSet
        LOCFRAME ISTACK, 0, STACK
        LOCFRAME PSTACK, 0, STACK
        LOCFRAME XSTACK, 43, STACK
        LOCFRAME IOVERLAY, 0, STATIC
        LOCFRAME DOVERLAY, 0, STATIC
        ARGFRAME ISTACK, 0, STACK
        ARGFRAME PSTACK, 0, STACK
        ARGFRAME XSTACK, 43, STACK
        ARGFRAME IOVERLAY, 0, STATIC
        ARGFRAME DOVERLAY, 0, STATIC
        FUNCALL LampCtrl_HandleKeys, HalLedBlink
        LOCFRAME ISTACK, 0, STACK
        LOCFRAME PSTACK, 0, STACK
        LOCFRAME XSTACK, 43, STACK
        LOCFRAME IOVERLAY, 0, STATIC
        LOCFRAME DOVERLAY, 0, STATIC
        ARGFRAME ISTACK, 0, STACK
        ARGFRAME PSTACK, 0, STACK
        ARGFRAME XSTACK, 43, STACK
        ARGFRAME IOVERLAY, 0, STATIC
        ARGFRAME DOVERLAY, 0, STATIC
        REQUIRE ?V0
        REQUIRE ?V1
        MOV       A,#-0xa
        LCALL     ?BANKED_ENTER_XDATA
          CFI DPH0 load(1, XDATA, add(CFA_XSP16, literal(-1)))
          CFI DPL0 load(1, XDATA, add(CFA_XSP16, literal(-2)))
          CFI ?BRET_EXT load(1, XDATA, add(CFA_XSP16, literal(-3)))
          CFI ?RET_HIGH load(1, XDATA, add(CFA_XSP16, literal(-4)))
          CFI ?RET_LOW load(1, XDATA, add(CFA_XSP16, literal(-5)))
          CFI R7 load(1, XDATA, add(CFA_XSP16, literal(-6)))
          CFI V1 load(1, XDATA, add(CFA_XSP16, literal(-7)))
          CFI V0 load(1, XDATA, add(CFA_XSP16, literal(-8)))
          CFI VB load(1, XDATA, add(CFA_XSP16, literal(-9)))
          CFI R6 load(1, XDATA, add(CFA_XSP16, literal(-10)))
          CFI CFA_SP SP+0
          CFI CFA_XSP16 add(XSP16, 10)
        ; Saved register size: 10
        ; Auto size: 33
        MOV       A,#-0x21
        LCALL     ?ALLOC_XSTACK8
          CFI CFA_XSP16 add(XSP16, 43)
        MOV       A,R2
        MOV       R6,A
//  426   (void) shift;
//  427 
//  428 #if defined ( ZDO_COORDINATOR )
//  429 
//  430 #else
//  431   uint8 ledstate = 0;
//  432   
//  433   uint16 flashTime;
//  434   
//  435   uint8 afstatus;
//  436   
//  437   if ( keys & HAL_KEY_SW_6 )//D1按键
        MOV       C,0xE0 /* A   */.5
        JC        $+5
        LJMP      ??LampCtrl_HandleKeys_0 & 0xFFFF
//  438     {
//  439       ledstate = HalLedGetState();
        ; Setup parameters for call to function HalLedGetState
        LCALL     `??HalLedGetState::?relay`; Banked call to: HalLedGetState
        MOV       A,R1
        MOV       R0,A
//  440       
//  441         if ( ledstate & 0x01 )//是否是灭
        MOV       C,0xE0 /* A   */.0
        JNC       ??LampCtrl_HandleKeys_1
//  442         {
//  443           HalLedSet( HAL_LED_1 , HAL_LED_MODE_OFF );
        ; Setup parameters for call to function HalLedSet
        MOV       R2,#0x0
        MOV       R1,#0x1
        LCALL     `??HalLedSet::?relay`; Banked call to: HalLedSet
//  444           uint8 data[16] = "Command,KEY1,on,";
        MOV       DPTR,#`?<Constant "Command,KEY1,on,">`
        MOV       R4,?XSP + 0
        MOV       R5,?XSP + 1
        MOV       A,#0x10
        LCALL     ?MOVE_LONG8_XDATA_XDATA
//  445           afstatus = AF_DataRequest(&LampCtrl_Periodic_DstAddr,
//  446                           &LampCtrl_epDesc,
//  447                           LAMPCTRL_KEYMSG_CLUSTERID,
//  448                           sizeof(data),
//  449                           data,
//  450                           &LampCtrl_TransID,
//  451                           AF_DISCV_ROUTE,
//  452                           AF_DEFAULT_RADIUS );
        ; Setup parameters for call to function AF_DataRequest
        MOV       ?V0,#0x1e
        MOV       R0,#?V0
        LCALL     ?PUSH_XSTACK_I_ONE
          CFI CFA_XSP16 add(XSP16, 44)
        MOV       ?V0,#LampCtrl_TransID & 0xff
        MOV       ?V1,#(LampCtrl_TransID >> 8) & 0xff
        MOV       R0,#?V0
        LCALL     ?PUSH_XSTACK_I_TWO
          CFI CFA_XSP16 add(XSP16, 46)
        MOV       A,#0x3
        LCALL     ?XSTACK_DISP100_8
        MOV       ?V0,R0
        MOV       ?V1,R1
        MOV       R0,#?V0
        LCALL     ?PUSH_XSTACK_I_TWO
          CFI CFA_XSP16 add(XSP16, 48)
        MOV       ?V0,#0x10
        SJMP      ??LampCtrl_HandleKeys_2
          CFI CFA_XSP16 add(XSP16, 43)
//  453         }
//  454         else
//  455         {
//  456           HalLedSet( HAL_LED_1 , HAL_LED_MODE_ON );
??LampCtrl_HandleKeys_1:
        ; Setup parameters for call to function HalLedSet
        MOV       R2,#0x1
        MOV       R1,#0x1
        LCALL     `??HalLedSet::?relay`; Banked call to: HalLedSet
//  457           uint8 data[17] = "Command,KEY1,off,";
        MOV       DPTR,#`?<Constant "Command,KEY1,off,">`
        MOV       A,#0x10
        LCALL     ?XSTACK_DISP102_8
        MOV       A,#0x11
        LCALL     ?MOVE_LONG8_XDATA_XDATA
//  458           afstatus = AF_DataRequest(&LampCtrl_Periodic_DstAddr,
//  459                           &LampCtrl_epDesc,
//  460                           LAMPCTRL_KEYMSG_CLUSTERID,
//  461                           sizeof(data),
//  462                           data,
//  463                           &LampCtrl_TransID,
//  464                           AF_DISCV_ROUTE,
//  465                           AF_DEFAULT_RADIUS );
        ; Setup parameters for call to function AF_DataRequest
        MOV       ?V0,#0x1e
        MOV       R0,#?V0
        LCALL     ?PUSH_XSTACK_I_ONE
          CFI CFA_XSP16 add(XSP16, 44)
        MOV       ?V0,#LampCtrl_TransID & 0xff
        MOV       ?V1,#(LampCtrl_TransID >> 8) & 0xff
        MOV       R0,#?V0
        LCALL     ?PUSH_XSTACK_I_TWO
          CFI CFA_XSP16 add(XSP16, 46)
        MOV       A,#0x13
        LCALL     ?XSTACK_DISP100_8
        MOV       ?V0,R0
        MOV       ?V1,R1
        MOV       R0,#?V0
        LCALL     ?PUSH_XSTACK_I_TWO
          CFI CFA_XSP16 add(XSP16, 48)
        MOV       ?V0,#0x11
??LampCtrl_HandleKeys_2:
        MOV       ?V1,#0x0
        MOV       R0,#?V0
        LCALL     ?PUSH_XSTACK_I_TWO
          CFI CFA_XSP16 add(XSP16, 50)
        MOV       ?V0,#0x1
        MOV       R0,#?V0
        LCALL     ?PUSH_XSTACK_I_TWO
          CFI CFA_XSP16 add(XSP16, 52)
        MOV       R1,#0x20
        MOV       R4,#LampCtrl_epDesc & 0xff
        MOV       R5,#(LampCtrl_epDesc >> 8) & 0xff
        MOV       R2,#LampCtrl_Periodic_DstAddr & 0xff
        MOV       R3,#(LampCtrl_Periodic_DstAddr >> 8) & 0xff
        LCALL     `??AF_DataRequest::?relay`; Banked call to: AF_DataRequest
        MOV       A,#0x9
        LCALL     ?DEALLOC_XSTACK8
          CFI CFA_XSP16 add(XSP16, 43)
        MOV       A,R1
//  466         }
//  467 
//  468       if ( afstatus == afStatus_SUCCESS )
        JZ        ??LampCtrl_HandleKeys_0
//  469       
//  470       {
//  471         
//  472         
//  473       }
//  474       else
//  475       {
//  476         ledstate = HalLedGetState();
        ; Setup parameters for call to function HalLedGetState
        LCALL     `??HalLedGetState::?relay`; Banked call to: HalLedGetState
        MOV       A,R1
        MOV       R0,A
//  477          if ( ledstate & 0x01 )
        MOV       C,0xE0 /* A   */.0
        JNC       ??LampCtrl_HandleKeys_3
//  478         {
//  479           HalLedSet( HAL_LED_1 , HAL_LED_MODE_OFF );
        ; Setup parameters for call to function HalLedSet
        MOV       R2,#0x0
        SJMP      ??LampCtrl_HandleKeys_4
//  480         }
//  481         else
//  482         {
//  483           HalLedSet( HAL_LED_1 , HAL_LED_MODE_ON );
??LampCtrl_HandleKeys_3:
        ; Setup parameters for call to function HalLedSet
        MOV       R2,#0x1
??LampCtrl_HandleKeys_4:
        MOV       R1,#0x1
        LCALL     `??HalLedSet::?relay`; Banked call to: HalLedSet
//  484         }
//  485         
//  486         flashTime = BUILD_UINT16(LO_UINT16( LAMPCTRL_FLASH_DURATION ), HI_UINT16( LAMPCTRL_FLASH_DURATION ) );
//  487         HalLedBlink( HAL_LED_1, 4, 70, (flashTime / 2) );
        ; Setup parameters for call to function HalLedBlink
        MOV       R4,#-0xc
        MOV       R5,#0x1
        MOV       R3,#0x46
        MOV       R2,#0x4
        MOV       R1,#0x1
        LCALL     `??HalLedBlink::?relay`; Banked call to: HalLedBlink
//  488         
//  489       }
//  490       
//  491     }
//  492     if ( keys & HAL_KEY_SW_1 )//D2按键
??LampCtrl_HandleKeys_0:
        MOV       A,R6
        MOV       C,0xE0 /* A   */.0
        JC        $+5
        LJMP      ??LampCtrl_HandleKeys_5 & 0xFFFF
//  493     {
//  494       ledstate = HalLedGetState();
        ; Setup parameters for call to function HalLedGetState
        LCALL     `??HalLedGetState::?relay`; Banked call to: HalLedGetState
        MOV       A,R1
        MOV       R0,A
//  495       
//  496       if ( ledstate & 2 )
        MOV       C,0xE0 /* A   */.1
        JNC       ??LampCtrl_HandleKeys_6
//  497       {
//  498         HalLedSet(HAL_LED_2 , HAL_LED_MODE_OFF );
        ; Setup parameters for call to function HalLedSet
        MOV       R2,#0x0
        MOV       R1,#0x2
        LCALL     `??HalLedSet::?relay`; Banked call to: HalLedSet
//  499         uint8 data[16] = "Command,KEY2,on,";
        MOV       DPTR,#`?<Constant "Command,KEY2,on,">`
        MOV       R4,?XSP + 0
        MOV       R5,?XSP + 1
        MOV       A,#0x10
        LCALL     ?MOVE_LONG8_XDATA_XDATA
//  500         afstatus = AF_DataRequest(&LampCtrl_Periodic_DstAddr,
//  501                           &LampCtrl_epDesc,
//  502                           LAMPCTRL_KEYMSG_CLUSTERID,
//  503                           sizeof(data),
//  504                           data,
//  505                           &LampCtrl_TransID,
//  506                           AF_DISCV_ROUTE,
//  507                           AF_DEFAULT_RADIUS );
        ; Setup parameters for call to function AF_DataRequest
        MOV       ?V0,#0x1e
        MOV       R0,#?V0
        LCALL     ?PUSH_XSTACK_I_ONE
          CFI CFA_XSP16 add(XSP16, 44)
        MOV       ?V0,#LampCtrl_TransID & 0xff
        MOV       ?V1,#(LampCtrl_TransID >> 8) & 0xff
        MOV       R0,#?V0
        LCALL     ?PUSH_XSTACK_I_TWO
          CFI CFA_XSP16 add(XSP16, 46)
        MOV       A,#0x3
        LCALL     ?XSTACK_DISP100_8
        MOV       ?V0,R0
        MOV       ?V1,R1
        MOV       R0,#?V0
        LCALL     ?PUSH_XSTACK_I_TWO
          CFI CFA_XSP16 add(XSP16, 48)
        MOV       ?V0,#0x10
        SJMP      ??LampCtrl_HandleKeys_7
          CFI CFA_XSP16 add(XSP16, 43)
//  508       }
//  509       else
//  510       {
//  511         HalLedSet(HAL_LED_2 , HAL_LED_MODE_ON );
??LampCtrl_HandleKeys_6:
        ; Setup parameters for call to function HalLedSet
        MOV       R2,#0x1
        MOV       R1,#0x2
        LCALL     `??HalLedSet::?relay`; Banked call to: HalLedSet
//  512         uint8 data[17] = "Command,KEY2,off,";
        MOV       DPTR,#`?<Constant "Command,KEY2,off,">`
        MOV       A,#0x10
        LCALL     ?XSTACK_DISP102_8
        MOV       A,#0x11
        LCALL     ?MOVE_LONG8_XDATA_XDATA
//  513         afstatus = AF_DataRequest(&LampCtrl_Periodic_DstAddr,
//  514                           &LampCtrl_epDesc,
//  515                           LAMPCTRL_KEYMSG_CLUSTERID,
//  516                           sizeof(data),
//  517                           data,
//  518                           &LampCtrl_TransID,
//  519                           AF_DISCV_ROUTE,
//  520                           AF_DEFAULT_RADIUS );
        ; Setup parameters for call to function AF_DataRequest
        MOV       ?V0,#0x1e
        MOV       R0,#?V0
        LCALL     ?PUSH_XSTACK_I_ONE
          CFI CFA_XSP16 add(XSP16, 44)
        MOV       ?V0,#LampCtrl_TransID & 0xff
        MOV       ?V1,#(LampCtrl_TransID >> 8) & 0xff
        MOV       R0,#?V0
        LCALL     ?PUSH_XSTACK_I_TWO
          CFI CFA_XSP16 add(XSP16, 46)
        MOV       A,#0x13
        LCALL     ?XSTACK_DISP100_8
        MOV       ?V0,R0
        MOV       ?V1,R1
        MOV       R0,#?V0
        LCALL     ?PUSH_XSTACK_I_TWO
          CFI CFA_XSP16 add(XSP16, 48)
        MOV       ?V0,#0x11
??LampCtrl_HandleKeys_7:
        MOV       ?V1,#0x0
        MOV       R0,#?V0
        LCALL     ?PUSH_XSTACK_I_TWO
          CFI CFA_XSP16 add(XSP16, 50)
        MOV       ?V0,#0x1
        MOV       R0,#?V0
        LCALL     ?PUSH_XSTACK_I_TWO
          CFI CFA_XSP16 add(XSP16, 52)
        MOV       R1,#0x20
        MOV       R4,#LampCtrl_epDesc & 0xff
        MOV       R5,#(LampCtrl_epDesc >> 8) & 0xff
        MOV       R2,#LampCtrl_Periodic_DstAddr & 0xff
        MOV       R3,#(LampCtrl_Periodic_DstAddr >> 8) & 0xff
        LCALL     `??AF_DataRequest::?relay`; Banked call to: AF_DataRequest
        MOV       A,#0x9
        LCALL     ?DEALLOC_XSTACK8
          CFI CFA_XSP16 add(XSP16, 43)
        MOV       A,R1
//  521       }      
//  522       if ( afstatus == afStatus_SUCCESS )
        JZ        ??LampCtrl_HandleKeys_5
//  523       
//  524       {
//  525 
//  526         
//  527       }
//  528       else
//  529       {
//  530         ledstate = HalLedGetState();
        ; Setup parameters for call to function HalLedGetState
        LCALL     `??HalLedGetState::?relay`; Banked call to: HalLedGetState
        MOV       A,R1
        MOV       R0,A
//  531         if ( ledstate & 2 )
        MOV       C,0xE0 /* A   */.1
        JNC       ??LampCtrl_HandleKeys_8
//  532         {
//  533           HalLedSet(HAL_LED_2 , HAL_LED_MODE_OFF );
        ; Setup parameters for call to function HalLedSet
        MOV       R2,#0x0
        SJMP      ??LampCtrl_HandleKeys_9
//  534         }
//  535         else
//  536         {
//  537           HalLedSet(HAL_LED_2 , HAL_LED_MODE_ON );
??LampCtrl_HandleKeys_8:
        ; Setup parameters for call to function HalLedSet
        MOV       R2,#0x1
??LampCtrl_HandleKeys_9:
        MOV       R1,#0x2
        LCALL     `??HalLedSet::?relay`; Banked call to: HalLedSet
//  538         }
//  539         
//  540         flashTime = BUILD_UINT16(LO_UINT16( LAMPCTRL_FLASH_DURATION ), HI_UINT16( LAMPCTRL_FLASH_DURATION ) );
//  541         HalLedBlink( HAL_LED_2, 4, 70, (flashTime / 2) );
        ; Setup parameters for call to function HalLedBlink
        MOV       R4,#-0xc
        MOV       R5,#0x1
        MOV       R3,#0x46
        MOV       R2,#0x4
        MOV       R1,#0x2
        LCALL     `??HalLedBlink::?relay`; Banked call to: HalLedBlink
//  542         
//  543       }
//  544     }
//  545 #endif
//  546 }
??LampCtrl_HandleKeys_5:
        MOV       A,#0x21
        LCALL     ?DEALLOC_XSTACK8
          CFI EndBlock cfiBlock2
        REQUIRE ?Subroutine0
        ; // Fall through to label ?Subroutine0

        RSEG BANKED_CODE:HUGECODE:NOROOT(0)
?Subroutine0:
          CFI Block cfiBlock3 Using cfiCommon0
          CFI NoFunction
          CFI CFA_SP SP+0
          CFI CFA_XSP16 add(XSP16, 10)
          CFI VB load(1, XDATA, add(CFA_XSP16, literal(-9)))
          CFI DPL0 load(1, XDATA, add(CFA_XSP16, literal(-2)))
          CFI DPH0 load(1, XDATA, add(CFA_XSP16, literal(-1)))
          CFI R6 load(1, XDATA, add(CFA_XSP16, literal(-10)))
          CFI R7 load(1, XDATA, add(CFA_XSP16, literal(-6)))
          CFI V0 load(1, XDATA, add(CFA_XSP16, literal(-8)))
          CFI V1 load(1, XDATA, add(CFA_XSP16, literal(-7)))
          CFI ?BRET_EXT load(1, XDATA, add(CFA_XSP16, literal(-3)))
          CFI ?RET_HIGH load(1, XDATA, add(CFA_XSP16, literal(-4)))
          CFI ?RET_LOW load(1, XDATA, add(CFA_XSP16, literal(-5)))
        MOV       R7,#0x2
        LJMP      ?BANKED_LEAVE_XDATA
          CFI EndBlock cfiBlock3
//  547 
//  548 /*********************************************************************
//  549  * LOCAL FUNCTIONS
//  550  */
//  551 
//  552 /*********************************************************************
//  553  * @fn      LampCtrl_MessageMSGCB
//  554  *
//  555  * @brief   Data message processor callback.  This function processes
//  556  *          any incoming data - probably from other devices.  So, based
//  557  *          on cluster ID, perform the intended action.
//  558  *
//  559  * @param   none
//  560  *
//  561  * @return  none
//  562  */

        RSEG BANKED_CODE:HUGECODE:NOROOT(0)
//  563 static void LampCtrl_MessageMSGCB( afIncomingMSGPacket_t *pkt )
LampCtrl_MessageMSGCB:
          CFI Block cfiBlock4 Using cfiCommon0
          CFI Function LampCtrl_MessageMSGCB
        CODE
//  564 {
        FUNCALL LampCtrl_MessageMSGCB, HalUARTWrite
        LOCFRAME ISTACK, 0, STACK
        LOCFRAME PSTACK, 0, STACK
        LOCFRAME XSTACK, 10, STACK
        LOCFRAME IOVERLAY, 0, STATIC
        LOCFRAME DOVERLAY, 0, STATIC
        ARGFRAME ISTACK, 0, STACK
        ARGFRAME PSTACK, 0, STACK
        ARGFRAME XSTACK, 10, STACK
        ARGFRAME IOVERLAY, 0, STATIC
        ARGFRAME DOVERLAY, 0, STATIC
        FUNCALL LampCtrl_MessageMSGCB, HalUARTWrite
        LOCFRAME ISTACK, 0, STACK
        LOCFRAME PSTACK, 0, STACK
        LOCFRAME XSTACK, 10, STACK
        LOCFRAME IOVERLAY, 0, STATIC
        LOCFRAME DOVERLAY, 0, STATIC
        ARGFRAME ISTACK, 0, STACK
        ARGFRAME PSTACK, 0, STACK
        ARGFRAME XSTACK, 10, STACK
        ARGFRAME IOVERLAY, 0, STATIC
        ARGFRAME DOVERLAY, 0, STATIC
        FUNCALL LampCtrl_MessageMSGCB, HalLedSet
        LOCFRAME ISTACK, 0, STACK
        LOCFRAME PSTACK, 0, STACK
        LOCFRAME XSTACK, 10, STACK
        LOCFRAME IOVERLAY, 0, STATIC
        LOCFRAME DOVERLAY, 0, STATIC
        ARGFRAME ISTACK, 0, STACK
        ARGFRAME PSTACK, 0, STACK
        ARGFRAME XSTACK, 10, STACK
        ARGFRAME IOVERLAY, 0, STATIC
        ARGFRAME DOVERLAY, 0, STATIC
        FUNCALL LampCtrl_MessageMSGCB, HalLedSet
        LOCFRAME ISTACK, 0, STACK
        LOCFRAME PSTACK, 0, STACK
        LOCFRAME XSTACK, 10, STACK
        LOCFRAME IOVERLAY, 0, STATIC
        LOCFRAME DOVERLAY, 0, STATIC
        ARGFRAME ISTACK, 0, STACK
        ARGFRAME PSTACK, 0, STACK
        ARGFRAME XSTACK, 10, STACK
        ARGFRAME IOVERLAY, 0, STATIC
        ARGFRAME DOVERLAY, 0, STATIC
        FUNCALL LampCtrl_MessageMSGCB, HalLedSet
        LOCFRAME ISTACK, 0, STACK
        LOCFRAME PSTACK, 0, STACK
        LOCFRAME XSTACK, 10, STACK
        LOCFRAME IOVERLAY, 0, STATIC
        LOCFRAME DOVERLAY, 0, STATIC
        ARGFRAME ISTACK, 0, STACK
        ARGFRAME PSTACK, 0, STACK
        ARGFRAME XSTACK, 10, STACK
        ARGFRAME IOVERLAY, 0, STATIC
        ARGFRAME DOVERLAY, 0, STATIC
        FUNCALL LampCtrl_MessageMSGCB, HalLedSet
        LOCFRAME ISTACK, 0, STACK
        LOCFRAME PSTACK, 0, STACK
        LOCFRAME XSTACK, 10, STACK
        LOCFRAME IOVERLAY, 0, STATIC
        LOCFRAME DOVERLAY, 0, STATIC
        ARGFRAME ISTACK, 0, STACK
        ARGFRAME PSTACK, 0, STACK
        ARGFRAME XSTACK, 10, STACK
        ARGFRAME IOVERLAY, 0, STATIC
        ARGFRAME DOVERLAY, 0, STATIC
        FUNCALL LampCtrl_MessageMSGCB, HalLedSet
        LOCFRAME ISTACK, 0, STACK
        LOCFRAME PSTACK, 0, STACK
        LOCFRAME XSTACK, 10, STACK
        LOCFRAME IOVERLAY, 0, STATIC
        LOCFRAME DOVERLAY, 0, STATIC
        ARGFRAME ISTACK, 0, STACK
        ARGFRAME PSTACK, 0, STACK
        ARGFRAME XSTACK, 10, STACK
        ARGFRAME IOVERLAY, 0, STATIC
        ARGFRAME DOVERLAY, 0, STATIC
        FUNCALL LampCtrl_MessageMSGCB, HalLedSet
        LOCFRAME ISTACK, 0, STACK
        LOCFRAME PSTACK, 0, STACK
        LOCFRAME XSTACK, 10, STACK
        LOCFRAME IOVERLAY, 0, STATIC
        LOCFRAME DOVERLAY, 0, STATIC
        ARGFRAME ISTACK, 0, STACK
        ARGFRAME PSTACK, 0, STACK
        ARGFRAME XSTACK, 10, STACK
        ARGFRAME IOVERLAY, 0, STATIC
        ARGFRAME DOVERLAY, 0, STATIC
        REQUIRE ?V0
        REQUIRE ?V1
        MOV       A,#-0xa
        LCALL     ?BANKED_ENTER_XDATA
          CFI DPH0 load(1, XDATA, add(CFA_XSP16, literal(-1)))
          CFI DPL0 load(1, XDATA, add(CFA_XSP16, literal(-2)))
          CFI ?BRET_EXT load(1, XDATA, add(CFA_XSP16, literal(-3)))
          CFI ?RET_HIGH load(1, XDATA, add(CFA_XSP16, literal(-4)))
          CFI ?RET_LOW load(1, XDATA, add(CFA_XSP16, literal(-5)))
          CFI R7 load(1, XDATA, add(CFA_XSP16, literal(-6)))
          CFI V1 load(1, XDATA, add(CFA_XSP16, literal(-7)))
          CFI V0 load(1, XDATA, add(CFA_XSP16, literal(-8)))
          CFI VB load(1, XDATA, add(CFA_XSP16, literal(-9)))
          CFI R6 load(1, XDATA, add(CFA_XSP16, literal(-10)))
          CFI CFA_SP SP+0
          CFI CFA_XSP16 add(XSP16, 10)
        ; Saved register size: 10
        ; Auto size: 0
//  565   byte data;
//  566   
//  567   switch ( pkt->clusterId )
        MOV       DPL,R2
        MOV       DPH,R3
        INC       DPTR
        INC       DPTR
        INC       DPTR
        INC       DPTR
        MOVX      A,@DPTR
        MOV       ?V0,A
        INC       DPTR
        MOVX      A,@DPTR
        MOV       ?V1,A
        MOV       R0,#?V0
        LCALL     ?US_SWITCH_DENSE
`?<Jumptable for LampCtrl_MessageMSGCB>_0`:
        DATA
        DATA16
        DATA
        DATA16
        DW        1
        DATA
        DATA8
        DATA
        DATA8
        DB        2
        DATA
        DATA16
        DATA
        DATA16
        DW        ??LampCtrl_MessageMSGCB_0
        DATA
        DATA16
        DATA
        DATA16
        DW        ??LampCtrl_MessageMSGCB_1
        DATA
        DATA16
        DATA
        DATA16
        DW        ??LampCtrl_MessageMSGCB_2
        DATA
        DATA16
        DATA
        DATA16
        DW        ??LampCtrl_MessageMSGCB_1
        CODE
//  568   {
//  569     case LAMPCTRL_KEYMSG_CLUSTERID:
//  570       HalUARTWrite(0 , pkt->cmd.Data , pkt->cmd.DataLength);
//  571       HalUARTWrite(0 , "\n" , 1);
//  572       break;
//  573       
//  574     case LAMPCTRL_REGMSG_CLUSTERID:
//  575       HalUARTWrite(0 , pkt->cmd.Data , pkt->cmd.DataLength);
??LampCtrl_MessageMSGCB_1:
        ; Setup parameters for call to function HalUARTWrite
        MOV       A,R2
        ADD       A,#0x20
        MOV       DPL,A
        CLR       A
        ADDC      A,R3
        MOV       DPH,A
        MOVX      A,@DPTR
        MOV       R4,A
        INC       DPTR
        MOVX      A,@DPTR
        MOV       R5,A
        LCALL     ?Subroutine1 & 0xFFFF
??CrossCallReturnLabel_0:
        MOV       R2,A
        INC       DPTR
        MOVX      A,@DPTR
        MOV       R3,A
        MOV       R1,#0x0
        LCALL     `??HalUARTWrite::?relay`; Banked call to: HalUARTWrite
//  576       HalUARTWrite(0 , "\n" , 1);
        ; Setup parameters for call to function HalUARTWrite
        MOV       R4,#0x1
        MOV       R5,#0x0
        MOV       R2,#`?<Constant "\\n">` & 0xff
        MOV       R3,#(`?<Constant "\\n">` >> 8) & 0xff
        MOV       R1,#0x0
        LCALL     `??HalUARTWrite::?relay`; Banked call to: HalUARTWrite
//  577       break;
        SJMP      ??LampCtrl_MessageMSGCB_0
//  578       
//  579     case LAMPCTRL_PCMSG_CLUSTERID:      
//  580       data = pkt->cmd.Data[0];
??LampCtrl_MessageMSGCB_2:
        LCALL     ?Subroutine1 & 0xFFFF
??CrossCallReturnLabel_1:
        MOV       R0,A
        INC       DPTR
        MOVX      A,@DPTR
        MOV       DPH,A
        MOV       DPL,R0
        MOVX      A,@DPTR
        MOV       R0,A
//  581       if ( data == 0x10 )//点亮
        MOV       A,#0x10
        XRL       A,R0
        JNZ       ??LampCtrl_MessageMSGCB_3
//  582       {
//  583         HalLedSet( HAL_LED_1 , HAL_LED_MODE_OFF );
        ; Setup parameters for call to function HalLedSet
        MOV       R2,#0x0
        SJMP      ??LampCtrl_MessageMSGCB_4
//  584       }
//  585       if ( data == 0x11 )//熄灭
??LampCtrl_MessageMSGCB_3:
        MOV       A,#0x11
        XRL       A,R0
        JNZ       ??LampCtrl_MessageMSGCB_5
//  586       {
//  587         HalLedSet( HAL_LED_1 , HAL_LED_MODE_ON );
        ; Setup parameters for call to function HalLedSet
        MOV       R2,#0x1
??LampCtrl_MessageMSGCB_4:
        MOV       R1,#0x1
        SJMP      ??LampCtrl_MessageMSGCB_6
//  588       }
//  589       if ( data == 0x20 )
??LampCtrl_MessageMSGCB_5:
        MOV       A,#0x20
        XRL       A,R0
        JZ        ??LampCtrl_MessageMSGCB_7
//  590       {
//  591         HalLedSet( HAL_LED_2 , HAL_LED_MODE_OFF );
        ; Setup parameters for call to function HalLedSet
//  592       }
//  593       if ( data == 0x21 )
        MOV       A,#0x21
        XRL       A,R0
        JNZ       ??LampCtrl_MessageMSGCB_8
//  594       {
//  595         HalLedSet( HAL_LED_2 , HAL_LED_MODE_ON );
        ; Setup parameters for call to function HalLedSet
        MOV       R2,#0x1
        SJMP      ??LampCtrl_MessageMSGCB_9
//  596       }
//  597       if ( data == 0x00 )
??LampCtrl_MessageMSGCB_8:
        MOV       A,R0
        JNZ       ??LampCtrl_MessageMSGCB_0
//  598       {
//  599         HalLedSet( HAL_LED_1 , HAL_LED_MODE_OFF );
        ; Setup parameters for call to function HalLedSet
        MOV       R2,#0x0
        MOV       R1,#0x1
        LCALL     `??HalLedSet::?relay`; Banked call to: HalLedSet
//  600         HalLedSet( HAL_LED_2 , HAL_LED_MODE_OFF );
        ; Setup parameters for call to function HalLedSet
??LampCtrl_MessageMSGCB_7:
        MOV       R2,#0x0
??LampCtrl_MessageMSGCB_9:
        MOV       R1,#0x2
??LampCtrl_MessageMSGCB_6:
        LCALL     `??HalLedSet::?relay`; Banked call to: HalLedSet
//  601       }
//  602     break;
//  603     
//  604   }
//  605 }
??LampCtrl_MessageMSGCB_0:
        LJMP      ?Subroutine0 & 0xFFFF
          CFI EndBlock cfiBlock4

        RSEG BANKED_CODE:HUGECODE:NOROOT(0)
?Subroutine1:
          CFI Block cfiCond5 Using cfiCommon0
          CFI Function LampCtrl_MessageMSGCB
          CFI Conditional ??CrossCallReturnLabel_0
          CFI R6 load(1, XDATA, add(CFA_XSP16, literal(-10)))
          CFI VB load(1, XDATA, add(CFA_XSP16, literal(-9)))
          CFI V0 load(1, XDATA, add(CFA_XSP16, literal(-8)))
          CFI V1 load(1, XDATA, add(CFA_XSP16, literal(-7)))
          CFI R7 load(1, XDATA, add(CFA_XSP16, literal(-6)))
          CFI ?RET_LOW load(1, XDATA, add(CFA_XSP16, literal(-5)))
          CFI ?RET_HIGH load(1, XDATA, add(CFA_XSP16, literal(-4)))
          CFI ?BRET_EXT load(1, XDATA, add(CFA_XSP16, literal(-3)))
          CFI DPL0 load(1, XDATA, add(CFA_XSP16, literal(-2)))
          CFI DPH0 load(1, XDATA, add(CFA_XSP16, literal(-1)))
          CFI CFA_SP SP+-2
          CFI CFA_XSP16 add(XSP16, 10)
          CFI Block cfiCond6 Using cfiCommon0
          CFI (cfiCond6) Function LampCtrl_MessageMSGCB
          CFI (cfiCond6) Conditional ??CrossCallReturnLabel_1
          CFI (cfiCond6) R6 load(1, XDATA, add(CFA_XSP16, literal(-10)))
          CFI (cfiCond6) VB load(1, XDATA, add(CFA_XSP16, literal(-9)))
          CFI (cfiCond6) V0 load(1, XDATA, add(CFA_XSP16, literal(-8)))
          CFI (cfiCond6) V1 load(1, XDATA, add(CFA_XSP16, literal(-7)))
          CFI (cfiCond6) R7 load(1, XDATA, add(CFA_XSP16, literal(-6)))
          CFI (cfiCond6) ?RET_LOW load(1, XDATA, add(CFA_XSP16, literal(-5)))
          CFI (cfiCond6) ?RET_HIGH load(1, XDATA, add(CFA_XSP16, literal(-4)))
          CFI (cfiCond6) ?BRET_EXT load(1, XDATA, add(CFA_XSP16, literal(-3)))
          CFI (cfiCond6) DPL0 load(1, XDATA, add(CFA_XSP16, literal(-2)))
          CFI (cfiCond6) DPH0 load(1, XDATA, add(CFA_XSP16, literal(-1)))
          CFI (cfiCond6) CFA_SP SP+-2
          CFI (cfiCond6) CFA_XSP16 add(XSP16, 10)
          CFI Block cfiPicker7 Using cfiCommon1
          CFI (cfiPicker7) NoFunction
          CFI (cfiPicker7) Picker
        MOV       A,R2
        ADD       A,#0x22
        MOV       DPL,A
        CLR       A
        ADDC      A,R3
        MOV       DPH,A
        MOVX      A,@DPTR
        RET
          CFI EndBlock cfiCond5
          CFI EndBlock cfiCond6
          CFI EndBlock cfiPicker7
//  606 
//  607 

        RSEG BANKED_CODE:HUGECODE:NOROOT(0)
//  608 static void LampCtrl_CallBack(uint8 port , uint8 event)
LampCtrl_CallBack:
          CFI Block cfiBlock8 Using cfiCommon0
          CFI Function LampCtrl_CallBack
        CODE
//  609 {
        FUNCALL LampCtrl_CallBack, LampCtrl_Send
        LOCFRAME ISTACK, 0, STACK
        LOCFRAME PSTACK, 0, STACK
        LOCFRAME XSTACK, 9, STACK
        LOCFRAME IOVERLAY, 0, STATIC
        LOCFRAME DOVERLAY, 0, STATIC
        ARGFRAME ISTACK, 0, STACK
        ARGFRAME PSTACK, 0, STACK
        ARGFRAME XSTACK, 9, STACK
        ARGFRAME IOVERLAY, 0, STATIC
        ARGFRAME DOVERLAY, 0, STATIC
        MOV       A,#-0x9
        LCALL     ?BANKED_ENTER_XDATA
          CFI DPH0 load(1, XDATA, add(CFA_XSP16, literal(-1)))
          CFI DPL0 load(1, XDATA, add(CFA_XSP16, literal(-2)))
          CFI ?BRET_EXT load(1, XDATA, add(CFA_XSP16, literal(-3)))
          CFI ?RET_HIGH load(1, XDATA, add(CFA_XSP16, literal(-4)))
          CFI ?RET_LOW load(1, XDATA, add(CFA_XSP16, literal(-5)))
          CFI R7 load(1, XDATA, add(CFA_XSP16, literal(-6)))
          CFI V0 load(1, XDATA, add(CFA_XSP16, literal(-7)))
          CFI VB load(1, XDATA, add(CFA_XSP16, literal(-8)))
          CFI R6 load(1, XDATA, add(CFA_XSP16, literal(-9)))
          CFI CFA_SP SP+0
          CFI CFA_XSP16 add(XSP16, 9)
        ; Saved register size: 9
        ; Auto size: 0
        MOV       A,R2
        MOV       R6,A
//  610   (void)port;
//  611 
//  612   if ((event & (HAL_UART_RX_FULL | HAL_UART_RX_ABOUT_FULL | HAL_UART_RX_TIMEOUT)) && !LampCtrl_TxLen)
        MOV       A,#0x7
        ANL       A,R6
        JZ        ??LampCtrl_CallBack_0
        MOV       DPTR,#LampCtrl_TxLen
        MOVX      A,@DPTR
        JNZ       ??LampCtrl_CallBack_0
//  613   {
//  614     LampCtrl_Send();
        ; Setup parameters for call to function LampCtrl_Send
        LCALL     `??LampCtrl_Send::?relay`; Banked call to: LampCtrl_Send
//  615   }
//  616   
//  617   
//  618   
//  619 }
??LampCtrl_CallBack_0:
        MOV       R7,#0x1
        LJMP      ?BANKED_LEAVE_XDATA
          CFI EndBlock cfiBlock8
//  620 

        RSEG BANKED_CODE:HUGECODE:NOROOT(0)
//  621 static void LampCtrl_Send( )//从电脑接收数据，准备发给终端
LampCtrl_Send:
          CFI Block cfiBlock9 Using cfiCommon0
          CFI Function LampCtrl_Send
        CODE
//  622 {
        FUNCALL LampCtrl_Send, HalUARTRead
        LOCFRAME ISTACK, 0, STACK
        LOCFRAME PSTACK, 0, STACK
        LOCFRAME XSTACK, 10, STACK
        LOCFRAME IOVERLAY, 0, STATIC
        LOCFRAME DOVERLAY, 0, STATIC
        ARGFRAME ISTACK, 0, STACK
        ARGFRAME PSTACK, 0, STACK
        ARGFRAME XSTACK, 10, STACK
        ARGFRAME IOVERLAY, 0, STATIC
        ARGFRAME DOVERLAY, 0, STATIC
        FUNCALL LampCtrl_Send, AF_DataRequest
        LOCFRAME ISTACK, 0, STACK
        LOCFRAME PSTACK, 0, STACK
        LOCFRAME XSTACK, 19, STACK
        LOCFRAME IOVERLAY, 0, STATIC
        LOCFRAME DOVERLAY, 0, STATIC
        ARGFRAME ISTACK, 0, STACK
        ARGFRAME PSTACK, 0, STACK
        ARGFRAME XSTACK, 19, STACK
        ARGFRAME IOVERLAY, 0, STATIC
        ARGFRAME DOVERLAY, 0, STATIC
        FUNCALL LampCtrl_Send, osal_set_event
        LOCFRAME ISTACK, 0, STACK
        LOCFRAME PSTACK, 0, STACK
        LOCFRAME XSTACK, 10, STACK
        LOCFRAME IOVERLAY, 0, STATIC
        LOCFRAME DOVERLAY, 0, STATIC
        ARGFRAME ISTACK, 0, STACK
        ARGFRAME PSTACK, 0, STACK
        ARGFRAME XSTACK, 10, STACK
        ARGFRAME IOVERLAY, 0, STATIC
        ARGFRAME DOVERLAY, 0, STATIC
        REQUIRE ?V0
        REQUIRE ?V1
        MOV       A,#-0xa
        LCALL     ?BANKED_ENTER_XDATA
          CFI DPH0 load(1, XDATA, add(CFA_XSP16, literal(-1)))
          CFI DPL0 load(1, XDATA, add(CFA_XSP16, literal(-2)))
          CFI ?BRET_EXT load(1, XDATA, add(CFA_XSP16, literal(-3)))
          CFI ?RET_HIGH load(1, XDATA, add(CFA_XSP16, literal(-4)))
          CFI ?RET_LOW load(1, XDATA, add(CFA_XSP16, literal(-5)))
          CFI R7 load(1, XDATA, add(CFA_XSP16, literal(-6)))
          CFI V1 load(1, XDATA, add(CFA_XSP16, literal(-7)))
          CFI V0 load(1, XDATA, add(CFA_XSP16, literal(-8)))
          CFI VB load(1, XDATA, add(CFA_XSP16, literal(-9)))
          CFI R6 load(1, XDATA, add(CFA_XSP16, literal(-10)))
          CFI CFA_SP SP+0
          CFI CFA_XSP16 add(XSP16, 10)
        ; Saved register size: 10
        ; Auto size: 0
//  623     LampCtrl_TxLen = HalUARTRead(LAMPCTRL_PORT, LampCtrl_TxBuf, LAMPCTRL_TX_MAX);
        ; Setup parameters for call to function HalUARTRead
        MOV       R4,#0x50
        MOV       R5,#0x0
        MOV       R2,#LampCtrl_TxBuf & 0xff
        MOV       R3,#(LampCtrl_TxBuf >> 8) & 0xff
        MOV       R1,#0x0
        LCALL     `??HalUARTRead::?relay`; Banked call to: HalUARTRead
        MOV       A,R2
        MOV       DPTR,#LampCtrl_TxLen
        MOVX      @DPTR,A
//  624   
//  625     if (LampCtrl_TxLen)
        JZ        ??LampCtrl_Send_0
//  626     {
//  627       if (afStatus_SUCCESS != AF_DataRequest(&LampCtrl_TxAddr,
//  628                                              &LampCtrl_epDesc,
//  629                                              LAMPCTRL_PCMSG_CLUSTERID,
//  630                                              LampCtrl_TxLen,
//  631                                              LampCtrl_TxBuf,
//  632                                              &LampCtrl_TransID, 
//  633                                              0, 
//  634                                              AF_DEFAULT_RADIUS))
        ; Setup parameters for call to function AF_DataRequest
        MOV       ?V0,#0x1e
        MOV       R0,#?V0
        LCALL     ?PUSH_XSTACK_I_ONE
          CFI CFA_XSP16 add(XSP16, 11)
        MOV       ?V0,#LampCtrl_TransID & 0xff
        MOV       ?V1,#(LampCtrl_TransID >> 8) & 0xff
        MOV       R0,#?V0
        LCALL     ?PUSH_XSTACK_I_TWO
          CFI CFA_XSP16 add(XSP16, 13)
        MOV       ?V0,#LampCtrl_TxBuf & 0xff
        MOV       ?V1,#(LampCtrl_TxBuf >> 8) & 0xff
        MOV       R0,#?V0
        LCALL     ?PUSH_XSTACK_I_TWO
          CFI CFA_XSP16 add(XSP16, 15)
        MOV       DPTR,#LampCtrl_TxLen
        MOVX      A,@DPTR
        MOV       ?V0,A
        MOV       ?V1,#0x0
        MOV       R0,#?V0
        LCALL     ?PUSH_XSTACK_I_TWO
          CFI CFA_XSP16 add(XSP16, 17)
        MOV       ?V0,#0x2
        MOV       R0,#?V0
        LCALL     ?PUSH_XSTACK_I_TWO
          CFI CFA_XSP16 add(XSP16, 19)
        MOV       R1,#0x0
        MOV       R4,#LampCtrl_epDesc & 0xff
        MOV       R5,#(LampCtrl_epDesc >> 8) & 0xff
        MOV       R2,#LampCtrl_TxAddr & 0xff
        MOV       R3,#(LampCtrl_TxAddr >> 8) & 0xff
        LCALL     `??AF_DataRequest::?relay`; Banked call to: AF_DataRequest
        MOV       A,#0x9
        LCALL     ?DEALLOC_XSTACK8
          CFI CFA_XSP16 add(XSP16, 10)
        MOV       A,R1
        JZ        ??LampCtrl_Send_1
//  635       {
//  636         osal_set_event(LampCtrl_TaskID, LAMPCTRL_SEND_EVT   /*todo*/  );
        ; Setup parameters for call to function osal_set_event
        MOV       R2,#0x2
        MOV       R3,#0x0
        MOV       DPTR,#LampCtrl_TaskID
        MOVX      A,@DPTR
        MOV       R1,A
        LCALL     `??osal_set_event::?relay`; Banked call to: osal_set_event
        SJMP      ??LampCtrl_Send_0
//  637       }
//  638       else
//  639       {
//  640         LampCtrl_TxLen = 0;
??LampCtrl_Send_1:
        MOV       DPTR,#LampCtrl_TxLen
        CLR       A
        MOVX      @DPTR,A
//  641       }
//  642     }  
//  643 }
??LampCtrl_Send_0:
        LJMP      ?Subroutine0 & 0xFFFF
          CFI EndBlock cfiBlock9

        RSEG XDATA_ID:CODE:NOROOT(0)
`?<Initializer for AppTitle>`:
        DB "LampCtrl"

        RSEG XDATA_ID:CODE:NOROOT(0)
`?<Initializer for LampCtrl_epDesc>`:
        DATA8
        DB 10
        DATA16
        DW LampCtrl_TaskID
        DW LampCtrl_SimpleDesc
        DATA8
        DB 0

        RSEG BANK_RELAYS:CODE:REORDER:NOROOT(0)
`??LampCtrl_Init::?relay`:
        CODE
        LCALL   ?BDISPATCH
        DATA24
        DC24    LampCtrl_Init

        RSEG BANK_RELAYS:CODE:REORDER:NOROOT(0)
`??LampCtrl_ProcessEvent::?relay`:
        CODE
        LCALL   ?BDISPATCH
        DATA24
        DC24    LampCtrl_ProcessEvent

        RSEG BANK_RELAYS:CODE:REORDER:NOROOT(0)
`??LampCtrl_HandleKeys::?relay`:
        CODE
        LCALL   ?BDISPATCH
        DATA24
        DC24    LampCtrl_HandleKeys

        RSEG BANK_RELAYS:CODE:REORDER:NOROOT(0)
`??LampCtrl_MessageMSGCB::?relay`:
        CODE
        LCALL   ?BDISPATCH
        DATA24
        DC24    LampCtrl_MessageMSGCB

        RSEG BANK_RELAYS:CODE:REORDER:NOROOT(0)
`??LampCtrl_CallBack::?relay`:
        CODE
        LCALL   ?BDISPATCH
        DATA24
        DC24    LampCtrl_CallBack

        RSEG BANK_RELAYS:CODE:REORDER:NOROOT(0)
`??LampCtrl_Send::?relay`:
        CODE
        LCALL   ?BDISPATCH
        DATA24
        DC24    LampCtrl_Send

        RSEG XDATA_ROM_C:CONST:REORDER:NOROOT(0)
        DATA8
`?<Constant "Group 1">`:
        DB "Group 1"

        RSEG XDATA_ROM_C:CONST:REORDER:NOROOT(0)
        DATA8
`?<Constant "LampCtrl">`:
        DB "LampCtrl"

        RSEG XDATA_ROM_C:CONST:REORDER:NOROOT(0)
        DATA8
`?<Constant "Register,KEY1,on,">`:
        DB 52H, 65H, 67H, 69H, 73H, 74H, 65H, 72H
        DB 2CH, 4BH, 45H, 59H, 31H, 2CH, 6FH, 6EH
        DB 2CH

        RSEG XDATA_ROM_C:CONST:REORDER:NOROOT(0)
        DATA8
`?<Constant "Register,KEY2,on,">`:
        DB 52H, 65H, 67H, 69H, 73H, 74H, 65H, 72H
        DB 2CH, 4BH, 45H, 59H, 32H, 2CH, 6FH, 6EH
        DB 2CH

        RSEG XDATA_ROM_C:CONST:REORDER:NOROOT(0)
        DATA8
`?<Constant "Command,KEY1,on,">`:
        DB 43H, 6FH, 6DH, 6DH, 61H, 6EH, 64H, 2CH
        DB 4BH, 45H, 59H, 31H, 2CH, 6FH, 6EH, 2CH

        RSEG XDATA_ROM_C:CONST:REORDER:NOROOT(0)
        DATA8
`?<Constant "Command,KEY1,off,">`:
        DB 43H, 6FH, 6DH, 6DH, 61H, 6EH, 64H, 2CH
        DB 4BH, 45H, 59H, 31H, 2CH, 6FH, 66H, 66H
        DB 2CH

        RSEG XDATA_ROM_C:CONST:REORDER:NOROOT(0)
        DATA8
`?<Constant "Command,KEY2,on,">`:
        DB 43H, 6FH, 6DH, 6DH, 61H, 6EH, 64H, 2CH
        DB 4BH, 45H, 59H, 32H, 2CH, 6FH, 6EH, 2CH

        RSEG XDATA_ROM_C:CONST:REORDER:NOROOT(0)
        DATA8
`?<Constant "Command,KEY2,off,">`:
        DB 43H, 6FH, 6DH, 6DH, 61H, 6EH, 64H, 2CH
        DB 4BH, 45H, 59H, 32H, 2CH, 6FH, 66H, 66H
        DB 2CH

        RSEG XDATA_ROM_C:CONST:REORDER:NOROOT(0)
        DATA16
`?<Constant "\\n">`:
        DB "\012"

        END
//  644 
//  645 
//  646 /*********************************************************************
//  647  */
// 
// 1 348 bytes in segment BANKED_CODE
//    36 bytes in segment BANK_RELAYS
//    15 bytes in segment XDATA_I
//    15 bytes in segment XDATA_ID
//   137 bytes in segment XDATA_ROM_C
//   139 bytes in segment XDATA_Z
// 
//    51 bytes of CODE     memory
//   137 bytes of CONST    memory
// 1 348 bytes of HUGECODE memory
//   154 bytes of XDATA    memory
//
//Errors: none
//Warnings: none
