///////////////////////////////////////////////////////////////////////////////
//
// IAR C/C++ Compiler V10.10.1.4655 for 8051              23/May/2018  02:39:08
// Copyright 2004-2017 IAR Systems AB.
// Standalone license - IAR Embedded Workbench for 8051
//
//    Core               =  plain
//    Code model         =  banked
//    Data model         =  large
//    Calling convention =  xdata reentrant
//    Constant location  =  data_rom
//    Dptr setup         =  1,16
//                          
//    Source file        =  
//        C:\Users\Traceur\Desktop\SmartLamp\Components\hal\target\CC2530EB\hal_lcd.c
//    Command line       =  
//        -f C:\Users\Traceur\AppData\Local\Temp\EW392E.tmp
//        (C:\Users\Traceur\Desktop\SmartLamp\Components\hal\target\CC2530EB\hal_lcd.c
//        -D ZIGBEEPRO -D ZTOOL_P1 -D xMT_TASK -D xMT_SYS_FUNC -D xMT_ZDO_FUNC
//        -D LCD_SUPPORTED=DEBUG -lC
//        C:\Users\Traceur\Desktop\SmartLamp\Projects\zstack\Samples\LampCtrl\CC2530DB\CoordinatorEB\List
//        -lA
//        C:\Users\Traceur\Desktop\SmartLamp\Projects\zstack\Samples\LampCtrl\CC2530DB\CoordinatorEB\List
//        --diag_suppress Pe001,Pa010 -o
//        C:\Users\Traceur\Desktop\SmartLamp\Projects\zstack\Samples\LampCtrl\CC2530DB\CoordinatorEB\Obj
//        -e --debug --core=plain --dptr=16,1 --data_model=large
//        --code_model=banked --calling_convention=xdata_reentrant
//        --place_constants=data_rom --nr_virtual_regs 16 -f
//        C:\Users\Traceur\Desktop\SmartLamp\Projects\zstack\Samples\LampCtrl\CC2530DB\..\..\..\Tools\CC2530DB\f8wCoord.cfg
//        (-DCPU32MHZ -DROOT=__near_func -DMAC_CFG_APP_PENDING_QUEUE=TRUE
//        -DMAC_CFG_TX_DATA_MAX=5 -DMAC_CFG_TX_MAX=8 -DMAC_CFG_RX_MAX=5
//        -DZDO_COORDINATOR -DRTR_NWK) -f
//        C:\Users\Traceur\Desktop\SmartLamp\Projects\zstack\Samples\LampCtrl\CC2530DB\..\..\..\Tools\CC2530DB\f8wConfig.cfg
//        (-DZIGBEEPRO -DSECURE=0 -DZG_SECURE_DYNAMIC=0 -DREFLECTOR
//        -DDEFAULT_CHANLIST=0x00000800 -DZDAPP_CONFIG_PAN_ID=0xFFF1
//        -DNWK_START_DELAY=100 -DEXTENDED_JOINING_RANDOM_MASK=0x007F
//        -DBEACON_REQUEST_DELAY=100 -DBEACON_REQ_DELAY_MASK=0x00FF
//        -DLINK_STATUS_JITTER_MASK=0x007F -DROUTE_EXPIRY_TIME=30
//        -DAPSC_ACK_WAIT_DURATION_POLLED=3000 -DNWK_INDIRECT_MSG_TIMEOUT=7
//        -DMAX_RREQ_ENTRIES=8 -DAPSC_MAX_FRAME_RETRIES=3
//        -DNWK_MAX_DATA_RETRIES=2 -DMAX_POLL_FAILURE_RETRIES=2 -DMAX_BCAST=9
//        -DAPS_MAX_GROUPS=16 -DMAX_RTG_ENTRIES=40 -DNWK_MAX_BINDING_ENTRIES=4
//        -DMAX_BINDING_CLUSTER_IDS=4 "-DDEFAULT_KEY={0x01, 0x03, 0x05, 0x07,
//        0x09, 0x0B, 0x0D, 0x0F, 0x00, 0x02, 0x04, 0x06, 0x08, 0x0A, 0x0C,
//        0x0D}" -DMAC_MAX_FRAME_SIZE=116 -DZDNWKMGR_MIN_TRANSMISSIONS=20
//        "-DCONST=const __code" -DGENERIC=__generic -DRFD_RCVC_ALWAYS_ON=FALSE
//        -DPOLL_RATE=1000 -DQUEUED_POLL_RATE=100 -DRESPONSE_POLL_RATE=100
//        -DREJOIN_POLL_RATE=440) -I
//        C:\Users\Traceur\Desktop\SmartLamp\Projects\zstack\Samples\LampCtrl\CC2530DB\
//        -I
//        C:\Users\Traceur\Desktop\SmartLamp\Projects\zstack\Samples\LampCtrl\CC2530DB\..\Source\
//        -I
//        C:\Users\Traceur\Desktop\SmartLamp\Projects\zstack\Samples\LampCtrl\CC2530DB\..\..\..\ZMain\TI2530DB\
//        -I
//        C:\Users\Traceur\Desktop\SmartLamp\Projects\zstack\Samples\LampCtrl\CC2530DB\..\..\..\..\..\Components\hal\include\
//        -I
//        C:\Users\Traceur\Desktop\SmartLamp\Projects\zstack\Samples\LampCtrl\CC2530DB\..\..\..\..\..\Components\hal\target\CC2530EB\
//        -I
//        C:\Users\Traceur\Desktop\SmartLamp\Projects\zstack\Samples\LampCtrl\CC2530DB\..\..\..\..\..\Components\mac\include\
//        -I
//        C:\Users\Traceur\Desktop\SmartLamp\Projects\zstack\Samples\LampCtrl\CC2530DB\..\..\..\..\..\Components\mac\high_level\
//        -I
//        C:\Users\Traceur\Desktop\SmartLamp\Projects\zstack\Samples\LampCtrl\CC2530DB\..\..\..\..\..\Components\mac\low_level\srf04\
//        -I
//        C:\Users\Traceur\Desktop\SmartLamp\Projects\zstack\Samples\LampCtrl\CC2530DB\..\..\..\..\..\Components\mac\low_level\srf04\single_chip\
//        -I
//        C:\Users\Traceur\Desktop\SmartLamp\Projects\zstack\Samples\LampCtrl\CC2530DB\..\..\..\..\..\Components\mt\
//        -I
//        C:\Users\Traceur\Desktop\SmartLamp\Projects\zstack\Samples\LampCtrl\CC2530DB\..\..\..\..\..\Components\osal\include\
//        -I
//        C:\Users\Traceur\Desktop\SmartLamp\Projects\zstack\Samples\LampCtrl\CC2530DB\..\..\..\..\..\Components\services\saddr\
//        -I
//        C:\Users\Traceur\Desktop\SmartLamp\Projects\zstack\Samples\LampCtrl\CC2530DB\..\..\..\..\..\Components\services\sdata\
//        -I
//        C:\Users\Traceur\Desktop\SmartLamp\Projects\zstack\Samples\LampCtrl\CC2530DB\..\..\..\..\..\Components\stack\af\
//        -I
//        C:\Users\Traceur\Desktop\SmartLamp\Projects\zstack\Samples\LampCtrl\CC2530DB\..\..\..\..\..\Components\stack\nwk\
//        -I
//        C:\Users\Traceur\Desktop\SmartLamp\Projects\zstack\Samples\LampCtrl\CC2530DB\..\..\..\..\..\Components\stack\sapi\
//        -I
//        C:\Users\Traceur\Desktop\SmartLamp\Projects\zstack\Samples\LampCtrl\CC2530DB\..\..\..\..\..\Components\stack\sec\
//        -I
//        C:\Users\Traceur\Desktop\SmartLamp\Projects\zstack\Samples\LampCtrl\CC2530DB\..\..\..\..\..\Components\stack\sys\
//        -I
//        C:\Users\Traceur\Desktop\SmartLamp\Projects\zstack\Samples\LampCtrl\CC2530DB\..\..\..\..\..\Components\stack\zdo\
//        -I
//        C:\Users\Traceur\Desktop\SmartLamp\Projects\zstack\Samples\LampCtrl\CC2530DB\..\..\..\..\..\Components\zmac\
//        -I
//        C:\Users\Traceur\Desktop\SmartLamp\Projects\zstack\Samples\LampCtrl\CC2530DB\..\..\..\..\..\Components\zmac\f8w\
//        -Ohz --require_prototypes --no_code_motion)
//    Locale             =  Chinese (Simplified)_China.936
//    List file          =  
//        C:\Users\Traceur\Desktop\SmartLamp\Projects\zstack\Samples\LampCtrl\CC2530DB\CoordinatorEB\List\hal_lcd.s51
//
///////////////////////////////////////////////////////////////////////////////

        NAME hal_lcd

        RTMODEL "__SystemLibrary", "CLib"
        RTMODEL "__calling_convention", "xdata_reentrant"
        RTMODEL "__code_model", "banked"
        RTMODEL "__core", "plain"
        RTMODEL "__data_model", "large"
        RTMODEL "__dptr_size", "16"
        RTMODEL "__extended_stack", "disabled"
        RTMODEL "__location_for_constants", "data"
        RTMODEL "__number_of_dptrs", "1"
        RTMODEL "__register_banks", "*"
        RTMODEL "__rt_version", "1"

        RSEG DOVERLAY:DATA:NOROOT(0)
        RSEG IOVERLAY:IDATA:NOROOT(0)
        RSEG ISTACK:IDATA:NOROOT(0)
        RSEG PSTACK:XDATA:NOROOT(0)
        RSEG XSTACK:XDATA:NOROOT(0)

        EXTERN ?V0
        EXTERN ?V1
        EXTERN ?V2
        EXTERN ?V3
        EXTERN ?V4
        EXTERN ?V5
        EXTERN ?V6
        EXTERN ?V7
        EXTERN ?ALLOC_XSTACK8
        EXTERN ?BANKED_ENTER_XDATA
        EXTERN ?BANKED_LEAVE_XDATA
        EXTERN ?BDISPATCH
        EXTERN ?BRET
        EXTERN ?DEALLOC_XSTACK8
        EXTERN ?PUSH_XSTACK8_X_TWO
        EXTERN ?PUSH_XSTACK_I_THREE
        EXTERN ?PUSH_XSTACK_I_TWO
        EXTERN ?US_SHR
        EXTERN ?XSP
        EXTERN ?XSTACK_DISP0_8
        EXTERN ?XSTACK_DISP101_8
        EXTERN __INIT_XDATA_I
        EXTERN __INIT_XDATA_Z

        PUBLIC `??DelayMS::?relay`
        FUNCTION `??DelayMS::?relay`,0203H
        PUBLIC `??DrawHorizonLine::?relay`
        FUNCTION `??DrawHorizonLine::?relay`,0203H
        PUBLIC `??DrawPixel::?relay`
        FUNCTION `??DrawPixel::?relay`,0203H
        PUBLIC `??DrawRect::?relay`
        FUNCTION `??DrawRect::?relay`,0203H
        PUBLIC `??DrawRectFill::?relay`
        FUNCTION `??DrawRectFill::?relay`,0203H
        PUBLIC `??DrawVerticalLine::?relay`
        FUNCTION `??DrawVerticalLine::?relay`,0203H
        PUBLIC `??HalLcdInit::?relay`
        FUNCTION `??HalLcdInit::?relay`,0203H
        PUBLIC `??HalLcdWriteScreen::?relay`
        FUNCTION `??HalLcdWriteScreen::?relay`,0203H
        PUBLIC `??HalLcdWriteString::?relay`
        FUNCTION `??HalLcdWriteString::?relay`,0203H
        PUBLIC `??HalLcdWriteStringValue::?relay`
        FUNCTION `??HalLcdWriteStringValue::?relay`,0203H
        PUBLIC `??HalLcdWriteStringValueValue::?relay`
        FUNCTION `??HalLcdWriteStringValueValue::?relay`,0203H
        PUBLIC `??HalLcdWriteValue::?relay`
        FUNCTION `??HalLcdWriteValue::?relay`,0203H
        PUBLIC `??HalLcd_HW_Init::?relay`
        FUNCTION `??HalLcd_HW_Init::?relay`,0203H
        PUBLIC `??LCD_WrCmd::?relay`
        FUNCTION `??LCD_WrCmd::?relay`,0203H
        PUBLIC `??LCD_WrDat::?relay`
        FUNCTION `??LCD_WrDat::?relay`,0203H
        PUBLIC `??LCD_WriteData_16Bit::?relay`
        FUNCTION `??LCD_WriteData_16Bit::?relay`,0203H
        PUBLIC `??LCD_clear::?relay`
        FUNCTION `??LCD_clear::?relay`,0203H
        FUNCTION `??LCD_set_window::?relay`,0203H
        FUNCTION `??LCD_write_CN::?relay`,0203H
        PUBLIC `??LCD_write_CN_string::?relay`
        FUNCTION `??LCD_write_CN_string::?relay`,0203H
        FUNCTION `??LCD_write_EN::?relay`,0203H
        PUBLIC `??LCD_write_EN_string::?relay`
        FUNCTION `??LCD_write_EN_string::?relay`,0203H
        FUNCTION `??LCD_write_byte::?relay`,0203H
        PUBLIC `??Lcd_Reset::?relay`
        FUNCTION `??Lcd_Reset::?relay`,0203H
        PUBLIC `??SPI_WriteData::?relay`
        FUNCTION `??SPI_WriteData::?relay`,0203H
        PUBLIC `??SendByte::?relay`
        FUNCTION `??SendByte::?relay`,0203H
        PUBLIC `??ShowImage::?relay`
        FUNCTION `??ShowImage::?relay`,0203H
        PUBLIC ASCII7x14
        PUBLIC CN14x14
        PUBLIC CN14x14_Index
        PUBLIC Color
        PUBLIC Color_BK
        PUBLIC DelayMS
        FUNCTION DelayMS,080203H
        ARGFRAME XSTACK, 0, STACK
        ARGFRAME IOVERLAY, 0, STATIC
        ARGFRAME DOVERLAY, 0, STATIC
        PUBLIC DrawHorizonLine
        FUNCTION DrawHorizonLine,0a1203H
        ARGFRAME XSTACK, 20, STACK
        ARGFRAME IOVERLAY, 0, STATIC
        ARGFRAME DOVERLAY, 0, STATIC
        LOCFRAME XSTACK, 20, STACK
        PUBLIC DrawPixel
        FUNCTION DrawPixel,021203H
        ARGFRAME XSTACK, 2, STACK
        LOCFRAME XSTACK, 9, STACK
        PUBLIC DrawRect
        FUNCTION DrawRect,0a1203H
        ARGFRAME XSTACK, 6, STACK
        LOCFRAME XSTACK, 20, STACK
        PUBLIC DrawRectFill
        FUNCTION DrawRectFill,0a1203H
        ARGFRAME XSTACK, 20, STACK
        ARGFRAME IOVERLAY, 0, STATIC
        ARGFRAME DOVERLAY, 0, STATIC
        LOCFRAME XSTACK, 20, STACK
        PUBLIC DrawVerticalLine
        FUNCTION DrawVerticalLine,0a1203H
        ARGFRAME XSTACK, 20, STACK
        ARGFRAME IOVERLAY, 0, STATIC
        ARGFRAME DOVERLAY, 0, STATIC
        LOCFRAME XSTACK, 20, STACK
        PUBLIC HalLcdInit
        FUNCTION HalLcdInit,021203H
        ARGFRAME XSTACK, 0, STACK
        LOCFRAME ISTACK, 2, STACK
        PUBLIC HalLcdWriteScreen
        FUNCTION HalLcdWriteScreen,021203H
        ARGFRAME XSTACK, 0, STACK
        LOCFRAME XSTACK, 9, STACK
        PUBLIC HalLcdWriteString
        FUNCTION HalLcdWriteString,0a1203H
        ARGFRAME XSTACK, 40, STACK
        ARGFRAME IOVERLAY, 0, STATIC
        ARGFRAME DOVERLAY, 0, STATIC
        LOCFRAME XSTACK, 18, STACK
        PUBLIC HalLcdWriteStringValue
        FUNCTION HalLcdWriteStringValue,0a1203H
        ARGFRAME XSTACK, 1, STACK
        LOCFRAME XSTACK, 43, STACK
        PUBLIC HalLcdWriteStringValueValue
        FUNCTION HalLcdWriteStringValueValue,0a1203H
        ARGFRAME XSTACK, 4, STACK
        LOCFRAME XSTACK, 43, STACK
        PUBLIC HalLcdWriteValue
        FUNCTION HalLcdWriteValue,0a1203H
        ARGFRAME XSTACK, 1, STACK
        LOCFRAME XSTACK, 41, STACK
        PUBLIC HalLcd_HW_Init
        FUNCTION HalLcd_HW_Init,021203H
        ARGFRAME XSTACK, 0, STACK
        ARGFRAME IOVERLAY, 0, STATIC
        ARGFRAME DOVERLAY, 0, STATIC
        LOCFRAME ISTACK, 2, STACK
        PUBLIC LCD_WrCmd
        FUNCTION LCD_WrCmd,021203H
        ARGFRAME XSTACK, 9, STACK
        ARGFRAME IOVERLAY, 0, STATIC
        ARGFRAME DOVERLAY, 0, STATIC
        LOCFRAME XSTACK, 9, STACK
        PUBLIC LCD_WrDat
        FUNCTION LCD_WrDat,021203H
        ARGFRAME XSTACK, 9, STACK
        ARGFRAME IOVERLAY, 0, STATIC
        ARGFRAME DOVERLAY, 0, STATIC
        LOCFRAME XSTACK, 9, STACK
        PUBLIC LCD_WriteData_16Bit
        FUNCTION LCD_WriteData_16Bit,021203H
        ARGFRAME XSTACK, 12, STACK
        ARGFRAME IOVERLAY, 0, STATIC
        ARGFRAME DOVERLAY, 0, STATIC
        LOCFRAME XSTACK, 9, STACK
        PUBLIC LCD_clear
        FUNCTION LCD_clear,0a1203H
        ARGFRAME XSTACK, 0, STACK
        ARGFRAME IOVERLAY, 0, STATIC
        ARGFRAME DOVERLAY, 0, STATIC
        LOCFRAME XSTACK, 16, STACK
        FUNCTION LCD_set_window,0a1203H
        ARGFRAME XSTACK, 20, STACK
        ARGFRAME IOVERLAY, 0, STATIC
        ARGFRAME DOVERLAY, 0, STATIC
        LOCFRAME XSTACK, 12, STACK
        FUNCTION LCD_write_CN,0a1203H
        ARGFRAME XSTACK, 14, STACK
        ARGFRAME IOVERLAY, 0, STATIC
        ARGFRAME DOVERLAY, 0, STATIC
        LOCFRAME XSTACK, 14, STACK
        PUBLIC LCD_write_CN_string
        FUNCTION LCD_write_CN_string,0a1203H
        ARGFRAME XSTACK, 0, STACK
        LOCFRAME XSTACK, 20, STACK
        FUNCTION LCD_write_EN,0a1203H
        ARGFRAME XSTACK, 13, STACK
        ARGFRAME IOVERLAY, 0, STATIC
        ARGFRAME DOVERLAY, 0, STATIC
        LOCFRAME XSTACK, 16, STACK
        PUBLIC LCD_write_EN_string
        FUNCTION LCD_write_EN_string,0a1203H
        ARGFRAME XSTACK, 12, STACK
        ARGFRAME IOVERLAY, 0, STATIC
        ARGFRAME DOVERLAY, 0, STATIC
        LOCFRAME XSTACK, 13, STACK
        FUNCTION LCD_write_byte,021203H
        ARGFRAME XSTACK, 16, STACK
        ARGFRAME IOVERLAY, 0, STATIC
        ARGFRAME DOVERLAY, 0, STATIC
        LOCFRAME XSTACK, 9, STACK
        PUBLIC Lcd_Reset
        FUNCTION Lcd_Reset,021203H
        ARGFRAME XSTACK, 0, STACK
        ARGFRAME IOVERLAY, 0, STATIC
        ARGFRAME DOVERLAY, 0, STATIC
        LOCFRAME ISTACK, 2, STACK
        PUBWEAK P0DIR
        PUBWEAK P0SEL
        PUBWEAK P1DIR
        PUBWEAK P1SEL
        PUBLIC SPI_WriteData
        FUNCTION SPI_WriteData,0203H
        ARGFRAME XSTACK, 9, STACK
        ARGFRAME IOVERLAY, 0, STATIC
        ARGFRAME DOVERLAY, 0, STATIC
        PUBLIC SendByte
        FUNCTION SendByte,0203H
        ARGFRAME XSTACK, 16, STACK
        ARGFRAME IOVERLAY, 0, STATIC
        ARGFRAME DOVERLAY, 0, STATIC
        PUBLIC ShowImage
        FUNCTION ShowImage,0a1203H
        ARGFRAME XSTACK, 0, STACK
        LOCFRAME XSTACK, 16, STACK
        PUBWEAK _A_P0
        PUBWEAK _A_P1
        
          CFI Names cfiNames0
          CFI StackFrame CFA_SP SP IDATA
          CFI StackFrame CFA_PSP16 PSP16 XDATA
          CFI StackFrame CFA_XSP16 XSP16 XDATA
          CFI StaticOverlayFrame CFA_IOVERLAY IOVERLAY
          CFI StaticOverlayFrame CFA_DOVERLAY DOVERLAY
          CFI Resource `PSW.CY`:1, `B.BR0`:1, `B.BR1`:1, `B.BR2`:1, `B.BR3`:1
          CFI Resource `B.BR4`:1, `B.BR5`:1, `B.BR6`:1, `B.BR7`:1, `VB.BR8`:1
          CFI Resource `VB.BR9`:1, `VB.BR10`:1, `VB.BR11`:1, `VB.BR12`:1
          CFI Resource `VB.BR13`:1, `VB.BR14`:1, `VB.BR15`:1, VB:8, B:8, A:8
          CFI Resource PSW:8, DPL0:8, DPH0:8, R0:8, R1:8, R2:8, R3:8, R4:8, R5:8
          CFI Resource R6:8, R7:8, V0:8, V1:8, V2:8, V3:8, V4:8, V5:8, V6:8, V7:8
          CFI Resource V8:8, V9:8, V10:8, V11:8, V12:8, V13:8, V14:8, V15:8, SP:8
          CFI Resource PSPH:8, PSPL:8, PSP16:16, XSPH:8, XSPL:8, XSP16:16
          CFI VirtualResource ?RET:24
          CFI Resource ?BRET_EXT:8
          CFI VirtualResource ?RET_HIGH:8, ?RET_LOW:8
          CFI ResourceParts PSP16 PSPH, PSPL
          CFI ResourceParts XSP16 XSPH, XSPL
          CFI ResourceParts ?RET ?BRET_EXT, ?RET_HIGH, ?RET_LOW
          CFI EndNames cfiNames0
        
          CFI Common cfiCommon0 Using cfiNames0
          CFI CodeAlign 1
          CFI DataAlign -1
          CFI ReturnAddress ?RET CODE
          CFI CFA_DOVERLAY Used
          CFI CFA_IOVERLAY Used
          CFI CFA_SP SP+-3
          CFI CFA_PSP16 PSP16+0
          CFI CFA_XSP16 XSP16+0
          CFI `PSW.CY` SameValue
          CFI `B.BR0` SameValue
          CFI `B.BR1` SameValue
          CFI `B.BR2` SameValue
          CFI `B.BR3` SameValue
          CFI `B.BR4` SameValue
          CFI `B.BR5` SameValue
          CFI `B.BR6` SameValue
          CFI `B.BR7` SameValue
          CFI `VB.BR8` SameValue
          CFI `VB.BR9` SameValue
          CFI `VB.BR10` SameValue
          CFI `VB.BR11` SameValue
          CFI `VB.BR12` SameValue
          CFI `VB.BR13` SameValue
          CFI `VB.BR14` SameValue
          CFI `VB.BR15` SameValue
          CFI VB SameValue
          CFI B Undefined
          CFI A Undefined
          CFI PSW SameValue
          CFI DPL0 SameValue
          CFI DPH0 SameValue
          CFI R0 Undefined
          CFI R1 Undefined
          CFI R2 Undefined
          CFI R3 Undefined
          CFI R4 Undefined
          CFI R5 Undefined
          CFI R6 SameValue
          CFI R7 SameValue
          CFI V0 SameValue
          CFI V1 SameValue
          CFI V2 SameValue
          CFI V3 SameValue
          CFI V4 SameValue
          CFI V5 SameValue
          CFI V6 SameValue
          CFI V7 SameValue
          CFI V8 SameValue
          CFI V9 SameValue
          CFI V10 SameValue
          CFI V11 SameValue
          CFI V12 SameValue
          CFI V13 SameValue
          CFI V14 SameValue
          CFI V15 SameValue
          CFI PSPH Undefined
          CFI PSPL Undefined
          CFI XSPH Undefined
          CFI XSPL Undefined
          CFI ?RET Concat
          CFI ?BRET_EXT Frame(CFA_SP, 3)
          CFI ?RET_HIGH Frame(CFA_SP, 2)
          CFI ?RET_LOW Frame(CFA_SP, 1)
          CFI EndCommon cfiCommon0
        
        
          CFI Common cfiCommon1 Using cfiNames0
          CFI CodeAlign 1
          CFI DataAlign -1
          CFI ReturnAddress ?RET CODE
          CFI CFA_DOVERLAY Used
          CFI CFA_IOVERLAY Used
          CFI CFA_SP SP+-2
          CFI CFA_PSP16 PSP16+0
          CFI CFA_XSP16 XSP16+0
          CFI `PSW.CY` SameValue
          CFI `B.BR0` SameValue
          CFI `B.BR1` SameValue
          CFI `B.BR2` SameValue
          CFI `B.BR3` SameValue
          CFI `B.BR4` SameValue
          CFI `B.BR5` SameValue
          CFI `B.BR6` SameValue
          CFI `B.BR7` SameValue
          CFI `VB.BR8` SameValue
          CFI `VB.BR9` SameValue
          CFI `VB.BR10` SameValue
          CFI `VB.BR11` SameValue
          CFI `VB.BR12` SameValue
          CFI `VB.BR13` SameValue
          CFI `VB.BR14` SameValue
          CFI `VB.BR15` SameValue
          CFI VB SameValue
          CFI B SameValue
          CFI A SameValue
          CFI PSW SameValue
          CFI DPL0 SameValue
          CFI DPH0 SameValue
          CFI R0 SameValue
          CFI R1 SameValue
          CFI R2 SameValue
          CFI R3 SameValue
          CFI R4 SameValue
          CFI R5 SameValue
          CFI R6 SameValue
          CFI R7 SameValue
          CFI V0 SameValue
          CFI V1 SameValue
          CFI V2 SameValue
          CFI V3 SameValue
          CFI V4 SameValue
          CFI V5 SameValue
          CFI V6 SameValue
          CFI V7 SameValue
          CFI V8 SameValue
          CFI V9 SameValue
          CFI V10 SameValue
          CFI V11 SameValue
          CFI V12 SameValue
          CFI V13 SameValue
          CFI V14 SameValue
          CFI V15 SameValue
          CFI PSPH Undefined
          CFI PSPL Undefined
          CFI XSPH Undefined
          CFI XSPL Undefined
          CFI ?RET Concat
          CFI ?BRET_EXT SameValue
          CFI ?RET_HIGH Frame(CFA_SP, 2)
          CFI ?RET_LOW Frame(CFA_SP, 1)
          CFI EndCommon cfiCommon1
        
_ltoa               SYMBOL "_ltoa"
`??_ltoa::?relay`   SYMBOL "?relay", _ltoa
osal_memcpy         SYMBOL "osal_memcpy"
`??osal_memcpy::?relay` SYMBOL "?relay", osal_memcpy
osal_strlen         SYMBOL "osal_strlen"
`??osal_strlen::?relay` SYMBOL "?relay", osal_strlen
DelayMS             SYMBOL "DelayMS"
`??DelayMS::?relay` SYMBOL "?relay", DelayMS
DrawHorizonLine     SYMBOL "DrawHorizonLine"
`??DrawHorizonLine::?relay` SYMBOL "?relay", DrawHorizonLine
DrawPixel           SYMBOL "DrawPixel"
`??DrawPixel::?relay` SYMBOL "?relay", DrawPixel
DrawRect            SYMBOL "DrawRect"
`??DrawRect::?relay` SYMBOL "?relay", DrawRect
DrawRectFill        SYMBOL "DrawRectFill"
`??DrawRectFill::?relay` SYMBOL "?relay", DrawRectFill
DrawVerticalLine    SYMBOL "DrawVerticalLine"
`??DrawVerticalLine::?relay` SYMBOL "?relay", DrawVerticalLine
HalLcdInit          SYMBOL "HalLcdInit"
`??HalLcdInit::?relay` SYMBOL "?relay", HalLcdInit
HalLcdWriteScreen   SYMBOL "HalLcdWriteScreen"
`??HalLcdWriteScreen::?relay` SYMBOL "?relay", HalLcdWriteScreen
HalLcdWriteString   SYMBOL "HalLcdWriteString"
`??HalLcdWriteString::?relay` SYMBOL "?relay", HalLcdWriteString
HalLcdWriteStringValue SYMBOL "HalLcdWriteStringValue"
`??HalLcdWriteStringValue::?relay` SYMBOL "?relay", HalLcdWriteStringValue
HalLcdWriteStringValueValue SYMBOL "HalLcdWriteStringValueValue"
`??HalLcdWriteStringValueValue::?relay` SYMBOL "?relay", HalLcdWriteStringValueValue
HalLcdWriteValue    SYMBOL "HalLcdWriteValue"
`??HalLcdWriteValue::?relay` SYMBOL "?relay", HalLcdWriteValue
HalLcd_HW_Init      SYMBOL "HalLcd_HW_Init"
`??HalLcd_HW_Init::?relay` SYMBOL "?relay", HalLcd_HW_Init
LCD_WrCmd           SYMBOL "LCD_WrCmd"
`??LCD_WrCmd::?relay` SYMBOL "?relay", LCD_WrCmd
LCD_WrDat           SYMBOL "LCD_WrDat"
`??LCD_WrDat::?relay` SYMBOL "?relay", LCD_WrDat
LCD_WriteData_16Bit SYMBOL "LCD_WriteData_16Bit"
`??LCD_WriteData_16Bit::?relay` SYMBOL "?relay", LCD_WriteData_16Bit
LCD_clear           SYMBOL "LCD_clear"
`??LCD_clear::?relay` SYMBOL "?relay", LCD_clear
LCD_write_CN_string SYMBOL "LCD_write_CN_string"
`??LCD_write_CN_string::?relay` SYMBOL "?relay", LCD_write_CN_string
LCD_write_EN_string SYMBOL "LCD_write_EN_string"
`??LCD_write_EN_string::?relay` SYMBOL "?relay", LCD_write_EN_string
Lcd_Reset           SYMBOL "Lcd_Reset"
`??Lcd_Reset::?relay` SYMBOL "?relay", Lcd_Reset
SPI_WriteData       SYMBOL "SPI_WriteData"
`??SPI_WriteData::?relay` SYMBOL "?relay", SPI_WriteData
SendByte            SYMBOL "SendByte"
`??SendByte::?relay` SYMBOL "?relay", SendByte
ShowImage           SYMBOL "ShowImage"
`??ShowImage::?relay` SYMBOL "?relay", ShowImage

        EXTERN `??_ltoa::?relay`
        FUNCTION `??_ltoa::?relay`,00H
        EXTERN `??osal_memcpy::?relay`
        FUNCTION `??osal_memcpy::?relay`,00H
        EXTERN `??osal_strlen::?relay`
        FUNCTION `??osal_strlen::?relay`,00H
        EXTERN _ltoa
        FUNCTION _ltoa,0202H
        ARGFRAME ISTACK, 0, STACK
        ARGFRAME PSTACK, 0, STACK
        ARGFRAME XSTACK, 42, STACK
        ARGFRAME IOVERLAY, 0, STATIC
        ARGFRAME DOVERLAY, 0, STATIC
        EXTERN osal_memcpy
        FUNCTION osal_memcpy,0202H
        ARGFRAME ISTACK, 0, STACK
        ARGFRAME PSTACK, 0, STACK
        ARGFRAME XSTACK, 43, STACK
        ARGFRAME IOVERLAY, 0, STATIC
        ARGFRAME DOVERLAY, 0, STATIC
        EXTERN osal_strlen
        FUNCTION osal_strlen,0202H
        ARGFRAME ISTACK, 0, STACK
        ARGFRAME PSTACK, 0, STACK
        ARGFRAME XSTACK, 40, STACK
        ARGFRAME IOVERLAY, 0, STATIC
        ARGFRAME DOVERLAY, 0, STATIC

// C:\Users\Traceur\Desktop\SmartLamp\Components\hal\target\CC2530EB\hal_lcd.c
//    1 /****************************************************************************
//    2 * Filename: hal_lcd.c
//    3 * Author:      Andy  https://aldsz.taobao.com
//    4 * Date:        2015-06-16
//    5 * Version:     1.0
//    6 * Description: OLED driver
//    7 ****************************************************************************/
//    8 #include "hal_types.h"
//    9 #include "hal_lcd.h"

        ASEGN SFR_AN:DATA:NOROOT,080H
// union <unnamed> volatile __sfr _A_P0
_A_P0:
        DATA8
        DS 1

        ASEGN SFR_AN:DATA:NOROOT,090H
// union <unnamed> volatile __sfr _A_P1
_A_P1:
        DATA8
        DS 1

        ASEGN SFR_AN:DATA:NOROOT,0f3H
// unsigned char volatile __sfr P0SEL
P0SEL:
        DATA8
        DS 1

        ASEGN SFR_AN:DATA:NOROOT,0f4H
// unsigned char volatile __sfr P1SEL
P1SEL:
        DATA8
        DS 1

        ASEGN SFR_AN:DATA:NOROOT,0fdH
// unsigned char volatile __sfr P0DIR
P0DIR:
        DATA8
        DS 1

        ASEGN SFR_AN:DATA:NOROOT,0feH
// unsigned char volatile __sfr P1DIR
P1DIR:
        DATA8
        DS 1
//   10 #include "OSAL.h"
//   11 #include "OnBoard.h"
//   12 #include "hal_assert.h"
//   13 #include <string.h>
//   14 
//   15 #if defined (ZTOOL_P1) || defined (ZTOOL_P2)
//   16   #include "DebugTrace.h"
//   17 #endif
//   18 
//   19 
//   20 //------------------------------------------------------------------------------
//   21 #define LCD_COMMAND 0x00
//   22 #define LCD_DATA    0x01
//   23 
//   24 #define LCD_MAX_BUF 25
//   25 
//   26 #define SOFTWARE_SPI
//   27 //#define HARDWARE_SPI //采用硬件SPI通讯
//   28 
//   29 #define COL_SPACE   2  //字符间距
//   30 #define ROW_SPACE   4  //行间距
//   31 #define ALL_CNS     128
//   32 #define X_MAX_PIXEL 128
//   33 #define Y_MAX_PIXEL 128
//   34 
//   35 // SPI TFT LCD端口定义
//   36 #define LCD_DC           P0_0  // 数据/命令选择
//   37 #define LCD_SDA          P1_3  // 双向数据 
//   38 #define LCD_SCL          P1_2  // 时钟   
//   39 //#define LCD_CS         P1_2  // 片选, L_S 将片选接地
//   40 #define LCD_RST          P1_7  // 控制lcd复位   
//   41 
//   42 //液晶控制口置1操作语句宏定义
//   43 //#define LCD_CS_SET  	(LCD_CS_CLRx01)   
//   44 #define	LCD_DC_SET  	(LCD_DC = 0x01)  
//   45 #define	LCD_SDA_SET  	(LCD_SDA = 0x01)    
//   46 #define	LCD_SCL_SET  	(LCD_SCL = 0x01)   
//   47 #define	LCD_RST_SET  	(LCD_RST = 0x01)  
//   48 
//   49 //液晶控制口置0操作语句宏定义
//   50 //#define LCD_CS_CLR  	(LCD_CS_CLRx00)    
//   51 #define	LCD_DC_CLR  	(LCD_DC = 0x00)  
//   52 #define	LCD_SDA_CLR  	(LCD_SDA = 0x00)     
//   53 #define	LCD_SCL_CLR  	(LCD_SCL = 0x00)
//   54 #define	LCD_RST_CLR  	(LCD_RST = 0x00)   
//   55 
//   56 
//   57 void SPI_Init(void);
//   58 void LCD_clear(unsigned int color);
//   59 void LCD_write_EN_string(unsigned char X,unsigned char Y,uint8 *s);
//   60 static void LCD_set_window(unsigned int X, unsigned int Y, 
//   61                            unsigned Width,unsigned int Height);
//   62 static void LCD_write_EN(unsigned int X, unsigned int Y, unsigned char c);
//   63 static void LCD_write_CN(unsigned int X, unsigned int Y, unsigned char c);
//   64 

        RSEG XDATA_I:XDATA:NOROOT(0)
//   65 unsigned int  Color    = BLUE; //默认前景颜色
Color:
        DATA16
        DS 2
        REQUIRE `?<Initializer for Color>`
        REQUIRE __INIT_XDATA_I

        RSEG XDATA_I:XDATA:NOROOT(0)
//   66 unsigned int  Color_BK = GREEN;//默认背景颜色
Color_BK:
        DATA16
        DS 2
        REQUIRE `?<Initializer for Color_BK>`
        REQUIRE __INIT_XDATA_I
//   67 //------------------------------------------------------------------------------
//   68 
//   69 #define XLevelL            0x00
//   70 #define XLevelH            0x10
//   71 #define XLevel             ((XLevelH&0x0F)*16+XLevelL)
//   72 #define Max_Column         128
//   73 #define Max_Row            64
//   74 #define Brightness         0xCF 
//   75 #define X_WIDTH            128
//   76 #define Y_WIDTH            64
//   77 
//   78 #define LCD_MAX_BUF        25
//   79 #define HAL_LCD_MAX_CHARS  16   // Max number of chars on a single LCD line 
//   80 
//   81 
//   82 #if (HAL_LCD == TRUE)
//   83 void HalLcd_HW_Init(void);
//   84 void HalLcd_HW_WaitUs(uint16 i);
//   85 void HalLcd_HW_Clear(void);
//   86 void HalLcd_HW_Control(uint8 cmd);
//   87 void HalLcd_HW_Write(uint8 data);
//   88 void HalLcd_HW_SetContrast(uint8 value);
//   89 void HalLcd_HW_WriteChar(uint8 line, uint8 col, char text);
//   90 void HalLcd_HW_WriteLine(uint8 line, const char *pText);
//   91 
//   92 void DelayMS(unsigned int msec);
//   93 void LCD_WrDat(unsigned char dat);
//   94 void LCD_WrCmd(unsigned char cmd);
//   95 void LCD_Set_Pos(unsigned char x, unsigned char y);
//   96 void LCD_Fill(unsigned char bmp_dat) ;
//   97 void LCD_CLS(void);
//   98 
//   99 //-----------------------------------------------------------------------------
//  100 void DrawRect(unsigned int Xpos, unsigned int Ypos, unsigned int Width, 
//  101               unsigned int Height,unsigned Color);
//  102 void DrawRectFill(unsigned int Xpos  , unsigned int Ypos, unsigned int Width, 
//  103                   unsigned int Height, unsigned Color);
//  104 void  SendByte(unsigned char Data);
//  105 void  SPI_WriteData(unsigned char Data);
//  106 void LCD_write_byte(unsigned char data, unsigned char command);
//  107 void LCD_WriteData_16Bit(unsigned short Data);
//  108 void LCD_write_CN_string(unsigned char X,unsigned char Y,uint8 *s);
//  109 void ShowImage(const unsigned char *p);
//  110 
//  111 void DrawPixel(unsigned int x, unsigned int y, unsigned int color);
//  112 void DrawVerticalLine(unsigned int x, unsigned int y, 
//  113                       unsigned int Length,unsigned int Color);
//  114 void DrawHorizonLine(unsigned int x, unsigned int y, 
//  115                      unsigned int Length,unsigned int Color);               
//  116 void Lcd_Reset(void);
//  117 
//  118 
//  119 //中文14x14点阵字符索引 ALD

        RSEG CODE_C:CODE:REORDER:NOROOT(0)
        DATA8
//  120 __code const  unsigned char CN14x14_Index[] =
CN14x14_Index:
        DB 0C9H, 0EEH, 0DBH, 0DAH, 0CAH, 0D0H, 0B0H, 0B2H
        DB 0C1H, 0AAH, 0B5H, 0C2H, 0BFH, 0C6H, 0BCH, 0BCH
        DB 0D3H, 0C3H, 0BBH, 0A7H, 0B5H, 0C7H, 0C2H, 0BCH
        DB 0D5H, 0CAH, 0BAH, 0C5H, 0C3H, 0DCH, 0C2H, 0EBH
        DB 0C8H, 0B7H, 0B6H, 0A8H, 0C8H, 0A1H, 0CFH, 0FBH
        DB 0D7H, 0A8H, 0D2H, 0B5H, 0D7H, 0A8H, 0D7H, 0A2H
        DB 0CEH, 0DEH, 0CFH, 0DFH, 0CDH, 0A8H, 0D1H, 0B6H
        DB 0B3H, 0CFH, 0D0H, 0C5H, 0C1H, 0A2H, 0D7H, 0E3H
        DB 0B4H, 0B4H, 0D0H, 0C2H, 0D6H, 0C2H, 0D4H, 0B6H
        DB 0C7H, 0BFH, 0B4H, 0F3H, 0D4H, 0ADH, 0A3H, 0BAH
        DB 0
//  121 {
//  122   "深圳市安联德科技用户登录帐号密码确定取消专业专注无线通讯诚信立足创新致远强大原："
//  123 };
//  124 
//  125 //中文14x14点阵字符 ald

        RSEG XDATA_ROM_C:CONST:REORDER:NOROOT(0)
        DATA8
//  126  const unsigned char CN14x14[][28] =
CN14x14:
        DB 0
        DB 0
        DB 79
        DB 248
        DB 40
        DB 8
        DB 2
        DB 32
        DB 132
        DB 16
        DB 72
        DB 136
        DB 0
        DB 128
        DB 47
        DB 248
        DB 33
        DB 192
        DB 66
        DB 160
        DB 66
        DB 160
        DB 132
        DB 144
        DB 136
        DB 136
        DB 0
        DB 128
        DB 34
        DB 8
        DB 34
        DB 72
        DB 34
        DB 72
        DB 34
        DB 72
        DB 250
        DB 72
        DB 34
        DB 72
        DB 34
        DB 72
        DB 34
        DB 72
        DB 34
        DB 72
        DB 58
        DB 72
        DB 226
        DB 72
        DB 2
        DB 72
        DB 2
        DB 8
        DB 4
        DB 8
        DB 4
        DB 0
        DB 2
        DB 0
        DB 255
        DB 248
        DB 2
        DB 0
        DB 2
        DB 0
        DB 127
        DB 240
        DB 66
        DB 16
        DB 66
        DB 16
        DB 66
        DB 16
        DB 66
        DB 16
        DB 66
        DB 16
        DB 66
        DB 112
        DB 2
        DB 0
        DB 2
        DB 0
        DB 4
        DB 0
        DB 2
        DB 0
        DB 255
        DB 248
        DB 128
        DB 8
        DB 132
        DB 8
        DB 4
        DB 0
        DB 255
        DB 248
        DB 8
        DB 64
        DB 16
        DB 64
        DB 60
        DB 128
        DB 3
        DB 0
        DB 4
        DB 192
        DB 24
        DB 32
        DB 224
        DB 16
        DB 1
        DB 16
        DB 252
        DB 160
        DB 72
        DB 0
        DB 73
        DB 240
        DB 120
        DB 64
        DB 72
        DB 64
        DB 72
        DB 64
        DB 123
        DB 248
        DB 72
        DB 64
        DB 72
        DB 64
        DB 92
        DB 160
        DB 232
        DB 160
        DB 9
        DB 16
        DB 10
        DB 8
        DB 16
        DB 128
        DB 39
        DB 248
        DB 64
        DB 128
        DB 151
        DB 240
        DB 21
        DB 80
        DB 37
        DB 80
        DB 103
        DB 240
        DB 160
        DB 0
        DB 39
        DB 240
        DB 33
        DB 0
        DB 32
        DB 144
        DB 42
        DB 136
        DB 42
        DB 40
        DB 49
        DB 224
        DB 0
        DB 32
        DB 13
        DB 32
        DB 112
        DB 160
        DB 16
        DB 160
        DB 18
        DB 32
        DB 253
        DB 32
        DB 17
        DB 32
        DB 48
        DB 56
        DB 59
        DB 224
        DB 84
        DB 32
        DB 144
        DB 32
        DB 16
        DB 32
        DB 16
        DB 32
        DB 16
        DB 32
        DB 32
        DB 128
        DB 32
        DB 128
        DB 32
        DB 128
        DB 247
        DB 240
        DB 32
        DB 128
        DB 32
        DB 128
        DB 39
        DB 224
        DB 50
        DB 32
        DB 226
        DB 32
        DB 33
        DB 64
        DB 32
        DB 128
        DB 33
        DB 64
        DB 34
        DB 32
        DB 236
        DB 24
        DB 0
        DB 0
        DB 63
        DB 248
        DB 33
        DB 8
        DB 33
        DB 8
        DB 33
        DB 8
        DB 63
        DB 248
        DB 33
        DB 8
        DB 33
        DB 8
        DB 63
        DB 248
        DB 33
        DB 8
        DB 33
        DB 8
        DB 65
        DB 8
        DB 65
        DB 8
        DB 128
        DB 56
        DB 2
        DB 0
        DB 1
        DB 0
        DB 63
        DB 248
        DB 32
        DB 8
        DB 32
        DB 8
        DB 32
        DB 8
        DB 63
        DB 248
        DB 32
        DB 8
        DB 32
        DB 0
        DB 32
        DB 0
        DB 32
        DB 0
        DB 64
        DB 0
        DB 64
        DB 0
        DB 128
        DB 0
        DB 1
        DB 32
        DB 125
        DB 64
        DB 4
        DB 144
        DB 40
        DB 160
        DB 16
        DB 64
        DB 47
        DB 160
        DB 64
        DB 24
        DB 159
        DB 192
        DB 16
        DB 64
        DB 16
        DB 64
        DB 31
        DB 192
        DB 16
        DB 64
        DB 8
        DB 128
        DB 255
        DB 248
        DB 0
        DB 0
        DB 127
        DB 224
        DB 0
        DB 32
        DB 63
        DB 224
        DB 0
        DB 32
        DB 255
        DB 248
        DB 2
        DB 0
        DB 34
        DB 32
        DB 19
        DB 64
        DB 10
        DB 128
        DB 18
        DB 64
        DB 34
        DB 32
        DB 194
        DB 24
        DB 14
        DB 0
        DB 33
        DB 0
        DB 33
        DB 16
        DB 33
        DB 16
        DB 249
        DB 32
        DB 169
        DB 64
        DB 169
        DB 0
        DB 171
        DB 248
        DB 169
        DB 64
        DB 169
        DB 64
        DB 169
        DB 32
        DB 185
        DB 32
        DB 33
        DB 80
        DB 33
        DB 136
        DB 33
        DB 0
        DB 63
        DB 224
        DB 32
        DB 32
        DB 32
        DB 32
        DB 63
        DB 224
        DB 0
        DB 0
        DB 0
        DB 0
        DB 255
        DB 248
        DB 8
        DB 0
        DB 16
        DB 0
        DB 63
        DB 224
        DB 0
        DB 32
        DB 0
        DB 32
        DB 0
        DB 32
        DB 0
        DB 192
        DB 2
        DB 0
        DB 255
        DB 248
        DB 128
        DB 8
        DB 4
        DB 64
        DB 82
        DB 144
        DB 81
        DB 8
        DB 146
        DB 40
        DB 15
        DB 224
        DB 48
        DB 0
        DB 194
        DB 0
        DB 34
        DB 32
        DB 34
        DB 32
        DB 63
        DB 224
        DB 0
        DB 32
        DB 0
        DB 0
        DB 7
        DB 224
        DB 248
        DB 32
        DB 34
        DB 32
        DB 34
        DB 32
        DB 66
        DB 32
        DB 123
        DB 248
        DB 200
        DB 8
        DB 72
        DB 8
        DB 79
        DB 232
        DB 72
        DB 8
        DB 120
        DB 8
        DB 72
        DB 8
        DB 0
        DB 48
        DB 1
        DB 0
        DB 1
        DB 240
        DB 250
        DB 16
        DB 36
        DB 32
        DB 35
        DB 248
        DB 66
        DB 72
        DB 122
        DB 72
        DB 203
        DB 248
        DB 74
        DB 72
        DB 74
        DB 72
        DB 75
        DB 248
        DB 122
        DB 72
        DB 66
        DB 72
        DB 4
        DB 24
        DB 4
        DB 0
        DB 2
        DB 0
        DB 255
        DB 248
        DB 128
        DB 8
        DB 0
        DB 0
        DB 63
        DB 224
        DB 2
        DB 0
        DB 2
        DB 0
        DB 34
        DB 0
        DB 35
        DB 224
        DB 34
        DB 0
        DB 34
        DB 0
        DB 82
        DB 0
        DB 143
        DB 248
        DB 0
        DB 0
        DB 252
        DB 0
        DB 75
        DB 240
        DB 73
        DB 16
        DB 121
        DB 16
        DB 73
        DB 16
        DB 73
        DB 16
        DB 120
        DB 160
        DB 72
        DB 160
        DB 78
        DB 64
        DB 248
        DB 64
        DB 8
        DB 160
        DB 9
        DB 16
        DB 10
        DB 8
        DB 0
        DB 128
        DB 68
        DB 144
        DB 34
        DB 160
        DB 16
        DB 128
        DB 7
        DB 240
        DB 132
        DB 16
        DB 68
        DB 16
        DB 23
        DB 240
        DB 20
        DB 16
        DB 36
        DB 16
        DB 39
        DB 240
        DB 68
        DB 16
        DB 68
        DB 16
        DB 4
        DB 112
        DB 2
        DB 0
        DB 2
        DB 0
        DB 127
        DB 240
        DB 4
        DB 0
        DB 4
        DB 0
        DB 255
        DB 248
        DB 8
        DB 0
        DB 16
        DB 0
        DB 63
        DB 224
        DB 0
        DB 32
        DB 0
        DB 64
        DB 28
        DB 128
        DB 3
        DB 0
        DB 0
        DB 128
        DB 8
        DB 128
        DB 8
        DB 128
        DB 8
        DB 128
        DB 136
        DB 144
        DB 72
        DB 144
        DB 72
        DB 144
        DB 40
        DB 160
        DB 40
        DB 160
        DB 40
        DB 192
        DB 8
        DB 128
        DB 8
        DB 128
        DB 8
        DB 128
        DB 8
        DB 128
        DB 255
        DB 248
        DB 2
        DB 0
        DB 2
        DB 0
        DB 127
        DB 240
        DB 4
        DB 0
        DB 4
        DB 0
        DB 255
        DB 248
        DB 8
        DB 0
        DB 16
        DB 0
        DB 63
        DB 224
        DB 0
        DB 32
        DB 0
        DB 64
        DB 28
        DB 128
        DB 3
        DB 0
        DB 0
        DB 128
        DB 1
        DB 0
        DB 64
        DB 128
        DB 32
        DB 0
        DB 23
        DB 240
        DB 0
        DB 128
        DB 128
        DB 128
        DB 64
        DB 128
        DB 0
        DB 128
        DB 23
        DB 240
        DB 16
        DB 128
        DB 32
        DB 128
        DB 32
        DB 128
        DB 64
        DB 128
        DB 79
        DB 248
        DB 0
        DB 0
        DB 127
        DB 240
        DB 2
        DB 0
        DB 2
        DB 0
        DB 2
        DB 0
        DB 2
        DB 0
        DB 255
        DB 248
        DB 5
        DB 0
        DB 5
        DB 0
        DB 9
        DB 0
        DB 17
        DB 0
        DB 33
        DB 8
        DB 65
        DB 8
        DB 128
        DB 248
        DB 32
        DB 160
        DB 32
        DB 144
        DB 72
        DB 128
        DB 72
        DB 240
        DB 243
        DB 128
        DB 16
        DB 128
        DB 32
        DB 184
        DB 67
        DB 192
        DB 248
        DB 144
        DB 0
        DB 160
        DB 0
        DB 72
        DB 24
        DB 168
        DB 227
        DB 24
        DB 0
        DB 8
        DB 71
        DB 240
        DB 33
        DB 32
        DB 32
        DB 192
        DB 7
        DB 240
        DB 4
        DB 144
        DB 228
        DB 144
        DB 39
        DB 240
        DB 36
        DB 144
        DB 36
        DB 144
        DB 39
        DB 240
        DB 36
        DB 144
        DB 36
        DB 176
        DB 80
        DB 0
        DB 143
        DB 248
        DB 64
        DB 0
        DB 47
        DB 224
        DB 34
        DB 32
        DB 2
        DB 32
        DB 2
        DB 32
        DB 226
        DB 32
        DB 47
        DB 224
        DB 34
        DB 32
        DB 34
        DB 32
        DB 34
        DB 40
        DB 42
        DB 40
        DB 50
        DB 40
        DB 34
        DB 24
        DB 2
        DB 8
        DB 64
        DB 80
        DB 32
        DB 72
        DB 32
        DB 64
        DB 7
        DB 248
        DB 228
        DB 64
        DB 36
        DB 72
        DB 39
        DB 72
        DB 37
        DB 80
        DB 37
        DB 80
        DB 45
        DB 32
        DB 53
        DB 40
        DB 43
        DB 104
        DB 8
        DB 152
        DB 17
        DB 8
        DB 17
        DB 0
        DB 16
        DB 128
        DB 47
        DB 248
        DB 32
        DB 0
        DB 103
        DB 240
        DB 160
        DB 0
        DB 39
        DB 240
        DB 32
        DB 0
        DB 39
        DB 240
        DB 36
        DB 16
        DB 36
        DB 16
        DB 36
        DB 16
        DB 39
        DB 240
        DB 36
        DB 16
        DB 4
        DB 0
        DB 2
        DB 0
        DB 0
        DB 0
        DB 127
        DB 240
        DB 0
        DB 0
        DB 0
        DB 0
        DB 0
        DB 32
        DB 32
        DB 32
        DB 16
        DB 64
        DB 16
        DB 64
        DB 8
        DB 128
        DB 8
        DB 128
        DB 1
        DB 0
        DB 255
        DB 248
        DB 0
        DB 0
        DB 63
        DB 224
        DB 32
        DB 32
        DB 32
        DB 32
        DB 32
        DB 32
        DB 63
        DB 224
        DB 2
        DB 0
        DB 2
        DB 0
        DB 34
        DB 0
        DB 35
        DB 240
        DB 34
        DB 0
        DB 34
        DB 0
        DB 82
        DB 0
        DB 143
        DB 248
        DB 16
        DB 16
        DB 16
        DB 16
        DB 40
        DB 16
        DB 36
        DB 144
        DB 66
        DB 144
        DB 128
        DB 144
        DB 124
        DB 144
        DB 68
        DB 144
        DB 68
        DB 144
        DB 68
        DB 144
        DB 88
        DB 16
        DB 66
        DB 16
        DB 66
        DB 16
        DB 62
        DB 112
        DB 32
        DB 24
        DB 16
        DB 224
        DB 254
        DB 128
        DB 68
        DB 128
        DB 40
        DB 128
        DB 254
        DB 248
        DB 0
        DB 144
        DB 16
        DB 144
        DB 254
        DB 144
        DB 16
        DB 144
        DB 84
        DB 144
        DB 146
        DB 144
        DB 17
        DB 16
        DB 114
        DB 16
        DB 0
        DB 128
        DB 254
        DB 128
        DB 16
        DB 128
        DB 36
        DB 248
        DB 67
        DB 16
        DB 254
        DB 144
        DB 18
        DB 144
        DB 16
        DB 144
        DB 254
        DB 160
        DB 16
        DB 160
        DB 16
        DB 64
        DB 30
        DB 160
        DB 241
        DB 16
        DB 2
        DB 8
        DB 0
        DB 0
        DB 71
        DB 224
        DB 32
        DB 0
        DB 32
        DB 0
        DB 0
        DB 0
        DB 15
        DB 240
        DB 226
        DB 64
        DB 34
        DB 64
        DB 34
        DB 64
        DB 34
        DB 72
        DB 36
        DB 72
        DB 40
        DB 56
        DB 80
        DB 0
        DB 143
        DB 248
        DB 0
        DB 0
        DB 243
        DB 224
        DB 18
        DB 32
        DB 18
        DB 32
        DB 243
        DB 224
        DB 128
        DB 128
        DB 135
        DB 240
        DB 132
        DB 144
        DB 244
        DB 144
        DB 23
        DB 240
        DB 16
        DB 128
        DB 16
        DB 144
        DB 31
        DB 248
        DB 96
        DB 8
        DB 2
        DB 0
        DB 2
        DB 0
        DB 2
        DB 0
        DB 2
        DB 0
        DB 255
        DB 248
        DB 2
        DB 0
        DB 5
        DB 0
        DB 5
        DB 0
        DB 5
        DB 0
        DB 8
        DB 128
        DB 8
        DB 128
        DB 16
        DB 64
        DB 32
        DB 32
        DB 192
        DB 24
        DB 63
        DB 248
        DB 32
        DB 128
        DB 33
        DB 0
        DB 39
        DB 240
        DB 36
        DB 16
        DB 39
        DB 240
        DB 36
        DB 16
        DB 39
        DB 240
        DB 32
        DB 128
        DB 36
        DB 144
        DB 36
        DB 136
        DB 72
        DB 136
        DB 64
        DB 128
        DB 131
        DB 128
        DB 0
        DB 0
        DB 0
        DB 0
        DB 0
        DB 0
        DB 0
        DB 0
        DB 0
        DB 0
        DB 0
        DB 0
        DB 24
        DB 0
        DB 24
        DB 0
        DB 0
        DB 0
        DB 0
        DB 0
        DB 24
        DB 0
        DB 24
        DB 0
        DB 0
        DB 0
        DB 0
        DB 0
//  127 {
//  128 0x00,0x00,0x4F,0xF8,0x28,0x08,0x02,0x20,0x84,0x10,0x48,0x88,0x00,0x80,0x2F,0xF8,
//  129 0x21,0xC0,0x42,0xA0,0x42,0xA0,0x84,0x90,0x88,0x88,0x00,0x80,/*"深",0*/
//  130 
//  131 0x22,0x08,0x22,0x48,0x22,0x48,0x22,0x48,0xFA,0x48,0x22,0x48,0x22,0x48,0x22,0x48,
//  132 0x22,0x48,0x3A,0x48,0xE2,0x48,0x02,0x48,0x02,0x08,0x04,0x08,/*"圳",1*/
//  133 
//  134 0x04,0x00,0x02,0x00,0xFF,0xF8,0x02,0x00,0x02,0x00,0x7F,0xF0,0x42,0x10,0x42,0x10,
//  135 0x42,0x10,0x42,0x10,0x42,0x10,0x42,0x70,0x02,0x00,0x02,0x00,/*"市",2*/
//  136 
//  137 0x04,0x00,0x02,0x00,0xFF,0xF8,0x80,0x08,0x84,0x08,0x04,0x00,0xFF,0xF8,0x08,0x40,
//  138 0x10,0x40,0x3C,0x80,0x03,0x00,0x04,0xC0,0x18,0x20,0xE0,0x10,/*"安",3*/
//  139 
//  140 0x01,0x10,0xFC,0xA0,0x48,0x00,0x49,0xF0,0x78,0x40,0x48,0x40,0x48,0x40,0x7B,0xF8,
//  141 0x48,0x40,0x48,0x40,0x5C,0xA0,0xE8,0xA0,0x09,0x10,0x0A,0x08,/*"联",4*/
//  142 
//  143 0x10,0x80,0x27,0xF8,0x40,0x80,0x97,0xF0,0x15,0x50,0x25,0x50,0x67,0xF0,0xA0,0x00,
//  144 0x27,0xF0,0x21,0x00,0x20,0x90,0x2A,0x88,0x2A,0x28,0x31,0xE0,/*"德",5*/
//  145 
//  146 0x00,0x20,0x0D,0x20,0x70,0xA0,0x10,0xA0,0x12,0x20,0xFD,0x20,0x11,0x20,0x30,0x38,
//  147 0x3B,0xE0,0x54,0x20,0x90,0x20,0x10,0x20,0x10,0x20,0x10,0x20,/*"科",6*/
//  148 
//  149 0x20,0x80,0x20,0x80,0x20,0x80,0xF7,0xF0,0x20,0x80,0x20,0x80,0x27,0xE0,0x32,0x20,
//  150 0xE2,0x20,0x21,0x40,0x20,0x80,0x21,0x40,0x22,0x20,0xEC,0x18,/*"技",7*/
//  151 
//  152 0x00,0x00,0x3F,0xF8,0x21,0x08,0x21,0x08,0x21,0x08,0x3F,0xF8,0x21,0x08,0x21,0x08,
//  153 0x3F,0xF8,0x21,0x08,0x21,0x08,0x41,0x08,0x41,0x08,0x80,0x38,/*"用",8*/
//  154 
//  155 0x02,0x00,0x01,0x00,0x3F,0xF8,0x20,0x08,0x20,0x08,0x20,0x08,0x3F,0xF8,0x20,0x08,
//  156 0x20,0x00,0x20,0x00,0x20,0x00,0x40,0x00,0x40,0x00,0x80,0x00,/*"户",9*/
//  157 
//  158 0x01,0x20,0x7D,0x40,0x04,0x90,0x28,0xA0,0x10,0x40,0x2F,0xA0,0x40,0x18,0x9F,0xC0,
//  159 0x10,0x40,0x10,0x40,0x1F,0xC0,0x10,0x40,0x08,0x80,0xFF,0xF8,/*"登",10*/
//  160 
//  161 0x00,0x00,0x7F,0xE0,0x00,0x20,0x3F,0xE0,0x00,0x20,0xFF,0xF8,0x02,0x00,0x22,0x20,
//  162 0x13,0x40,0x0A,0x80,0x12,0x40,0x22,0x20,0xC2,0x18,0x0E,0x00,/*"录",11*/
//  163 
//  164 0x21,0x00,0x21,0x10,0x21,0x10,0xF9,0x20,0xA9,0x40,0xA9,0x00,0xAB,0xF8,0xA9,0x40,
//  165 0xA9,0x40,0xA9,0x20,0xB9,0x20,0x21,0x50,0x21,0x88,0x21,0x00,/*"帐",12*/
//  166 
//  167 0x3F,0xE0,0x20,0x20,0x20,0x20,0x3F,0xE0,0x00,0x00,0x00,0x00,0xFF,0xF8,0x08,0x00,
//  168 0x10,0x00,0x3F,0xE0,0x00,0x20,0x00,0x20,0x00,0x20,0x00,0xC0,/*"号",13*/
//  169 
//  170 0x02,0x00,0xFF,0xF8,0x80,0x08,0x04,0x40,0x52,0x90,0x51,0x08,0x92,0x28,0x0F,0xE0,
//  171 0x30,0x00,0xC2,0x00,0x22,0x20,0x22,0x20,0x3F,0xE0,0x00,0x20,/*"密",14*/
//  172 
//  173 0x00,0x00,0x07,0xE0,0xF8,0x20,0x22,0x20,0x22,0x20,0x42,0x20,0x7B,0xF8,0xC8,0x08,
//  174 0x48,0x08,0x4F,0xE8,0x48,0x08,0x78,0x08,0x48,0x08,0x00,0x30,/*"码",15*/
//  175 
//  176 0x01,0x00,0x01,0xF0,0xFA,0x10,0x24,0x20,0x23,0xF8,0x42,0x48,0x7A,0x48,0xCB,0xF8,
//  177 0x4A,0x48,0x4A,0x48,0x4B,0xF8,0x7A,0x48,0x42,0x48,0x04,0x18,/*"确",16*/
//  178 
//  179 0x04,0x00,0x02,0x00,0xFF,0xF8,0x80,0x08,0x00,0x00,0x3F,0xE0,0x02,0x00,0x02,0x00,
//  180 0x22,0x00,0x23,0xE0,0x22,0x00,0x22,0x00,0x52,0x00,0x8F,0xF8,/*"定",17*/
//  181 
//  182 0x00,0x00,0xFC,0x00,0x4B,0xF0,0x49,0x10,0x79,0x10,0x49,0x10,0x49,0x10,0x78,0xA0,
//  183 0x48,0xA0,0x4E,0x40,0xF8,0x40,0x08,0xA0,0x09,0x10,0x0A,0x08,/*"取",18*/
//  184 
//  185 0x00,0x80,0x44,0x90,0x22,0xA0,0x10,0x80,0x07,0xF0,0x84,0x10,0x44,0x10,0x17,0xF0,
//  186 0x14,0x10,0x24,0x10,0x27,0xF0,0x44,0x10,0x44,0x10,0x04,0x70,/*"消",19*/
//  187 
//  188 0x02,0x00,0x02,0x00,0x7F,0xF0,0x04,0x00,0x04,0x00,0xFF,0xF8,0x08,0x00,0x10,0x00,
//  189 0x3F,0xE0,0x00,0x20,0x00,0x40,0x1C,0x80,0x03,0x00,0x00,0x80,/*"专",20*/
//  190 
//  191 0x08,0x80,0x08,0x80,0x08,0x80,0x88,0x90,0x48,0x90,0x48,0x90,0x28,0xA0,0x28,0xA0,
//  192 0x28,0xC0,0x08,0x80,0x08,0x80,0x08,0x80,0x08,0x80,0xFF,0xF8,/*"业",21*/
//  193 
//  194 0x02,0x00,0x02,0x00,0x7F,0xF0,0x04,0x00,0x04,0x00,0xFF,0xF8,0x08,0x00,0x10,0x00,
//  195 0x3F,0xE0,0x00,0x20,0x00,0x40,0x1C,0x80,0x03,0x00,0x00,0x80,/*"专",22*/
//  196 
//  197 0x01,0x00,0x40,0x80,0x20,0x00,0x17,0xF0,0x00,0x80,0x80,0x80,0x40,0x80,0x00,0x80,
//  198 0x17,0xF0,0x10,0x80,0x20,0x80,0x20,0x80,0x40,0x80,0x4F,0xF8,/*"注",23*/
//  199 
//  200 0x00,0x00,0x7F,0xF0,0x02,0x00,0x02,0x00,0x02,0x00,0x02,0x00,0xFF,0xF8,0x05,0x00,
//  201 0x05,0x00,0x09,0x00,0x11,0x00,0x21,0x08,0x41,0x08,0x80,0xF8,/*"无",24*/
//  202 
//  203 0x20,0xA0,0x20,0x90,0x48,0x80,0x48,0xF0,0xF3,0x80,0x10,0x80,0x20,0xB8,0x43,0xC0,
//  204 0xF8,0x90,0x00,0xA0,0x00,0x48,0x18,0xA8,0xE3,0x18,0x00,0x08,/*"线",25*/
//  205 
//  206 0x47,0xF0,0x21,0x20,0x20,0xC0,0x07,0xF0,0x04,0x90,0xE4,0x90,0x27,0xF0,0x24,0x90,
//  207 0x24,0x90,0x27,0xF0,0x24,0x90,0x24,0xB0,0x50,0x00,0x8F,0xF8,/*"通",26*/
//  208 
//  209 0x40,0x00,0x2F,0xE0,0x22,0x20,0x02,0x20,0x02,0x20,0xE2,0x20,0x2F,0xE0,0x22,0x20,
//  210 0x22,0x20,0x22,0x28,0x2A,0x28,0x32,0x28,0x22,0x18,0x02,0x08,/*"讯",27*/
//  211 
//  212 0x40,0x50,0x20,0x48,0x20,0x40,0x07,0xF8,0xE4,0x40,0x24,0x48,0x27,0x48,0x25,0x50,
//  213 0x25,0x50,0x2D,0x20,0x35,0x28,0x2B,0x68,0x08,0x98,0x11,0x08,/*"诚",28*/
//  214 
//  215 0x11,0x00,0x10,0x80,0x2F,0xF8,0x20,0x00,0x67,0xF0,0xA0,0x00,0x27,0xF0,0x20,0x00,
//  216 0x27,0xF0,0x24,0x10,0x24,0x10,0x24,0x10,0x27,0xF0,0x24,0x10,/*"信",29*/
//  217 
//  218 0x04,0x00,0x02,0x00,0x00,0x00,0x7F,0xF0,0x00,0x00,0x00,0x00,0x00,0x20,0x20,0x20,
//  219 0x10,0x40,0x10,0x40,0x08,0x80,0x08,0x80,0x01,0x00,0xFF,0xF8,/*"立",30*/
//  220 
//  221 0x00,0x00,0x3F,0xE0,0x20,0x20,0x20,0x20,0x20,0x20,0x3F,0xE0,0x02,0x00,0x02,0x00,
//  222 0x22,0x00,0x23,0xF0,0x22,0x00,0x22,0x00,0x52,0x00,0x8F,0xF8,/*"足",31*/
//  223 
//  224 0x10,0x10,0x10,0x10,0x28,0x10,0x24,0x90,0x42,0x90,0x80,0x90,0x7C,0x90,0x44,0x90,
//  225 0x44,0x90,0x44,0x90,0x58,0x10,0x42,0x10,0x42,0x10,0x3E,0x70,/*"创",32*/
//  226 
//  227 0x20,0x18,0x10,0xE0,0xFE,0x80,0x44,0x80,0x28,0x80,0xFE,0xF8,0x00,0x90,0x10,0x90,
//  228 0xFE,0x90,0x10,0x90,0x54,0x90,0x92,0x90,0x11,0x10,0x72,0x10,/*"新",33*/
//  229 
//  230 0x00,0x80,0xFE,0x80,0x10,0x80,0x24,0xF8,0x43,0x10,0xFE,0x90,0x12,0x90,0x10,0x90,
//  231 0xFE,0xA0,0x10,0xA0,0x10,0x40,0x1E,0xA0,0xF1,0x10,0x02,0x08,/*"致",34*/
//  232 
//  233 0x00,0x00,0x47,0xE0,0x20,0x00,0x20,0x00,0x00,0x00,0x0F,0xF0,0xE2,0x40,0x22,0x40,
//  234 0x22,0x40,0x22,0x48,0x24,0x48,0x28,0x38,0x50,0x00,0x8F,0xF8,/*"远",35*/
//  235 
//  236 0x00,0x00,0xF3,0xE0,0x12,0x20,0x12,0x20,0xF3,0xE0,0x80,0x80,0x87,0xF0,0x84,0x90,
//  237 0xF4,0x90,0x17,0xF0,0x10,0x80,0x10,0x90,0x1F,0xF8,0x60,0x08,/*"强",36*/
//  238 
//  239 0x02,0x00,0x02,0x00,0x02,0x00,0x02,0x00,0xFF,0xF8,0x02,0x00,0x05,0x00,0x05,0x00,
//  240 0x05,0x00,0x08,0x80,0x08,0x80,0x10,0x40,0x20,0x20,0xC0,0x18,/*"大",37*/
//  241 
//  242 0x3F,0xF8,0x20,0x80,0x21,0x00,0x27,0xF0,0x24,0x10,0x27,0xF0,0x24,0x10,0x27,0xF0,
//  243 0x20,0x80,0x24,0x90,0x24,0x88,0x48,0x88,0x40,0x80,0x83,0x80,/*"原",38*/
//  244 
//  245 0x00,0x00,0x00,0x00,0x00,0x00,0x00,0x00,0x00,0x00,0x00,0x00,0x18,0x00,0x18,0x00,
//  246 0x00,0x00,0x00,0x00,0x18,0x00,0x18,0x00,0x00,0x00,0x00,0x00,/*"：",41*/
//  247 
//  248 };
//  249 
//  250 //英文7x14点阵字符 andy

        RSEG CODE_C:CODE:REORDER:NOROOT(0)
        DATA8
//  251 __code const unsigned char ASCII7x14[][14] =
ASCII7x14:
        DB 0
        DB 0
        DB 0
        DB 0
        DB 0
        DB 0
        DB 0
        DB 0
        DB 0
        DB 0
        DB 0
        DB 0
        DB 0
        DB 0
        DB 0
        DB 0
        DB 16
        DB 16
        DB 16
        DB 16
        DB 16
        DB 16
        DB 0
        DB 0
        DB 48
        DB 48
        DB 0
        DB 0
        DB 0
        DB 20
        DB 40
        DB 80
        DB 0
        DB 0
        DB 0
        DB 0
        DB 0
        DB 0
        DB 0
        DB 0
        DB 0
        DB 0
        DB 0
        DB 0
        DB 0
        DB 40
        DB 40
        DB 252
        DB 40
        DB 72
        DB 80
        DB 252
        DB 80
        DB 80
        DB 0
        DB 0
        DB 0
        DB 0
        DB 16
        DB 56
        DB 84
        DB 84
        DB 48
        DB 24
        DB 20
        DB 84
        DB 84
        DB 56
        DB 16
        DB 0
        DB 0
        DB 0
        DB 0
        DB 68
        DB 168
        DB 168
        DB 176
        DB 84
        DB 26
        DB 42
        DB 42
        DB 68
        DB 0
        DB 0
        DB 0
        DB 0
        DB 0
        DB 32
        DB 80
        DB 80
        DB 96
        DB 172
        DB 168
        DB 152
        DB 146
        DB 124
        DB 0
        DB 0
        DB 0
        DB 96
        DB 96
        DB 32
        DB 192
        DB 0
        DB 0
        DB 0
        DB 0
        DB 0
        DB 0
        DB 0
        DB 0
        DB 0
        DB 0
        DB 4
        DB 8
        DB 8
        DB 16
        DB 16
        DB 16
        DB 16
        DB 16
        DB 16
        DB 8
        DB 8
        DB 4
        DB 0
        DB 0
        DB 0
        DB 64
        DB 32
        DB 16
        DB 8
        DB 4
        DB 8
        DB 16
        DB 32
        DB 64
        DB 0
        DB 0
        DB 0
        DB 0
        DB 0
        DB 0
        DB 16
        DB 16
        DB 214
        DB 56
        DB 56
        DB 214
        DB 16
        DB 16
        DB 0
        DB 0
        DB 0
        DB 0
        DB 0
        DB 0
        DB 16
        DB 16
        DB 16
        DB 254
        DB 16
        DB 16
        DB 16
        DB 0
        DB 0
        DB 0
        DB 0
        DB 0
        DB 0
        DB 0
        DB 0
        DB 0
        DB 0
        DB 0
        DB 0
        DB 0
        DB 0
        DB 96
        DB 96
        DB 32
        DB 192
        DB 0
        DB 0
        DB 0
        DB 0
        DB 0
        DB 0
        DB 252
        DB 0
        DB 0
        DB 0
        DB 0
        DB 0
        DB 0
        DB 0
        DB 0
        DB 0
        DB 0
        DB 0
        DB 0
        DB 0
        DB 0
        DB 0
        DB 0
        DB 0
        DB 96
        DB 96
        DB 0
        DB 0
        DB 0
        DB 2
        DB 4
        DB 4
        DB 4
        DB 8
        DB 8
        DB 16
        DB 16
        DB 32
        DB 32
        DB 32
        DB 64
        DB 0
        DB 0
        DB 0
        DB 0
        DB 48
        DB 72
        DB 132
        DB 132
        DB 132
        DB 132
        DB 132
        DB 72
        DB 48
        DB 0
        DB 0
        DB 0
        DB 0
        DB 0
        DB 16
        DB 112
        DB 16
        DB 16
        DB 16
        DB 16
        DB 16
        DB 16
        DB 124
        DB 0
        DB 0
        DB 0
        DB 0
        DB 0
        DB 56
        DB 68
        DB 68
        DB 4
        DB 8
        DB 16
        DB 32
        DB 68
        DB 124
        DB 0
        DB 0
        DB 0
        DB 0
        DB 0
        DB 56
        DB 68
        DB 68
        DB 24
        DB 4
        DB 4
        DB 68
        DB 68
        DB 56
        DB 0
        DB 0
        DB 0
        DB 0
        DB 8
        DB 8
        DB 24
        DB 40
        DB 72
        DB 72
        DB 136
        DB 124
        DB 8
        DB 28
        DB 0
        DB 0
        DB 0
        DB 0
        DB 0
        DB 124
        DB 64
        DB 64
        DB 120
        DB 68
        DB 4
        DB 68
        DB 68
        DB 56
        DB 0
        DB 0
        DB 0
        DB 0
        DB 0
        DB 60
        DB 68
        DB 128
        DB 184
        DB 196
        DB 132
        DB 132
        DB 132
        DB 120
        DB 0
        DB 0
        DB 0
        DB 0
        DB 0
        DB 124
        DB 68
        DB 72
        DB 8
        DB 16
        DB 16
        DB 16
        DB 16
        DB 16
        DB 0
        DB 0
        DB 0
        DB 0
        DB 0
        DB 120
        DB 132
        DB 132
        DB 72
        DB 120
        DB 132
        DB 132
        DB 132
        DB 120
        DB 0
        DB 0
        DB 0
        DB 0
        DB 0
        DB 120
        DB 132
        DB 132
        DB 132
        DB 140
        DB 116
        DB 4
        DB 136
        DB 240
        DB 0
        DB 0
        DB 0
        DB 0
        DB 0
        DB 0
        DB 0
        DB 48
        DB 48
        DB 0
        DB 0
        DB 0
        DB 48
        DB 48
        DB 0
        DB 0
        DB 0
        DB 0
        DB 0
        DB 0
        DB 0
        DB 0
        DB 16
        DB 0
        DB 0
        DB 0
        DB 0
        DB 16
        DB 16
        DB 32
        DB 0
        DB 0
        DB 4
        DB 8
        DB 16
        DB 32
        DB 64
        DB 32
        DB 16
        DB 8
        DB 4
        DB 0
        DB 0
        DB 0
        DB 0
        DB 0
        DB 0
        DB 0
        DB 0
        DB 252
        DB 0
        DB 0
        DB 252
        DB 0
        DB 0
        DB 0
        DB 0
        DB 0
        DB 0
        DB 0
        DB 64
        DB 32
        DB 16
        DB 8
        DB 4
        DB 8
        DB 16
        DB 32
        DB 64
        DB 0
        DB 0
        DB 0
        DB 0
        DB 0
        DB 120
        DB 132
        DB 132
        DB 132
        DB 8
        DB 16
        DB 16
        DB 0
        DB 48
        DB 48
        DB 0
        DB 0
        DB 0
        DB 0
        DB 0
        DB 56
        DB 68
        DB 154
        DB 170
        DB 170
        DB 170
        DB 180
        DB 66
        DB 60
        DB 0
        DB 0
        DB 0
        DB 0
        DB 0
        DB 16
        DB 16
        DB 40
        DB 40
        DB 40
        DB 56
        DB 68
        DB 68
        DB 238
        DB 0
        DB 0
        DB 0
        DB 0
        DB 0
        DB 248
        DB 68
        DB 68
        DB 120
        DB 68
        DB 68
        DB 68
        DB 68
        DB 248
        DB 0
        DB 0
        DB 0
        DB 0
        DB 0
        DB 60
        DB 68
        DB 132
        DB 128
        DB 128
        DB 128
        DB 128
        DB 68
        DB 56
        DB 0
        DB 0
        DB 0
        DB 0
        DB 0
        DB 240
        DB 72
        DB 68
        DB 68
        DB 68
        DB 68
        DB 68
        DB 72
        DB 240
        DB 0
        DB 0
        DB 0
        DB 0
        DB 0
        DB 252
        DB 68
        DB 64
        DB 72
        DB 120
        DB 72
        DB 64
        DB 68
        DB 252
        DB 0
        DB 0
        DB 0
        DB 0
        DB 0
        DB 252
        DB 66
        DB 64
        DB 72
        DB 120
        DB 72
        DB 64
        DB 64
        DB 224
        DB 0
        DB 0
        DB 0
        DB 0
        DB 0
        DB 60
        DB 68
        DB 132
        DB 128
        DB 128
        DB 142
        DB 132
        DB 68
        DB 56
        DB 0
        DB 0
        DB 0
        DB 0
        DB 0
        DB 238
        DB 68
        DB 68
        DB 68
        DB 124
        DB 68
        DB 68
        DB 68
        DB 238
        DB 0
        DB 0
        DB 0
        DB 0
        DB 0
        DB 124
        DB 16
        DB 16
        DB 16
        DB 16
        DB 16
        DB 16
        DB 16
        DB 124
        DB 0
        DB 0
        DB 0
        DB 0
        DB 0
        DB 124
        DB 16
        DB 16
        DB 16
        DB 16
        DB 16
        DB 16
        DB 16
        DB 16
        DB 144
        DB 224
        DB 0
        DB 0
        DB 0
        DB 238
        DB 68
        DB 72
        DB 80
        DB 112
        DB 72
        DB 72
        DB 68
        DB 238
        DB 0
        DB 0
        DB 0
        DB 0
        DB 0
        DB 224
        DB 64
        DB 64
        DB 64
        DB 64
        DB 64
        DB 64
        DB 68
        DB 252
        DB 0
        DB 0
        DB 0
        DB 0
        DB 0
        DB 238
        DB 108
        DB 108
        DB 108
        DB 84
        DB 84
        DB 84
        DB 84
        DB 214
        DB 0
        DB 0
        DB 0
        DB 0
        DB 0
        DB 238
        DB 100
        DB 100
        DB 84
        DB 84
        DB 84
        DB 76
        DB 76
        DB 228
        DB 0
        DB 0
        DB 0
        DB 0
        DB 0
        DB 48
        DB 72
        DB 132
        DB 132
        DB 132
        DB 132
        DB 132
        DB 72
        DB 48
        DB 0
        DB 0
        DB 0
        DB 0
        DB 0
        DB 248
        DB 68
        DB 68
        DB 68
        DB 120
        DB 64
        DB 64
        DB 64
        DB 224
        DB 0
        DB 0
        DB 0
        DB 0
        DB 0
        DB 48
        DB 72
        DB 132
        DB 132
        DB 132
        DB 132
        DB 180
        DB 72
        DB 56
        DB 12
        DB 0
        DB 0
        DB 0
        DB 0
        DB 248
        DB 68
        DB 68
        DB 120
        DB 80
        DB 72
        DB 72
        DB 68
        DB 230
        DB 0
        DB 0
        DB 0
        DB 0
        DB 0
        DB 60
        DB 68
        DB 64
        DB 32
        DB 24
        DB 4
        DB 4
        DB 68
        DB 120
        DB 0
        DB 0
        DB 0
        DB 0
        DB 0
        DB 254
        DB 146
        DB 16
        DB 16
        DB 16
        DB 16
        DB 16
        DB 16
        DB 56
        DB 0
        DB 0
        DB 0
        DB 0
        DB 0
        DB 238
        DB 68
        DB 68
        DB 68
        DB 68
        DB 68
        DB 68
        DB 68
        DB 56
        DB 0
        DB 0
        DB 0
        DB 0
        DB 0
        DB 238
        DB 68
        DB 68
        DB 40
        DB 40
        DB 40
        DB 40
        DB 16
        DB 16
        DB 0
        DB 0
        DB 0
        DB 0
        DB 0
        DB 214
        DB 84
        DB 84
        DB 84
        DB 84
        DB 108
        DB 40
        DB 40
        DB 40
        DB 0
        DB 0
        DB 0
        DB 0
        DB 0
        DB 238
        DB 68
        DB 40
        DB 40
        DB 16
        DB 40
        DB 40
        DB 68
        DB 238
        DB 0
        DB 0
        DB 0
        DB 0
        DB 0
        DB 238
        DB 68
        DB 40
        DB 40
        DB 16
        DB 16
        DB 16
        DB 16
        DB 56
        DB 0
        DB 0
        DB 0
        DB 0
        DB 0
        DB 124
        DB 136
        DB 8
        DB 16
        DB 32
        DB 32
        DB 64
        DB 68
        DB 252
        DB 0
        DB 0
        DB 0
        DB 28
        DB 16
        DB 16
        DB 16
        DB 16
        DB 16
        DB 16
        DB 16
        DB 16
        DB 16
        DB 16
        DB 28
        DB 0
        DB 0
        DB 112
        DB 16
        DB 16
        DB 16
        DB 16
        DB 16
        DB 16
        DB 16
        DB 16
        DB 16
        DB 16
        DB 112
        DB 0
        DB 0
        DB 112
        DB 16
        DB 16
        DB 16
        DB 16
        DB 16
        DB 16
        DB 16
        DB 16
        DB 16
        DB 16
        DB 112
        DB 0
        DB 0
        DB 16
        DB 40
        DB 0
        DB 0
        DB 0
        DB 0
        DB 0
        DB 0
        DB 0
        DB 0
        DB 0
        DB 0
        DB 0
        DB 0
        DB 0
        DB 0
        DB 0
        DB 0
        DB 0
        DB 0
        DB 0
        DB 0
        DB 0
        DB 0
        DB 0
        DB 0
        DB 254
        DB 0
        DB 96
        DB 96
        DB 32
        DB 192
        DB 0
        DB 0
        DB 0
        DB 0
        DB 0
        DB 0
        DB 0
        DB 0
        DB 0
        DB 0
        DB 0
        DB 0
        DB 0
        DB 0
        DB 0
        DB 56
        DB 68
        DB 28
        DB 36
        DB 68
        DB 62
        DB 0
        DB 0
        DB 0
        DB 0
        DB 0
        DB 192
        DB 64
        DB 64
        DB 120
        DB 68
        DB 68
        DB 68
        DB 68
        DB 120
        DB 0
        DB 0
        DB 0
        DB 0
        DB 0
        DB 0
        DB 0
        DB 0
        DB 60
        DB 68
        DB 64
        DB 64
        DB 68
        DB 56
        DB 0
        DB 0
        DB 0
        DB 0
        DB 0
        DB 12
        DB 4
        DB 4
        DB 60
        DB 68
        DB 68
        DB 68
        DB 68
        DB 62
        DB 0
        DB 0
        DB 0
        DB 0
        DB 0
        DB 0
        DB 0
        DB 0
        DB 56
        DB 68
        DB 124
        DB 64
        DB 68
        DB 56
        DB 0
        DB 0
        DB 0
        DB 0
        DB 0
        DB 28
        DB 36
        DB 32
        DB 248
        DB 32
        DB 32
        DB 32
        DB 32
        DB 120
        DB 0
        DB 0
        DB 0
        DB 0
        DB 0
        DB 0
        DB 0
        DB 0
        DB 60
        DB 72
        DB 72
        DB 48
        DB 64
        DB 120
        DB 68
        DB 56
        DB 0
        DB 0
        DB 0
        DB 192
        DB 64
        DB 64
        DB 88
        DB 100
        DB 68
        DB 68
        DB 68
        DB 238
        DB 0
        DB 0
        DB 0
        DB 0
        DB 0
        DB 16
        DB 0
        DB 0
        DB 112
        DB 16
        DB 16
        DB 16
        DB 16
        DB 124
        DB 0
        DB 0
        DB 0
        DB 0
        DB 0
        DB 8
        DB 0
        DB 0
        DB 56
        DB 8
        DB 8
        DB 8
        DB 8
        DB 8
        DB 8
        DB 112
        DB 0
        DB 0
        DB 0
        DB 192
        DB 64
        DB 64
        DB 92
        DB 72
        DB 80
        DB 112
        DB 72
        DB 236
        DB 0
        DB 0
        DB 0
        DB 0
        DB 0
        DB 112
        DB 16
        DB 16
        DB 16
        DB 16
        DB 16
        DB 16
        DB 16
        DB 124
        DB 0
        DB 0
        DB 0
        DB 0
        DB 0
        DB 0
        DB 0
        DB 0
        DB 248
        DB 84
        DB 84
        DB 84
        DB 84
        DB 214
        DB 0
        DB 0
        DB 0
        DB 0
        DB 0
        DB 0
        DB 0
        DB 0
        DB 216
        DB 100
        DB 68
        DB 68
        DB 68
        DB 238
        DB 0
        DB 0
        DB 0
        DB 0
        DB 0
        DB 0
        DB 0
        DB 0
        DB 56
        DB 68
        DB 68
        DB 68
        DB 68
        DB 56
        DB 0
        DB 0
        DB 0
        DB 0
        DB 0
        DB 0
        DB 0
        DB 0
        DB 248
        DB 68
        DB 68
        DB 68
        DB 68
        DB 120
        DB 64
        DB 224
        DB 0
        DB 0
        DB 0
        DB 0
        DB 0
        DB 0
        DB 60
        DB 68
        DB 68
        DB 68
        DB 68
        DB 60
        DB 4
        DB 14
        DB 0
        DB 0
        DB 0
        DB 0
        DB 0
        DB 0
        DB 236
        DB 48
        DB 32
        DB 32
        DB 32
        DB 248
        DB 0
        DB 0
        DB 0
        DB 0
        DB 0
        DB 0
        DB 0
        DB 0
        DB 60
        DB 68
        DB 48
        DB 8
        DB 68
        DB 120
        DB 0
        DB 0
        DB 0
        DB 0
        DB 0
        DB 0
        DB 16
        DB 16
        DB 124
        DB 16
        DB 16
        DB 16
        DB 16
        DB 12
        DB 0
        DB 0
        DB 0
        DB 0
        DB 0
        DB 0
        DB 0
        DB 0
        DB 204
        DB 68
        DB 68
        DB 68
        DB 68
        DB 62
        DB 0
        DB 0
        DB 0
        DB 0
        DB 0
        DB 0
        DB 0
        DB 0
        DB 238
        DB 68
        DB 40
        DB 40
        DB 40
        DB 16
        DB 0
        DB 0
        DB 0
        DB 0
        DB 0
        DB 0
        DB 0
        DB 0
        DB 214
        DB 84
        DB 84
        DB 84
        DB 40
        DB 40
        DB 0
        DB 0
        DB 0
        DB 0
        DB 0
        DB 0
        DB 0
        DB 0
        DB 220
        DB 72
        DB 48
        DB 48
        DB 72
        DB 236
        DB 0
        DB 0
        DB 0
        DB 0
        DB 0
        DB 0
        DB 0
        DB 0
        DB 238
        DB 68
        DB 40
        DB 40
        DB 16
        DB 16
        DB 32
        DB 224
        DB 0
        DB 0
        DB 0
        DB 0
        DB 0
        DB 0
        DB 124
        DB 72
        DB 16
        DB 16
        DB 36
        DB 124
        DB 0
        DB 0
        DB 16
        DB 16
        DB 16
        DB 16
        DB 16
        DB 16
        DB 16
        DB 16
        DB 16
        DB 16
        DB 16
        DB 16
        DB 16
        DB 16
//  252 {
//  253 {0x00,0x00,0x00,0x00,0x00,0x00,0x00,0x00,0x00,0x00,0x00,0x00,0x00,0x00},//" ",0//
//  254 {0x00,0x00,0x10,0x10,0x10,0x10,0x10,0x10,0x00,0x00,0x30,0x30,0x00,0x00},//"!",1//
//  255 {0x00,0x14,0x28,0x50,0x00,0x00,0x00,0x00,0x00,0x00,0x00,0x00,0x00,0x00},//""",2//
//  256 {0x00,0x00,0x00,0x28,0x28,0xFC,0x28,0x48,0x50,0xFC,0x50,0x50,0x00,0x00},//"#",3//
//  257 {0x00,0x00,0x10,0x38,0x54,0x54,0x30,0x18,0x14,0x54,0x54,0x38,0x10,0x00},//"$",4//
//  258 {0x00,0x00,0x00,0x44,0xA8,0xA8,0xB0,0x54,0x1A,0x2A,0x2A,0x44,0x00,0x00},//"%",5//
//  259 {0x00,0x00,0x00,0x20,0x50,0x50,0x60,0xAC,0xA8,0x98,0x92,0x7C,0x00,0x00},//"&",6//
//  260 {0x00,0x60,0x60,0x20,0xC0,0x00,0x00,0x00,0x00,0x00,0x00,0x00,0x00,0x00},//"'",7//
//  261 {0x00,0x04,0x08,0x08,0x10,0x10,0x10,0x10,0x10,0x10,0x08,0x08,0x04,0x00},//"(",8//
//  262 {0x00,0x00,0x40,0x20,0x10,0x08,0x04,0x08,0x10,0x20,0x40,0x00,0x00,0x00},//">",9//
//  263 {0x00,0x00,0x00,0x10,0x10,0xD6,0x38,0x38,0xD6,0x10,0x10,0x00,0x00,0x00},//"*",10//
//  264 {0x00,0x00,0x00,0x10,0x10,0x10,0xFE,0x10,0x10,0x10,0x00,0x00,0x00,0x00},//"+",11//
//  265 {0x00,0x00,0x00,0x00,0x00,0x00,0x00,0x00,0x00,0x00,0x60,0x60,0x20,0xC0},//",",12//
//  266 {0x00,0x00,0x00,0x00,0x00,0x00,0xFC,0x00,0x00,0x00,0x00,0x00,0x00,0x00},//"-",13//
//  267 {0x00,0x00,0x00,0x00,0x00,0x00,0x00,0x00,0x00,0x00,0x60,0x60,0x00,0x00},//".",14//
//  268 {0x00,0x02,0x04,0x04,0x04,0x08,0x08,0x10,0x10,0x20,0x20,0x20,0x40,0x00},//"/",15//
//  269 {0x00,0x00,0x00,0x30,0x48,0x84,0x84,0x84,0x84,0x84,0x48,0x30,0x00,0x00},//"0",16//
//  270 {0x00,0x00,0x00,0x10,0x70,0x10,0x10,0x10,0x10,0x10,0x10,0x7C,0x00,0x00},//"1",17//
//  271 {0x00,0x00,0x00,0x38,0x44,0x44,0x04,0x08,0x10,0x20,0x44,0x7C,0x00,0x00},//"2",18//
//  272 {0x00,0x00,0x00,0x38,0x44,0x44,0x18,0x04,0x04,0x44,0x44,0x38,0x00,0x00},//"3",19//
//  273 {0x00,0x00,0x08,0x08,0x18,0x28,0x48,0x48,0x88,0x7C,0x08,0x1C,0x00,0x00},//"4",20//
//  274 {0x00,0x00,0x00,0x7C,0x40,0x40,0x78,0x44,0x04,0x44,0x44,0x38,0x00,0x00},//"5",21//
//  275 {0x00,0x00,0x00,0x3C,0x44,0x80,0xB8,0xC4,0x84,0x84,0x84,0x78,0x00,0x00},//"6",22//
//  276 {0x00,0x00,0x00,0x7C,0x44,0x48,0x08,0x10,0x10,0x10,0x10,0x10,0x00,0x00},//"7",23//
//  277 {0x00,0x00,0x00,0x78,0x84,0x84,0x48,0x78,0x84,0x84,0x84,0x78,0x00,0x00},//"8",24//
//  278 {0x00,0x00,0x00,0x78,0x84,0x84,0x84,0x8C,0x74,0x04,0x88,0xF0,0x00,0x00},//"9",25//
//  279 {0x00,0x00,0x00,0x00,0x00,0x30,0x30,0x00,0x00,0x00,0x30,0x30,0x00,0x00},//":",26//
//  280 {0x00,0x00,0x00,0x00,0x00,0x00,0x10,0x00,0x00,0x00,0x00,0x10,0x10,0x20},//";",27//
//  281 {0x00,0x00,0x04,0x08,0x10,0x20,0x40,0x20,0x10,0x08,0x04,0x00,0x00,0x00},//"<",28//
//  282 {0x00,0x00,0x00,0x00,0x00,0xFC,0x00,0x00,0xFC,0x00,0x00,0x00,0x00,0x00},//"=",29//
//  283 {0x00,0x00,0x40,0x20,0x10,0x08,0x04,0x08,0x10,0x20,0x40,0x00,0x00,0x00},//">",30//
//  284 {0x00,0x00,0x78,0x84,0x84,0x84,0x08,0x10,0x10,0x00,0x30,0x30,0x00,0x00},//"?",31//
//  285 {0x00,0x00,0x00,0x38,0x44,0x9A,0xAA,0xAA,0xAA,0xB4,0x42,0x3C,0x00,0x00},//"@",32//
//  286 {0x00,0x00,0x00,0x10,0x10,0x28,0x28,0x28,0x38,0x44,0x44,0xEE,0x00,0x00},//"A",33//
//  287 {0x00,0x00,0x00,0xF8,0x44,0x44,0x78,0x44,0x44,0x44,0x44,0xF8,0x00,0x00},//"B",34//
//  288 {0x00,0x00,0x00,0x3C,0x44,0x84,0x80,0x80,0x80,0x80,0x44,0x38,0x00,0x00},//"C",35//
//  289 {0x00,0x00,0x00,0xF0,0x48,0x44,0x44,0x44,0x44,0x44,0x48,0xF0,0x00,0x00},//"D",36//
//  290 {0x00,0x00,0x00,0xFC,0x44,0x40,0x48,0x78,0x48,0x40,0x44,0xFC,0x00,0x00},//"E",37//
//  291 {0x00,0x00,0x00,0xFC,0x42,0x40,0x48,0x78,0x48,0x40,0x40,0xE0,0x00,0x00},//"F",38//
//  292 {0x00,0x00,0x00,0x3C,0x44,0x84,0x80,0x80,0x8E,0x84,0x44,0x38,0x00,0x00},//"G",39//
//  293 {0x00,0x00,0x00,0xEE,0x44,0x44,0x44,0x7C,0x44,0x44,0x44,0xEE,0x00,0x00},//"H",40//
//  294 {0x00,0x00,0x00,0x7C,0x10,0x10,0x10,0x10,0x10,0x10,0x10,0x7C,0x00,0x00},//"I",41//
//  295 {0x00,0x00,0x00,0x7C,0x10,0x10,0x10,0x10,0x10,0x10,0x10,0x10,0x90,0xE0},//"J",42//
//  296 {0x00,0x00,0x00,0xEE,0x44,0x48,0x50,0x70,0x48,0x48,0x44,0xEE,0x00,0x00},//"K",43//
//  297 {0x00,0x00,0x00,0xE0,0x40,0x40,0x40,0x40,0x40,0x40,0x44,0xFC,0x00,0x00},//"L",44//
//  298 {0x00,0x00,0x00,0xEE,0x6C,0x6C,0x6C,0x54,0x54,0x54,0x54,0xD6,0x00,0x00},//"M",45//
//  299 {0x00,0x00,0x00,0xEE,0x64,0x64,0x54,0x54,0x54,0x4C,0x4C,0xE4,0x00,0x00},//"N",46//
//  300 {0x00,0x00,0x00,0x30,0x48,0x84,0x84,0x84,0x84,0x84,0x48,0x30,0x00,0x00},//"O",47//
//  301 {0x00,0x00,0x00,0xF8,0x44,0x44,0x44,0x78,0x40,0x40,0x40,0xE0,0x00,0x00},//"P",48//
//  302 {0x00,0x00,0x00,0x30,0x48,0x84,0x84,0x84,0x84,0xB4,0x48,0x38,0x0C,0x00},//"Q",49//
//  303 {0x00,0x00,0x00,0xF8,0x44,0x44,0x78,0x50,0x48,0x48,0x44,0xE6,0x00,0x00},//"R",50//
//  304 {0x00,0x00,0x00,0x3C,0x44,0x40,0x20,0x18,0x04,0x04,0x44,0x78,0x00,0x00},//"S",51//
//  305 {0x00,0x00,0x00,0xFE,0x92,0x10,0x10,0x10,0x10,0x10,0x10,0x38,0x00,0x00},//"T",52//
//  306 {0x00,0x00,0x00,0xEE,0x44,0x44,0x44,0x44,0x44,0x44,0x44,0x38,0x00,0x00},//"U",53//
//  307 {0x00,0x00,0x00,0xEE,0x44,0x44,0x28,0x28,0x28,0x28,0x10,0x10,0x00,0x00},//"V",54//
//  308 {0x00,0x00,0x00,0xD6,0x54,0x54,0x54,0x54,0x6C,0x28,0x28,0x28,0x00,0x00},//"W",55//
//  309 {0x00,0x00,0x00,0xEE,0x44,0x28,0x28,0x10,0x28,0x28,0x44,0xEE,0x00,0x00},//"X",56//
//  310 {0x00,0x00,0x00,0xEE,0x44,0x28,0x28,0x10,0x10,0x10,0x10,0x38,0x00,0x00},//"Y",57//
//  311 {0x00,0x00,0x00,0x7C,0x88,0x08,0x10,0x20,0x20,0x40,0x44,0xFC,0x00,0x00},//"Z",58//
//  312 {0x00,0x1C,0x10,0x10,0x10,0x10,0x10,0x10,0x10,0x10,0x10,0x10,0x1C,0x00},//"[",59//
//  313 {0x00,0x70,0x10,0x10,0x10,0x10,0x10,0x10,0x10,0x10,0x10,0x10,0x70,0x00},//"]",60//
//  314 {0x00,0x70,0x10,0x10,0x10,0x10,0x10,0x10,0x10,0x10,0x10,0x10,0x70,0x00},//"]",61//
//  315 {0x00,0x10,0x28,0x00,0x00,0x00,0x00,0x00,0x00,0x00,0x00,0x00,0x00,0x00},//"^",62//
//  316 {0x00,0x00,0x00,0x00,0x00,0x00,0x00,0x00,0x00,0x00,0x00,0x00,0x00,0xFE},//"_",63//
//  317 {0x00,0x60,0x60,0x20,0xC0,0x00,0x00,0x00,0x00,0x00,0x00,0x00,0x00,0x00},//"'",64//
//  318 {0x00,0x00,0x00,0x00,0x00,0x00,0x38,0x44,0x1C,0x24,0x44,0x3E,0x00,0x00},//"a",65//
//  319 {0x00,0x00,0x00,0xC0,0x40,0x40,0x78,0x44,0x44,0x44,0x44,0x78,0x00,0x00},//"b",66//
//  320 {0x00,0x00,0x00,0x00,0x00,0x00,0x3C,0x44,0x40,0x40,0x44,0x38,0x00,0x00},//"c",67//
//  321 {0x00,0x00,0x00,0x0C,0x04,0x04,0x3C,0x44,0x44,0x44,0x44,0x3E,0x00,0x00},//"d",68//
//  322 {0x00,0x00,0x00,0x00,0x00,0x00,0x38,0x44,0x7C,0x40,0x44,0x38,0x00,0x00},//"e",69//
//  323 {0x00,0x00,0x00,0x1C,0x24,0x20,0xF8,0x20,0x20,0x20,0x20,0x78,0x00,0x00},//"f",70//
//  324 {0x00,0x00,0x00,0x00,0x00,0x00,0x3C,0x48,0x48,0x30,0x40,0x78,0x44,0x38},//"g",71//
//  325 {0x00,0x00,0x00,0xC0,0x40,0x40,0x58,0x64,0x44,0x44,0x44,0xEE,0x00,0x00},//"h",72//
//  326 {0x00,0x00,0x00,0x10,0x00,0x00,0x70,0x10,0x10,0x10,0x10,0x7C,0x00,0x00},//"i",73//
//  327 {0x00,0x00,0x00,0x08,0x00,0x00,0x38,0x08,0x08,0x08,0x08,0x08,0x08,0x70},//"j",74//
//  328 {0x00,0x00,0x00,0xC0,0x40,0x40,0x5C,0x48,0x50,0x70,0x48,0xEC,0x00,0x00},//"k",75//
//  329 {0x00,0x00,0x00,0x70,0x10,0x10,0x10,0x10,0x10,0x10,0x10,0x7C,0x00,0x00},//"l",76//
//  330 {0x00,0x00,0x00,0x00,0x00,0x00,0xF8,0x54,0x54,0x54,0x54,0xD6,0x00,0x00},//"m",77//
//  331 {0x00,0x00,0x00,0x00,0x00,0x00,0xD8,0x64,0x44,0x44,0x44,0xEE,0x00,0x00},//"n",78//
//  332 {0x00,0x00,0x00,0x00,0x00,0x00,0x38,0x44,0x44,0x44,0x44,0x38,0x00,0x00},//"o",79//
//  333 {0x00,0x00,0x00,0x00,0x00,0x00,0xF8,0x44,0x44,0x44,0x44,0x78,0x40,0xE0},//"p",80//
//  334 {0x00,0x00,0x00,0x00,0x00,0x00,0x3C,0x44,0x44,0x44,0x44,0x3C,0x04,0x0E},//"q",81//
//  335 {0x00,0x00,0x00,0x00,0x00,0x00,0xEC,0x30,0x20,0x20,0x20,0xF8,0x00,0x00},//"r",82//
//  336 {0x00,0x00,0x00,0x00,0x00,0x00,0x3C,0x44,0x30,0x08,0x44,0x78,0x00,0x00},//"s",83//
//  337 {0x00,0x00,0x00,0x00,0x10,0x10,0x7C,0x10,0x10,0x10,0x10,0x0C,0x00,0x00},//"t",84//
//  338 {0x00,0x00,0x00,0x00,0x00,0x00,0xCC,0x44,0x44,0x44,0x44,0x3E,0x00,0x00},//"u",85//
//  339 {0x00,0x00,0x00,0x00,0x00,0x00,0xEE,0x44,0x28,0x28,0x28,0x10,0x00,0x00},//"v",86//
//  340 {0x00,0x00,0x00,0x00,0x00,0x00,0xD6,0x54,0x54,0x54,0x28,0x28,0x00,0x00},//"w",87//
//  341 {0x00,0x00,0x00,0x00,0x00,0x00,0xDC,0x48,0x30,0x30,0x48,0xEC,0x00,0x00},//"x",88//
//  342 {0x00,0x00,0x00,0x00,0x00,0x00,0xEE,0x44,0x28,0x28,0x10,0x10,0x20,0xE0},//"y",89//
//  343 {0x00,0x00,0x00,0x00,0x00,0x00,0x7C,0x48,0x10,0x10,0x24,0x7C,0x00,0x00},//"z",90//
//  344 {0x10,0x10,0x10,0x10,0x10,0x10,0x10,0x10,0x10,0x10,0x10,0x10,0x10,0x10},//"|",91//
//  345 };
//  346 //-----------------------------------------------------------------------------
//  347 #endif //LCD
//  348 
//  349 
//  350 /**************************************************************************************************
//  351  * @fn      HalLcdInit
//  352  *
//  353  * @brief   Initilize LCD Service
//  354  *
//  355  * @param   init - pointer to void that contains the initialized value
//  356  *
//  357  * @return  None
//  358  **************************************************************************************************/

        RSEG BANKED_CODE:HUGECODE:NOROOT(0)
//  359 void HalLcdInit(void)
HalLcdInit:
          CFI Block cfiBlock0 Using cfiCommon0
          CFI Function HalLcdInit
        CODE
//  360 {
        FUNCALL HalLcdInit, HalLcd_HW_Init
        LOCFRAME ISTACK, 2, STACK
        LOCFRAME PSTACK, 0, STACK
        LOCFRAME XSTACK, 0, STACK
        LOCFRAME IOVERLAY, 0, STATIC
        LOCFRAME DOVERLAY, 0, STATIC
        ARGFRAME ISTACK, 2, STACK
        ARGFRAME PSTACK, 0, STACK
        ARGFRAME XSTACK, 0, STACK
        ARGFRAME IOVERLAY, 0, STATIC
        ARGFRAME DOVERLAY, 0, STATIC
        PUSH      DPL
          CFI DPL0 Frame(CFA_SP, 4)
          CFI CFA_SP SP+-4
        PUSH      DPH
          CFI DPH0 Frame(CFA_SP, 5)
          CFI CFA_SP SP+-5
        ; Saved register size: 2
        ; Auto size: 0
//  361 #if (HAL_LCD == TRUE)
//  362   HalLcd_HW_Init();
        ; Setup parameters for call to function HalLcd_HW_Init
        LCALL     `??HalLcd_HW_Init::?relay`; Banked call to: HalLcd_HW_Init
//  363 #endif
//  364 }
          CFI EndBlock cfiBlock0
        REQUIRE ?Subroutine0
        ; // Fall through to label ?Subroutine0

        RSEG BANKED_CODE:HUGECODE:NOROOT(0)
?Subroutine0:
          CFI Block cfiBlock1 Using cfiCommon0
          CFI NoFunction
          CFI CFA_SP SP+-5
          CFI DPL0 Frame(CFA_SP, 4)
          CFI DPH0 Frame(CFA_SP, 5)
        POP       DPH
          CFI CFA_SP SP+-4
          CFI DPH0 SameValue
        POP       DPL
          CFI CFA_SP SP+-3
          CFI DPL0 SameValue
        LJMP      ?BRET
          CFI EndBlock cfiBlock1
//  365 
//  366 /**************************************************************************************************
//  367  * @fn      HalLcdWriteValue
//  368  *
//  369  * @brief   Write a value to the LCD
//  370  *
//  371  * @param   value  - value that will be displayed
//  372  *          radix  - 8, 10, 16
//  373  *          option - display options
//  374  *
//  375  * @return  None
//  376  **************************************************************************************************/

        RSEG BANKED_CODE:HUGECODE:NOROOT(0)
//  377 void HalLcdWriteValue ( uint32 value, const uint8 radix, uint8 option)
HalLcdWriteValue:
          CFI Block cfiBlock2 Using cfiCommon0
          CFI Function HalLcdWriteValue
        CODE
//  378 {
        FUNCALL HalLcdWriteValue, _ltoa
        LOCFRAME ISTACK, 0, STACK
        LOCFRAME PSTACK, 0, STACK
        LOCFRAME XSTACK, 41, STACK
        LOCFRAME IOVERLAY, 0, STATIC
        LOCFRAME DOVERLAY, 0, STATIC
        ARGFRAME ISTACK, 0, STACK
        ARGFRAME PSTACK, 0, STACK
        ARGFRAME XSTACK, 41, STACK
        ARGFRAME IOVERLAY, 0, STATIC
        ARGFRAME DOVERLAY, 0, STATIC
        FUNCALL HalLcdWriteValue, HalLcdWriteString
        LOCFRAME ISTACK, 0, STACK
        LOCFRAME PSTACK, 0, STACK
        LOCFRAME XSTACK, 39, STACK
        LOCFRAME IOVERLAY, 0, STATIC
        LOCFRAME DOVERLAY, 0, STATIC
        ARGFRAME ISTACK, 0, STACK
        ARGFRAME PSTACK, 0, STACK
        ARGFRAME XSTACK, 39, STACK
        ARGFRAME IOVERLAY, 0, STATIC
        ARGFRAME DOVERLAY, 0, STATIC
        REQUIRE ?V0
        REQUIRE ?V1
        REQUIRE ?V2
        REQUIRE ?V3
        REQUIRE ?V4
        REQUIRE ?V5
        MOV       A,#-0xe
        LCALL     ?BANKED_ENTER_XDATA
          CFI DPH0 load(1, XDATA, add(CFA_XSP16, literal(-1)))
          CFI DPL0 load(1, XDATA, add(CFA_XSP16, literal(-2)))
          CFI ?BRET_EXT load(1, XDATA, add(CFA_XSP16, literal(-3)))
          CFI ?RET_HIGH load(1, XDATA, add(CFA_XSP16, literal(-4)))
          CFI ?RET_LOW load(1, XDATA, add(CFA_XSP16, literal(-5)))
          CFI R7 load(1, XDATA, add(CFA_XSP16, literal(-6)))
          CFI V5 load(1, XDATA, add(CFA_XSP16, literal(-7)))
          CFI V4 load(1, XDATA, add(CFA_XSP16, literal(-8)))
          CFI V3 load(1, XDATA, add(CFA_XSP16, literal(-9)))
          CFI V2 load(1, XDATA, add(CFA_XSP16, literal(-10)))
          CFI V1 load(1, XDATA, add(CFA_XSP16, literal(-11)))
          CFI V0 load(1, XDATA, add(CFA_XSP16, literal(-12)))
          CFI VB load(1, XDATA, add(CFA_XSP16, literal(-13)))
          CFI R6 load(1, XDATA, add(CFA_XSP16, literal(-14)))
          CFI CFA_SP SP+0
          CFI CFA_XSP16 add(XSP16, 14)
        ; Saved register size: 14
        ; Auto size: 25
        MOV       A,#-0x19
        LCALL     ?ALLOC_XSTACK8
          CFI CFA_XSP16 add(XSP16, 39)
        MOV       A,R1
        MOV       R6,A
//  379 #if (HAL_LCD == TRUE)
//  380   uint8 buf[LCD_MAX_BUF];
//  381 
//  382   _ltoa( value, &buf[0], radix );
        ; Setup parameters for call to function _ltoa
        MOV       R0,?XSP + 0
        MOV       R1,?XSP + 1
        MOV       ?V4,R0
        MOV       ?V5,R1
        MOV       R0,#?V4
        LCALL     ?PUSH_XSTACK_I_TWO
          CFI CFA_XSP16 add(XSP16, 41)
        MOV       A,R6
        MOV       R1,A
        LCALL     `??_ltoa::?relay`; Banked call to: _ltoa
        MOV       A,#0x2
        LCALL     ?DEALLOC_XSTACK8
          CFI CFA_XSP16 add(XSP16, 39)
//  383   HalLcdWriteString( (char*)buf, option );
        ; Setup parameters for call to function HalLcdWriteString
        MOV       A,#0x27
        LCALL     ?XSTACK_DISP0_8
        MOVX      A,@DPTR
        MOV       R1,A
        MOV       R2,?XSP + 0
        MOV       R3,?XSP + 1
        LCALL     `??HalLcdWriteString::?relay`; Banked call to: HalLcdWriteString
//  384 #endif
//  385 }
        MOV       A,#0x19
        LCALL     ?DEALLOC_XSTACK8
          CFI EndBlock cfiBlock2
        REQUIRE ?Subroutine1
        ; // Fall through to label ?Subroutine1

        RSEG BANKED_CODE:HUGECODE:NOROOT(0)
?Subroutine1:
          CFI Block cfiBlock3 Using cfiCommon0
          CFI NoFunction
          CFI CFA_SP SP+0
          CFI CFA_XSP16 add(XSP16, 14)
          CFI VB load(1, XDATA, add(CFA_XSP16, literal(-13)))
          CFI DPL0 load(1, XDATA, add(CFA_XSP16, literal(-2)))
          CFI DPH0 load(1, XDATA, add(CFA_XSP16, literal(-1)))
          CFI R6 load(1, XDATA, add(CFA_XSP16, literal(-14)))
          CFI R7 load(1, XDATA, add(CFA_XSP16, literal(-6)))
          CFI V0 load(1, XDATA, add(CFA_XSP16, literal(-12)))
          CFI V1 load(1, XDATA, add(CFA_XSP16, literal(-11)))
          CFI V2 load(1, XDATA, add(CFA_XSP16, literal(-10)))
          CFI V3 load(1, XDATA, add(CFA_XSP16, literal(-9)))
          CFI V4 load(1, XDATA, add(CFA_XSP16, literal(-8)))
          CFI V5 load(1, XDATA, add(CFA_XSP16, literal(-7)))
          CFI ?BRET_EXT load(1, XDATA, add(CFA_XSP16, literal(-3)))
          CFI ?RET_HIGH load(1, XDATA, add(CFA_XSP16, literal(-4)))
          CFI ?RET_LOW load(1, XDATA, add(CFA_XSP16, literal(-5)))
        MOV       R7,#0x6
        LJMP      ?BANKED_LEAVE_XDATA
          CFI EndBlock cfiBlock3
//  386 
//  387 /**************************************************************************************************
//  388  * @fn      HalLcdWriteScreen
//  389  *
//  390  * @brief   Write a value to the LCD
//  391  *
//  392  * @param   line1  - string that will be displayed on line 1
//  393  *          line2  - string that will be displayed on line 2
//  394  *
//  395  * @return  None
//  396  **************************************************************************************************/

        RSEG BANKED_CODE:HUGECODE:NOROOT(0)
//  397 void HalLcdWriteScreen( char *line1, char *line2 )
HalLcdWriteScreen:
          CFI Block cfiBlock4 Using cfiCommon0
          CFI Function HalLcdWriteScreen
        CODE
//  398 {
        FUNCALL HalLcdWriteScreen, HalLcdWriteString
        LOCFRAME ISTACK, 0, STACK
        LOCFRAME PSTACK, 0, STACK
        LOCFRAME XSTACK, 9, STACK
        LOCFRAME IOVERLAY, 0, STATIC
        LOCFRAME DOVERLAY, 0, STATIC
        ARGFRAME ISTACK, 0, STACK
        ARGFRAME PSTACK, 0, STACK
        ARGFRAME XSTACK, 9, STACK
        ARGFRAME IOVERLAY, 0, STATIC
        ARGFRAME DOVERLAY, 0, STATIC
        FUNCALL HalLcdWriteScreen, HalLcdWriteString
        LOCFRAME ISTACK, 0, STACK
        LOCFRAME PSTACK, 0, STACK
        LOCFRAME XSTACK, 9, STACK
        LOCFRAME IOVERLAY, 0, STATIC
        LOCFRAME DOVERLAY, 0, STATIC
        ARGFRAME ISTACK, 0, STACK
        ARGFRAME PSTACK, 0, STACK
        ARGFRAME XSTACK, 9, STACK
        ARGFRAME IOVERLAY, 0, STATIC
        ARGFRAME DOVERLAY, 0, STATIC
        MOV       A,#-0x9
        LCALL     ?BANKED_ENTER_XDATA
          CFI DPH0 load(1, XDATA, add(CFA_XSP16, literal(-1)))
          CFI DPL0 load(1, XDATA, add(CFA_XSP16, literal(-2)))
          CFI ?BRET_EXT load(1, XDATA, add(CFA_XSP16, literal(-3)))
          CFI ?RET_HIGH load(1, XDATA, add(CFA_XSP16, literal(-4)))
          CFI ?RET_LOW load(1, XDATA, add(CFA_XSP16, literal(-5)))
          CFI R7 load(1, XDATA, add(CFA_XSP16, literal(-6)))
          CFI V0 load(1, XDATA, add(CFA_XSP16, literal(-7)))
          CFI VB load(1, XDATA, add(CFA_XSP16, literal(-8)))
          CFI R6 load(1, XDATA, add(CFA_XSP16, literal(-9)))
          CFI CFA_SP SP+0
          CFI CFA_XSP16 add(XSP16, 9)
        ; Saved register size: 9
        ; Auto size: 0
        MOV       A,R4
        MOV       R6,A
        MOV       A,R5
        MOV       R7,A
//  399 #if (HAL_LCD == TRUE)
//  400   HalLcdWriteString( line1, 0 );//andy 
        ; Setup parameters for call to function HalLcdWriteString
        MOV       R1,#0x0
        LCALL     `??HalLcdWriteString::?relay`; Banked call to: HalLcdWriteString
//  401   HalLcdWriteString( line2, 1 );
        ; Setup parameters for call to function HalLcdWriteString
        MOV       R1,#0x1
        MOV       A,R6
        MOV       R2,A
        MOV       A,R7
        MOV       R3,A
        LCALL     `??HalLcdWriteString::?relay`; Banked call to: HalLcdWriteString
//  402 #endif
//  403 }
        SJMP      ??Subroutine12_0
          CFI EndBlock cfiBlock4

        RSEG BANKED_CODE:HUGECODE:NOROOT(0)
?Subroutine2:
          CFI Block cfiBlock5 Using cfiCommon0
          CFI NoFunction
          CFI CFA_SP SP+0
          CFI CFA_XSP16 add(XSP16, 9)
          CFI VB load(1, XDATA, add(CFA_XSP16, literal(-8)))
          CFI DPL0 load(1, XDATA, add(CFA_XSP16, literal(-2)))
          CFI DPH0 load(1, XDATA, add(CFA_XSP16, literal(-1)))
          CFI R6 load(1, XDATA, add(CFA_XSP16, literal(-9)))
          CFI R7 load(1, XDATA, add(CFA_XSP16, literal(-6)))
          CFI V0 load(1, XDATA, add(CFA_XSP16, literal(-7)))
          CFI ?BRET_EXT load(1, XDATA, add(CFA_XSP16, literal(-3)))
          CFI ?RET_HIGH load(1, XDATA, add(CFA_XSP16, literal(-4)))
          CFI ?RET_LOW load(1, XDATA, add(CFA_XSP16, literal(-5)))
        LCALL     `??SPI_WriteData::?relay`; Banked call to: SPI_WriteData
          CFI EndBlock cfiBlock5
        REQUIRE ??Subroutine12_0
        ; // Fall through to label ??Subroutine12_0

        RSEG BANKED_CODE:HUGECODE:NOROOT(0)
??Subroutine12_0:
          CFI Block cfiBlock6 Using cfiCommon0
          CFI NoFunction
          CFI CFA_SP SP+0
          CFI CFA_XSP16 add(XSP16, 9)
          CFI VB load(1, XDATA, add(CFA_XSP16, literal(-8)))
          CFI DPL0 load(1, XDATA, add(CFA_XSP16, literal(-2)))
          CFI DPH0 load(1, XDATA, add(CFA_XSP16, literal(-1)))
          CFI R6 load(1, XDATA, add(CFA_XSP16, literal(-9)))
          CFI R7 load(1, XDATA, add(CFA_XSP16, literal(-6)))
          CFI V0 load(1, XDATA, add(CFA_XSP16, literal(-7)))
          CFI ?BRET_EXT load(1, XDATA, add(CFA_XSP16, literal(-3)))
          CFI ?RET_HIGH load(1, XDATA, add(CFA_XSP16, literal(-4)))
          CFI ?RET_LOW load(1, XDATA, add(CFA_XSP16, literal(-5)))
        MOV       R7,#0x1
        LJMP      ?BANKED_LEAVE_XDATA
          CFI EndBlock cfiBlock6
//  404 
//  405 /**************************************************************************************************
//  406  * @fn      HalLcdWriteStringValue
//  407  *
//  408  * @brief   Write a string followed by a value to the LCD
//  409  *
//  410  * @param   title  - Title that will be displayed before the value
//  411  *          value  - value
//  412  *          format - redix
//  413  *          line   - line number
//  414  *
//  415  * @return  None
//  416  **************************************************************************************************/

        RSEG BANKED_CODE:HUGECODE:NOROOT(0)
//  417 void HalLcdWriteStringValue( char *title, uint16 value, uint8 format, uint8 line )
HalLcdWriteStringValue:
          CFI Block cfiBlock7 Using cfiCommon0
          CFI Function HalLcdWriteStringValue
        CODE
//  418 {
        FUNCALL HalLcdWriteStringValue, osal_strlen
        LOCFRAME ISTACK, 0, STACK
        LOCFRAME PSTACK, 0, STACK
        LOCFRAME XSTACK, 40, STACK
        LOCFRAME IOVERLAY, 0, STATIC
        LOCFRAME DOVERLAY, 0, STATIC
        ARGFRAME ISTACK, 0, STACK
        ARGFRAME PSTACK, 0, STACK
        ARGFRAME XSTACK, 40, STACK
        ARGFRAME IOVERLAY, 0, STATIC
        ARGFRAME DOVERLAY, 0, STATIC
        FUNCALL HalLcdWriteStringValue, osal_memcpy
        LOCFRAME ISTACK, 0, STACK
        LOCFRAME PSTACK, 0, STACK
        LOCFRAME XSTACK, 43, STACK
        LOCFRAME IOVERLAY, 0, STATIC
        LOCFRAME DOVERLAY, 0, STATIC
        ARGFRAME ISTACK, 0, STACK
        ARGFRAME PSTACK, 0, STACK
        ARGFRAME XSTACK, 43, STACK
        ARGFRAME IOVERLAY, 0, STATIC
        ARGFRAME DOVERLAY, 0, STATIC
        FUNCALL HalLcdWriteStringValue, _ltoa
        LOCFRAME ISTACK, 0, STACK
        LOCFRAME PSTACK, 0, STACK
        LOCFRAME XSTACK, 42, STACK
        LOCFRAME IOVERLAY, 0, STATIC
        LOCFRAME DOVERLAY, 0, STATIC
        ARGFRAME ISTACK, 0, STACK
        ARGFRAME PSTACK, 0, STACK
        ARGFRAME XSTACK, 42, STACK
        ARGFRAME IOVERLAY, 0, STATIC
        ARGFRAME DOVERLAY, 0, STATIC
        FUNCALL HalLcdWriteStringValue, HalLcdWriteString
        LOCFRAME ISTACK, 0, STACK
        LOCFRAME PSTACK, 0, STACK
        LOCFRAME XSTACK, 40, STACK
        LOCFRAME IOVERLAY, 0, STATIC
        LOCFRAME DOVERLAY, 0, STATIC
        ARGFRAME ISTACK, 0, STACK
        ARGFRAME PSTACK, 0, STACK
        ARGFRAME XSTACK, 40, STACK
        ARGFRAME IOVERLAY, 0, STATIC
        ARGFRAME DOVERLAY, 0, STATIC
        REQUIRE ?V0
        REQUIRE ?V1
        REQUIRE ?V2
        REQUIRE ?V3
        REQUIRE ?V4
        REQUIRE ?V5
        REQUIRE ?V6
        MOV       A,#-0xf
        LCALL     ?BANKED_ENTER_XDATA
          CFI DPH0 load(1, XDATA, add(CFA_XSP16, literal(-1)))
          CFI DPL0 load(1, XDATA, add(CFA_XSP16, literal(-2)))
          CFI ?BRET_EXT load(1, XDATA, add(CFA_XSP16, literal(-3)))
          CFI ?RET_HIGH load(1, XDATA, add(CFA_XSP16, literal(-4)))
          CFI ?RET_LOW load(1, XDATA, add(CFA_XSP16, literal(-5)))
          CFI R7 load(1, XDATA, add(CFA_XSP16, literal(-6)))
          CFI V6 load(1, XDATA, add(CFA_XSP16, literal(-7)))
          CFI V5 load(1, XDATA, add(CFA_XSP16, literal(-8)))
          CFI V4 load(1, XDATA, add(CFA_XSP16, literal(-9)))
          CFI V3 load(1, XDATA, add(CFA_XSP16, literal(-10)))
          CFI V2 load(1, XDATA, add(CFA_XSP16, literal(-11)))
          CFI V1 load(1, XDATA, add(CFA_XSP16, literal(-12)))
          CFI V0 load(1, XDATA, add(CFA_XSP16, literal(-13)))
          CFI VB load(1, XDATA, add(CFA_XSP16, literal(-14)))
          CFI R6 load(1, XDATA, add(CFA_XSP16, literal(-15)))
          CFI CFA_SP SP+0
          CFI CFA_XSP16 add(XSP16, 15)
        ; Saved register size: 15
        ; Auto size: 25
        MOV       A,#-0x19
        LCALL     ?ALLOC_XSTACK8
          CFI CFA_XSP16 add(XSP16, 40)
        MOV       A,R2
        MOV       R6,A
        MOV       A,R3
        MOV       R7,A
        MOV       ?V2,R4
        MOV       ?V3,R5
        MOV       ?V0,R1
//  419 #if (HAL_LCD == TRUE)
//  420   uint8 tmpLen;
//  421   uint8 buf[LCD_MAX_BUF];
//  422   uint32 err;
//  423 
//  424   tmpLen = (uint8)osal_strlen( (char*)title );
        ; Setup parameters for call to function osal_strlen
        LCALL     `??osal_strlen::?relay`; Banked call to: osal_strlen
        MOV       A,R2
        MOV       ?V1,A
//  425   osal_memcpy( buf, title, tmpLen );
        ; Setup parameters for call to function osal_memcpy
        MOV       ?V4,R6
        MOV       ?V5,R7
        MOV       ?V6,#0x0
        MOV       R0,#?V4
        LCALL     ?PUSH_XSTACK_I_THREE
          CFI CFA_XSP16 add(XSP16, 43)
        MOV       R4,?V1
        MOV       R5,#0x0
        MOV       A,#0x3
        LCALL     ?XSTACK_DISP101_8
        LCALL     `??osal_memcpy::?relay`; Banked call to: osal_memcpy
        MOV       A,#0x3
        LCALL     ?DEALLOC_XSTACK8
          CFI CFA_XSP16 add(XSP16, 40)
//  426   //buf[tmpLen] = ' ';
//  427   err = (uint32)(value);
//  428   _ltoa( err, &buf[tmpLen], format );
        ; Setup parameters for call to function _ltoa
        MOV       R0,?V1
        LCALL     ?Subroutine11 & 0xFFFF
??CrossCallReturnLabel_13:
        LCALL     ?PUSH_XSTACK_I_TWO
          CFI CFA_XSP16 add(XSP16, 42)
        MOV       R1,?V0
        MOV       R2,?V2
        MOV       R3,?V3
        CLR       A
        MOV       R4,A
        MOV       R5,A
        LCALL     `??_ltoa::?relay`; Banked call to: _ltoa
        MOV       A,#0x2
        LCALL     ?DEALLOC_XSTACK8
          CFI CFA_XSP16 add(XSP16, 40)
//  429   HalLcdWriteString( (char*)buf, line );		
        ; Setup parameters for call to function HalLcdWriteString
        MOV       A,#0x28
          CFI EndBlock cfiBlock7
        REQUIRE ?Subroutine3
        ; // Fall through to label ?Subroutine3
//  430 #endif
//  431 }

        RSEG BANKED_CODE:HUGECODE:NOROOT(0)
?Subroutine3:
          CFI Block cfiBlock8 Using cfiCommon0
          CFI NoFunction
          CFI CFA_SP SP+0
          CFI CFA_XSP16 add(XSP16, 40)
          CFI VB load(1, XDATA, add(CFA_XSP16, literal(-14)))
          CFI DPL0 load(1, XDATA, add(CFA_XSP16, literal(-2)))
          CFI DPH0 load(1, XDATA, add(CFA_XSP16, literal(-1)))
          CFI R6 load(1, XDATA, add(CFA_XSP16, literal(-15)))
          CFI R7 load(1, XDATA, add(CFA_XSP16, literal(-6)))
          CFI V0 load(1, XDATA, add(CFA_XSP16, literal(-13)))
          CFI V1 load(1, XDATA, add(CFA_XSP16, literal(-12)))
          CFI V2 load(1, XDATA, add(CFA_XSP16, literal(-11)))
          CFI V3 load(1, XDATA, add(CFA_XSP16, literal(-10)))
          CFI V4 load(1, XDATA, add(CFA_XSP16, literal(-9)))
          CFI V5 load(1, XDATA, add(CFA_XSP16, literal(-8)))
          CFI V6 load(1, XDATA, add(CFA_XSP16, literal(-7)))
          CFI ?BRET_EXT load(1, XDATA, add(CFA_XSP16, literal(-3)))
          CFI ?RET_HIGH load(1, XDATA, add(CFA_XSP16, literal(-4)))
          CFI ?RET_LOW load(1, XDATA, add(CFA_XSP16, literal(-5)))
        LCALL     ?XSTACK_DISP0_8
        MOVX      A,@DPTR
        MOV       R1,A
        MOV       R2,?XSP + 0
        MOV       R3,?XSP + 1
        LCALL     `??HalLcdWriteString::?relay`; Banked call to: HalLcdWriteString
        MOV       A,#0x19
        LCALL     ?DEALLOC_XSTACK8
          CFI CFA_XSP16 add(XSP16, 15)
        MOV       R7,#0x7
        LJMP      ?BANKED_LEAVE_XDATA
          CFI EndBlock cfiBlock8
//  432 
//  433 /**************************************************************************************************
//  434  * @fn      HalLcdWriteStringValue
//  435  *
//  436  * @brief   Write a string followed by a value to the LCD
//  437  *
//  438  * @param   title   - Title that will be displayed before the value
//  439  *          value1  - value #1
//  440  *          format1 - redix of value #1
//  441  *          value2  - value #2
//  442  *          format2 - redix of value #2
//  443  *          line    - line number
//  444  *
//  445  * @return  None
//  446  **************************************************************************************************/

        RSEG BANKED_CODE:HUGECODE:NOROOT(0)
//  447 void HalLcdWriteStringValueValue( char *title, uint16 value1, uint8 format1,
HalLcdWriteStringValueValue:
          CFI Block cfiBlock9 Using cfiCommon0
          CFI Function HalLcdWriteStringValueValue
        CODE
//  448                                   uint16 value2, uint8 format2, uint8 line )
//  449 {
        FUNCALL HalLcdWriteStringValueValue, osal_strlen
        LOCFRAME ISTACK, 0, STACK
        LOCFRAME PSTACK, 0, STACK
        LOCFRAME XSTACK, 40, STACK
        LOCFRAME IOVERLAY, 0, STATIC
        LOCFRAME DOVERLAY, 0, STATIC
        ARGFRAME ISTACK, 0, STACK
        ARGFRAME PSTACK, 0, STACK
        ARGFRAME XSTACK, 40, STACK
        ARGFRAME IOVERLAY, 0, STATIC
        ARGFRAME DOVERLAY, 0, STATIC
        FUNCALL HalLcdWriteStringValueValue, osal_memcpy
        LOCFRAME ISTACK, 0, STACK
        LOCFRAME PSTACK, 0, STACK
        LOCFRAME XSTACK, 43, STACK
        LOCFRAME IOVERLAY, 0, STATIC
        LOCFRAME DOVERLAY, 0, STATIC
        ARGFRAME ISTACK, 0, STACK
        ARGFRAME PSTACK, 0, STACK
        ARGFRAME XSTACK, 43, STACK
        ARGFRAME IOVERLAY, 0, STATIC
        ARGFRAME DOVERLAY, 0, STATIC
        FUNCALL HalLcdWriteStringValueValue, _ltoa
        LOCFRAME ISTACK, 0, STACK
        LOCFRAME PSTACK, 0, STACK
        LOCFRAME XSTACK, 42, STACK
        LOCFRAME IOVERLAY, 0, STATIC
        LOCFRAME DOVERLAY, 0, STATIC
        ARGFRAME ISTACK, 0, STACK
        ARGFRAME PSTACK, 0, STACK
        ARGFRAME XSTACK, 42, STACK
        ARGFRAME IOVERLAY, 0, STATIC
        ARGFRAME DOVERLAY, 0, STATIC
        FUNCALL HalLcdWriteStringValueValue, osal_strlen
        LOCFRAME ISTACK, 0, STACK
        LOCFRAME PSTACK, 0, STACK
        LOCFRAME XSTACK, 40, STACK
        LOCFRAME IOVERLAY, 0, STATIC
        LOCFRAME DOVERLAY, 0, STATIC
        ARGFRAME ISTACK, 0, STACK
        ARGFRAME PSTACK, 0, STACK
        ARGFRAME XSTACK, 40, STACK
        ARGFRAME IOVERLAY, 0, STATIC
        ARGFRAME DOVERLAY, 0, STATIC
        FUNCALL HalLcdWriteStringValueValue, _ltoa
        LOCFRAME ISTACK, 0, STACK
        LOCFRAME PSTACK, 0, STACK
        LOCFRAME XSTACK, 42, STACK
        LOCFRAME IOVERLAY, 0, STATIC
        LOCFRAME DOVERLAY, 0, STATIC
        ARGFRAME ISTACK, 0, STACK
        ARGFRAME PSTACK, 0, STACK
        ARGFRAME XSTACK, 42, STACK
        ARGFRAME IOVERLAY, 0, STATIC
        ARGFRAME DOVERLAY, 0, STATIC
        FUNCALL HalLcdWriteStringValueValue, HalLcdWriteString
        LOCFRAME ISTACK, 0, STACK
        LOCFRAME PSTACK, 0, STACK
        LOCFRAME XSTACK, 40, STACK
        LOCFRAME IOVERLAY, 0, STATIC
        LOCFRAME DOVERLAY, 0, STATIC
        ARGFRAME ISTACK, 0, STACK
        ARGFRAME PSTACK, 0, STACK
        ARGFRAME XSTACK, 40, STACK
        ARGFRAME IOVERLAY, 0, STATIC
        ARGFRAME DOVERLAY, 0, STATIC
        REQUIRE ?V0
        REQUIRE ?V1
        REQUIRE ?V2
        REQUIRE ?V3
        REQUIRE ?V4
        REQUIRE ?V5
        REQUIRE ?V6
        MOV       A,#-0xf
        LCALL     ?BANKED_ENTER_XDATA
          CFI DPH0 load(1, XDATA, add(CFA_XSP16, literal(-1)))
          CFI DPL0 load(1, XDATA, add(CFA_XSP16, literal(-2)))
          CFI ?BRET_EXT load(1, XDATA, add(CFA_XSP16, literal(-3)))
          CFI ?RET_HIGH load(1, XDATA, add(CFA_XSP16, literal(-4)))
          CFI ?RET_LOW load(1, XDATA, add(CFA_XSP16, literal(-5)))
          CFI R7 load(1, XDATA, add(CFA_XSP16, literal(-6)))
          CFI V6 load(1, XDATA, add(CFA_XSP16, literal(-7)))
          CFI V5 load(1, XDATA, add(CFA_XSP16, literal(-8)))
          CFI V4 load(1, XDATA, add(CFA_XSP16, literal(-9)))
          CFI V3 load(1, XDATA, add(CFA_XSP16, literal(-10)))
          CFI V2 load(1, XDATA, add(CFA_XSP16, literal(-11)))
          CFI V1 load(1, XDATA, add(CFA_XSP16, literal(-12)))
          CFI V0 load(1, XDATA, add(CFA_XSP16, literal(-13)))
          CFI VB load(1, XDATA, add(CFA_XSP16, literal(-14)))
          CFI R6 load(1, XDATA, add(CFA_XSP16, literal(-15)))
          CFI CFA_SP SP+0
          CFI CFA_XSP16 add(XSP16, 15)
        ; Saved register size: 15
        ; Auto size: 25
        MOV       A,#-0x19
        LCALL     ?ALLOC_XSTACK8
          CFI CFA_XSP16 add(XSP16, 40)
        MOV       A,R2
        MOV       R6,A
        MOV       A,R3
        MOV       R7,A
        MOV       ?V2,R4
        MOV       ?V3,R5
        MOV       ?V1,R1
//  450 #if (HAL_LCD == TRUE)
//  451 
//  452   uint8 tmpLen;
//  453   uint8 buf[LCD_MAX_BUF];
//  454   uint32 err;
//  455 
//  456   tmpLen = (uint8)osal_strlen( (char*)title );
        ; Setup parameters for call to function osal_strlen
        LCALL     `??osal_strlen::?relay`; Banked call to: osal_strlen
        MOV       A,R2
        MOV       ?V0,A
//  457   if ( tmpLen )
        JZ        ??HalLcdWriteStringValueValue_0
//  458   {
//  459     osal_memcpy( buf, title, tmpLen );
        ; Setup parameters for call to function osal_memcpy
        MOV       ?V4,R6
        MOV       ?V5,R7
        MOV       ?V6,#0x0
        MOV       R0,#?V4
        LCALL     ?PUSH_XSTACK_I_THREE
          CFI CFA_XSP16 add(XSP16, 43)
        MOV       R4,?V0
        MOV       R5,#0x0
        MOV       A,#0x3
        LCALL     ?XSTACK_DISP101_8
        LCALL     `??osal_memcpy::?relay`; Banked call to: osal_memcpy
        MOV       A,#0x3
        LCALL     ?DEALLOC_XSTACK8
          CFI CFA_XSP16 add(XSP16, 40)
//  460     //buf[tmpLen++] = ' ';
//  461   }
//  462 
//  463   err = (uint32)(value1);
//  464   _ltoa( err, &buf[tmpLen], format1 );
??HalLcdWriteStringValueValue_0:
        ; Setup parameters for call to function _ltoa
        MOV       R0,?V0
        LCALL     ?Subroutine11 & 0xFFFF
??CrossCallReturnLabel_14:
        LCALL     ?PUSH_XSTACK_I_TWO
          CFI CFA_XSP16 add(XSP16, 42)
        MOV       R1,?V1
        MOV       R2,?V2
        MOV       R3,?V3
        CLR       A
        MOV       R4,A
        MOV       R5,A
        LCALL     `??_ltoa::?relay`; Banked call to: _ltoa
        MOV       A,#0x2
        LCALL     ?DEALLOC_XSTACK8
          CFI CFA_XSP16 add(XSP16, 40)
//  465   tmpLen = (uint8)osal_strlen( (char*)buf );
        ; Setup parameters for call to function osal_strlen
        MOV       R2,?XSP + 0
        MOV       R3,?XSP + 1
        LCALL     `??osal_strlen::?relay`; Banked call to: osal_strlen
        MOV       A,R2
        MOV       ?V0,A
//  466 
//  467   buf[tmpLen++] = ',';
        MOV       R0,A
        MOV       DPL,?XSP + 0
        MOV       DPH,?XSP + 1
        MOV       A,DPL
        ADD       A,R2
        MOV       DPL,A
        CLR       A
        ADDC      A,DPH
        MOV       DPH,A
        MOV       A,#0x2c
        LCALL     ?Subroutine10 & 0xFFFF
//  468   buf[tmpLen++] = ' ';
??CrossCallReturnLabel_11:
        MOV       DPL,A
        CLR       A
        ADDC      A,DPH
        MOV       DPH,A
        MOV       A,#0x20
        LCALL     ?Subroutine10 & 0xFFFF
//  469   err = (uint32)(value2);
//  470   _ltoa( err, &buf[tmpLen], format2 );
??CrossCallReturnLabel_12:
        MOV       ?V2,A
        CLR       A
        ADDC      A,DPH
        MOV       ?V3,A
        MOV       R0,#?V2
        LCALL     ?PUSH_XSTACK_I_TWO
          CFI CFA_XSP16 add(XSP16, 42)
        MOV       A,#0x2c
        LCALL     ?XSTACK_DISP0_8
        MOVX      A,@DPTR
        MOV       R1,A
        MOV       A,#0x2a
        LCALL     ?XSTACK_DISP0_8
        MOVX      A,@DPTR
        MOV       ?V2,A
        INC       DPTR
        MOVX      A,@DPTR
        MOV       R2,?V2
        MOV       R3,A
        CLR       A
        MOV       R4,A
        MOV       R5,A
        LCALL     `??_ltoa::?relay`; Banked call to: _ltoa
        MOV       A,#0x2
        LCALL     ?DEALLOC_XSTACK8
          CFI CFA_XSP16 add(XSP16, 40)
//  471 
//  472   HalLcdWriteString( (char *)buf, line );		
        ; Setup parameters for call to function HalLcdWriteString
        MOV       A,#0x2b
        LJMP      ?Subroutine3 & 0xFFFF
//  473 
//  474 #endif
//  475 }
          CFI EndBlock cfiBlock9

        RSEG BANKED_CODE:HUGECODE:NOROOT(0)
?Subroutine11:
          CFI Block cfiCond10 Using cfiCommon0
          CFI Function HalLcdWriteStringValue
          CFI Conditional ??CrossCallReturnLabel_13
          CFI R6 load(1, XDATA, add(CFA_XSP16, literal(-15)))
          CFI VB load(1, XDATA, add(CFA_XSP16, literal(-14)))
          CFI V0 load(1, XDATA, add(CFA_XSP16, literal(-13)))
          CFI V1 load(1, XDATA, add(CFA_XSP16, literal(-12)))
          CFI V2 load(1, XDATA, add(CFA_XSP16, literal(-11)))
          CFI V3 load(1, XDATA, add(CFA_XSP16, literal(-10)))
          CFI V4 load(1, XDATA, add(CFA_XSP16, literal(-9)))
          CFI V5 load(1, XDATA, add(CFA_XSP16, literal(-8)))
          CFI V6 load(1, XDATA, add(CFA_XSP16, literal(-7)))
          CFI R7 load(1, XDATA, add(CFA_XSP16, literal(-6)))
          CFI ?RET_LOW load(1, XDATA, add(CFA_XSP16, literal(-5)))
          CFI ?RET_HIGH load(1, XDATA, add(CFA_XSP16, literal(-4)))
          CFI ?BRET_EXT load(1, XDATA, add(CFA_XSP16, literal(-3)))
          CFI DPL0 load(1, XDATA, add(CFA_XSP16, literal(-2)))
          CFI DPH0 load(1, XDATA, add(CFA_XSP16, literal(-1)))
          CFI CFA_SP SP+-2
          CFI CFA_XSP16 add(XSP16, 40)
          CFI Block cfiCond11 Using cfiCommon0
          CFI (cfiCond11) Function HalLcdWriteStringValueValue
          CFI (cfiCond11) Conditional ??CrossCallReturnLabel_14
          CFI (cfiCond11) R6 load(1, XDATA, add(CFA_XSP16, literal(-15)))
          CFI (cfiCond11) VB load(1, XDATA, add(CFA_XSP16, literal(-14)))
          CFI (cfiCond11) V0 load(1, XDATA, add(CFA_XSP16, literal(-13)))
          CFI (cfiCond11) V1 load(1, XDATA, add(CFA_XSP16, literal(-12)))
          CFI (cfiCond11) V2 load(1, XDATA, add(CFA_XSP16, literal(-11)))
          CFI (cfiCond11) V3 load(1, XDATA, add(CFA_XSP16, literal(-10)))
          CFI (cfiCond11) V4 load(1, XDATA, add(CFA_XSP16, literal(-9)))
          CFI (cfiCond11) V5 load(1, XDATA, add(CFA_XSP16, literal(-8)))
          CFI (cfiCond11) V6 load(1, XDATA, add(CFA_XSP16, literal(-7)))
          CFI (cfiCond11) R7 load(1, XDATA, add(CFA_XSP16, literal(-6)))
          CFI (cfiCond11) ?RET_LOW load(1, XDATA, add(CFA_XSP16, literal(-5)))
          CFI (cfiCond11) ?RET_HIGH load(1, XDATA, add(CFA_XSP16, literal(-4)))
          CFI (cfiCond11) ?BRET_EXT load(1, XDATA, add(CFA_XSP16, literal(-3)))
          CFI (cfiCond11) DPL0 load(1, XDATA, add(CFA_XSP16, literal(-2)))
          CFI (cfiCond11) DPH0 load(1, XDATA, add(CFA_XSP16, literal(-1)))
          CFI (cfiCond11) CFA_SP SP+-2
          CFI (cfiCond11) CFA_XSP16 add(XSP16, 40)
          CFI Block cfiPicker12 Using cfiCommon1
          CFI (cfiPicker12) NoFunction
          CFI (cfiPicker12) Picker
        MOV       DPL,?XSP + 0
        MOV       DPH,?XSP + 1
        MOV       A,DPL
        ADD       A,R0
        MOV       ?V4,A
        CLR       A
        ADDC      A,DPH
        MOV       ?V5,A
        MOV       R0,#?V4
        RET
          CFI EndBlock cfiCond10
          CFI EndBlock cfiCond11
          CFI EndBlock cfiPicker12

        RSEG BANKED_CODE:HUGECODE:NOROOT(0)
?Subroutine10:
          CFI Block cfiCond13 Using cfiCommon0
          CFI Function HalLcdWriteStringValueValue
          CFI Conditional ??CrossCallReturnLabel_11
          CFI R6 load(1, XDATA, add(CFA_XSP16, literal(-15)))
          CFI VB load(1, XDATA, add(CFA_XSP16, literal(-14)))
          CFI V0 load(1, XDATA, add(CFA_XSP16, literal(-13)))
          CFI V1 load(1, XDATA, add(CFA_XSP16, literal(-12)))
          CFI V2 load(1, XDATA, add(CFA_XSP16, literal(-11)))
          CFI V3 load(1, XDATA, add(CFA_XSP16, literal(-10)))
          CFI V4 load(1, XDATA, add(CFA_XSP16, literal(-9)))
          CFI V5 load(1, XDATA, add(CFA_XSP16, literal(-8)))
          CFI V6 load(1, XDATA, add(CFA_XSP16, literal(-7)))
          CFI R7 load(1, XDATA, add(CFA_XSP16, literal(-6)))
          CFI ?RET_LOW load(1, XDATA, add(CFA_XSP16, literal(-5)))
          CFI ?RET_HIGH load(1, XDATA, add(CFA_XSP16, literal(-4)))
          CFI ?BRET_EXT load(1, XDATA, add(CFA_XSP16, literal(-3)))
          CFI DPL0 load(1, XDATA, add(CFA_XSP16, literal(-2)))
          CFI DPH0 load(1, XDATA, add(CFA_XSP16, literal(-1)))
          CFI CFA_SP SP+-2
          CFI CFA_XSP16 add(XSP16, 40)
          CFI Block cfiCond14 Using cfiCommon0
          CFI (cfiCond14) Function HalLcdWriteStringValueValue
          CFI (cfiCond14) Conditional ??CrossCallReturnLabel_12
          CFI (cfiCond14) R6 load(1, XDATA, add(CFA_XSP16, literal(-15)))
          CFI (cfiCond14) VB load(1, XDATA, add(CFA_XSP16, literal(-14)))
          CFI (cfiCond14) V0 load(1, XDATA, add(CFA_XSP16, literal(-13)))
          CFI (cfiCond14) V1 load(1, XDATA, add(CFA_XSP16, literal(-12)))
          CFI (cfiCond14) V2 load(1, XDATA, add(CFA_XSP16, literal(-11)))
          CFI (cfiCond14) V3 load(1, XDATA, add(CFA_XSP16, literal(-10)))
          CFI (cfiCond14) V4 load(1, XDATA, add(CFA_XSP16, literal(-9)))
          CFI (cfiCond14) V5 load(1, XDATA, add(CFA_XSP16, literal(-8)))
          CFI (cfiCond14) V6 load(1, XDATA, add(CFA_XSP16, literal(-7)))
          CFI (cfiCond14) R7 load(1, XDATA, add(CFA_XSP16, literal(-6)))
          CFI (cfiCond14) ?RET_LOW load(1, XDATA, add(CFA_XSP16, literal(-5)))
          CFI (cfiCond14) ?RET_HIGH load(1, XDATA, add(CFA_XSP16, literal(-4)))
          CFI (cfiCond14) ?BRET_EXT load(1, XDATA, add(CFA_XSP16, literal(-3)))
          CFI (cfiCond14) DPL0 load(1, XDATA, add(CFA_XSP16, literal(-2)))
          CFI (cfiCond14) DPH0 load(1, XDATA, add(CFA_XSP16, literal(-1)))
          CFI (cfiCond14) CFA_SP SP+-2
          CFI (cfiCond14) CFA_XSP16 add(XSP16, 40)
          CFI Block cfiPicker15 Using cfiCommon1
          CFI (cfiPicker15) NoFunction
          CFI (cfiPicker15) Picker
        MOVX      @DPTR,A
        ; Setup parameters for call to function _ltoa
        INC       R0
        MOV       DPL,?XSP + 0
        MOV       DPH,?XSP + 1
        MOV       A,DPL
        ADD       A,R0
        RET
          CFI EndBlock cfiCond13
          CFI EndBlock cfiCond14
          CFI EndBlock cfiPicker15
//  476 
//  477 #if (HAL_LCD == TRUE)

        RSEG BANKED_CODE:HUGECODE:NOROOT(0)
//  478 void DelayMS(unsigned int msec)
DelayMS:
          CFI Block cfiBlock16 Using cfiCommon0
          CFI Function DelayMS
        CODE
//  479 { 
        ; Saved register size: 0
        ; Auto size: 0
        SJMP      ??DelayMS_0
//  480   unsigned int i;
//  481   while(msec >0)
//  482   {
//  483     for (i=0; i<8000; i++) asm("NOP"); //1ms
??DelayMS_1:
        MOV       R0,#0x40
        MOV       R1,#0x1f
??DelayMS_2:
        NOP
        MOV       A,R0
        ADD       A,#-0x1
        DEC       R0
        MOV       A,R1
        ADDC      A,#-0x1
        MOV       R1,A
        MOV       A,R0
        ORL       A,R1
        JNZ       ??DelayMS_2
//  484     msec--;
        MOV       A,R2
        ADD       A,#-0x1
        DEC       R2
        MOV       A,R3
        ADDC      A,#-0x1
        MOV       R3,A
//  485   }  
??DelayMS_0:
        MOV       A,R2
        ORL       A,R3
        JNZ       ??DelayMS_1
//  486 }
        LJMP      ?BRET
          CFI EndBlock cfiBlock16
//  487 
//  488 //option 1=第1行  2=第2行 其它类推

        RSEG BANKED_CODE:HUGECODE:NOROOT(0)
//  489 void HalLcdWriteString (char *s, uint8 option)
HalLcdWriteString:
          CFI Block cfiBlock17 Using cfiCommon0
          CFI Function HalLcdWriteString
        CODE
//  490 {  
        FUNCALL HalLcdWriteString, DrawRectFill
        LOCFRAME ISTACK, 0, STACK
        LOCFRAME PSTACK, 0, STACK
        LOCFRAME XSTACK, 18, STACK
        LOCFRAME IOVERLAY, 0, STATIC
        LOCFRAME DOVERLAY, 0, STATIC
        ARGFRAME ISTACK, 0, STACK
        ARGFRAME PSTACK, 0, STACK
        ARGFRAME XSTACK, 18, STACK
        ARGFRAME IOVERLAY, 0, STATIC
        ARGFRAME DOVERLAY, 0, STATIC
        FUNCALL HalLcdWriteString, LCD_write_EN_string
        LOCFRAME ISTACK, 0, STACK
        LOCFRAME PSTACK, 0, STACK
        LOCFRAME XSTACK, 12, STACK
        LOCFRAME IOVERLAY, 0, STATIC
        LOCFRAME DOVERLAY, 0, STATIC
        ARGFRAME ISTACK, 0, STACK
        ARGFRAME PSTACK, 0, STACK
        ARGFRAME XSTACK, 12, STACK
        ARGFRAME IOVERLAY, 0, STATIC
        ARGFRAME DOVERLAY, 0, STATIC
        REQUIRE ?V0
        REQUIRE ?V2
        REQUIRE ?V3
        MOV       A,#-0xc
        LCALL     ?BANKED_ENTER_XDATA
          CFI DPH0 load(1, XDATA, add(CFA_XSP16, literal(-1)))
          CFI DPL0 load(1, XDATA, add(CFA_XSP16, literal(-2)))
          CFI ?BRET_EXT load(1, XDATA, add(CFA_XSP16, literal(-3)))
          CFI ?RET_HIGH load(1, XDATA, add(CFA_XSP16, literal(-4)))
          CFI ?RET_LOW load(1, XDATA, add(CFA_XSP16, literal(-5)))
          CFI R7 load(1, XDATA, add(CFA_XSP16, literal(-6)))
          CFI V3 load(1, XDATA, add(CFA_XSP16, literal(-7)))
          CFI V2 load(1, XDATA, add(CFA_XSP16, literal(-8)))
          CFI V1 load(1, XDATA, add(CFA_XSP16, literal(-9)))
          CFI V0 load(1, XDATA, add(CFA_XSP16, literal(-10)))
          CFI VB load(1, XDATA, add(CFA_XSP16, literal(-11)))
          CFI R6 load(1, XDATA, add(CFA_XSP16, literal(-12)))
          CFI CFA_SP SP+0
          CFI CFA_XSP16 add(XSP16, 12)
        ; Saved register size: 12
        ; Auto size: 0
        MOV       A,R2
        MOV       R6,A
        MOV       A,R3
        MOV       R7,A
        MOV       ?V0,R1
//  491   Color = BLUE;
        MOV       DPTR,#Color
        MOV       A,#0x1f
        MOVX      @DPTR,A
        INC       DPTR
        CLR       A
        MOVX      @DPTR,A
//  492   Color_BK = WHITE; 
        MOV       DPTR,#Color_BK
        MOV       A,#-0x1
        MOVX      @DPTR,A
        INC       DPTR
        MOVX      @DPTR,A
//  493   DrawRectFill(7,option*15+20,118,15,WHITE); 
        ; Setup parameters for call to function DrawRectFill
        MOV       ?V2,A
        MOV       ?V3,A
        MOV       R0,#?V2
        LCALL     ?PUSH_XSTACK_I_TWO
          CFI CFA_XSP16 add(XSP16, 14)
        MOV       ?V2,#0xf
        MOV       ?V3,#0x0
        MOV       R0,#?V2
        LCALL     ?PUSH_XSTACK_I_TWO
          CFI CFA_XSP16 add(XSP16, 16)
        MOV       ?V2,#0x76
        MOV       R0,#?V2
        LCALL     ?PUSH_XSTACK_I_TWO
          CFI CFA_XSP16 add(XSP16, 18)
        MOV       A,R1
        MOV       B,#0xf
        MUL       AB
        MOV       R1,B
        ADD       A,#0x14
        MOV       R4,A
        CLR       A
        ADDC      A,R1
        MOV       R5,A
        MOV       R2,#0x7
        MOV       R3,#0x0
        LCALL     `??DrawRectFill::?relay`; Banked call to: DrawRectFill
        MOV       A,#0x6
        LCALL     ?DEALLOC_XSTACK8
          CFI CFA_XSP16 add(XSP16, 12)
//  494   LCD_write_EN_string(7,option*15+20,(unsigned char *)s);
        ; Setup parameters for call to function LCD_write_EN_string
        MOV       A,R6
        MOV       R4,A
        MOV       A,R7
        MOV       R5,A
        MOV       B,#0xf
        MOV       A,?V0
        MUL       AB
        ADD       A,#0x14
        MOV       R2,A
        MOV       R1,#0x7
        LCALL     `??LCD_write_EN_string::?relay`; Banked call to: LCD_write_EN_string
//  495 }
        SJMP      ??Subroutine13_0
          CFI EndBlock cfiBlock17

        RSEG BANKED_CODE:HUGECODE:NOROOT(0)
?Subroutine4:
          CFI Block cfiBlock18 Using cfiCommon0
          CFI NoFunction
          CFI CFA_SP SP+0
          CFI CFA_XSP16 add(XSP16, 12)
          CFI VB load(1, XDATA, add(CFA_XSP16, literal(-11)))
          CFI DPL0 load(1, XDATA, add(CFA_XSP16, literal(-2)))
          CFI DPH0 load(1, XDATA, add(CFA_XSP16, literal(-1)))
          CFI R6 load(1, XDATA, add(CFA_XSP16, literal(-12)))
          CFI R7 load(1, XDATA, add(CFA_XSP16, literal(-6)))
          CFI V0 load(1, XDATA, add(CFA_XSP16, literal(-10)))
          CFI V1 load(1, XDATA, add(CFA_XSP16, literal(-9)))
          CFI V2 load(1, XDATA, add(CFA_XSP16, literal(-8)))
          CFI V3 load(1, XDATA, add(CFA_XSP16, literal(-7)))
          CFI ?BRET_EXT load(1, XDATA, add(CFA_XSP16, literal(-3)))
          CFI ?RET_HIGH load(1, XDATA, add(CFA_XSP16, literal(-4)))
          CFI ?RET_LOW load(1, XDATA, add(CFA_XSP16, literal(-5)))
        SETB      0x80.0
          CFI EndBlock cfiBlock18
        REQUIRE ??Subroutine13_0
        ; // Fall through to label ??Subroutine13_0

        RSEG BANKED_CODE:HUGECODE:NOROOT(0)
??Subroutine13_0:
          CFI Block cfiBlock19 Using cfiCommon0
          CFI NoFunction
          CFI CFA_SP SP+0
          CFI CFA_XSP16 add(XSP16, 12)
          CFI VB load(1, XDATA, add(CFA_XSP16, literal(-11)))
          CFI DPL0 load(1, XDATA, add(CFA_XSP16, literal(-2)))
          CFI DPH0 load(1, XDATA, add(CFA_XSP16, literal(-1)))
          CFI R6 load(1, XDATA, add(CFA_XSP16, literal(-12)))
          CFI R7 load(1, XDATA, add(CFA_XSP16, literal(-6)))
          CFI V0 load(1, XDATA, add(CFA_XSP16, literal(-10)))
          CFI V1 load(1, XDATA, add(CFA_XSP16, literal(-9)))
          CFI V2 load(1, XDATA, add(CFA_XSP16, literal(-8)))
          CFI V3 load(1, XDATA, add(CFA_XSP16, literal(-7)))
          CFI ?BRET_EXT load(1, XDATA, add(CFA_XSP16, literal(-3)))
          CFI ?RET_HIGH load(1, XDATA, add(CFA_XSP16, literal(-4)))
          CFI ?RET_LOW load(1, XDATA, add(CFA_XSP16, literal(-5)))
        MOV       R7,#0x4
        LJMP      ?BANKED_LEAVE_XDATA
          CFI EndBlock cfiBlock19
//  496 
//  497 //向SPI总线传输一个8位数据

        RSEG BANKED_CODE:HUGECODE:NOROOT(0)
//  498 void SendByte(unsigned char Data)
SendByte:
          CFI Block cfiBlock20 Using cfiCommon0
          CFI Function SendByte
        CODE
//  499 {
        ; Saved register size: 0
        ; Auto size: 0
//  500   unsigned char i=0;
//  501   
//  502   for(i=8;i>0;i--)
        MOV       R0,#0x8
//  503   {
//  504     if(Data&0x80)	
??SendByte_0:
        MOV       A,R1
        MOV       C,0xE0 /* A   */.7
        JNC       ??SendByte_1
//  505       LCD_SDA_SET;//输出数据
        SETB      0x90.3
        SJMP      ??SendByte_2
//  506     else 
//  507       LCD_SDA_CLR;
??SendByte_1:
        CLR       0x90.3
//  508     
//  509     LCD_SCL_CLR;       
??SendByte_2:
        CLR       0x90.2
//  510     LCD_SCL_SET;
        SETB      0x90.2
//  511     Data<<=1; 
        CLR       C
        RLC       A
        MOV       R1,A
//  512   }
        DEC       R0
        MOV       A,R0
        JNZ       ??SendByte_0
//  513 }
        LJMP      ?BRET
          CFI EndBlock cfiBlock20
        REQUIRE _A_P1
//  514 
//  515 //向SPI总线传输一个8位数据

        RSEG BANKED_CODE:HUGECODE:NOROOT(0)
//  516 void  SPI_WriteData(unsigned char Data)
SPI_WriteData:
          CFI Block cfiBlock21 Using cfiCommon0
          CFI Function SPI_WriteData
        CODE
//  517 {
        ; Saved register size: 0
        ; Auto size: 0
//  518   unsigned char i=0;
//  519   
//  520   for(i=8;i>0;i--)
        MOV       R0,#0x8
//  521   {
//  522     if(Data&0x80)	
??SPI_WriteData_0:
        MOV       A,R1
        MOV       C,0xE0 /* A   */.7
        JNC       ??SPI_WriteData_1
//  523       LCD_SDA_SET;//输出数据
        SETB      0x90.3
        SJMP      ??SPI_WriteData_2
//  524     else 
//  525       LCD_SDA_CLR;
??SPI_WriteData_1:
        CLR       0x90.3
//  526     
//  527     LCD_SCL_CLR;       
??SPI_WriteData_2:
        CLR       0x90.2
//  528     LCD_SCL_SET;
        SETB      0x90.2
//  529     Data<<=1; 
        CLR       C
        RLC       A
        MOV       R1,A
//  530   }
        DEC       R0
        MOV       A,R0
        JNZ       ??SPI_WriteData_0
//  531 }
        LJMP      ?BRET
          CFI EndBlock cfiBlock21
        REQUIRE _A_P1
//  532 
//  533 //向液晶屏写一个8位指令

        RSEG BANKED_CODE:HUGECODE:NOROOT(0)
//  534 void LCD_WrCmd(unsigned char Index)
LCD_WrCmd:
          CFI Block cfiBlock22 Using cfiCommon0
          CFI Function LCD_WrCmd
        CODE
//  535 { 
        FUNCALL LCD_WrCmd, SPI_WriteData
        LOCFRAME ISTACK, 0, STACK
        LOCFRAME PSTACK, 0, STACK
        LOCFRAME XSTACK, 9, STACK
        LOCFRAME IOVERLAY, 0, STATIC
        LOCFRAME DOVERLAY, 0, STATIC
        ARGFRAME ISTACK, 0, STACK
        ARGFRAME PSTACK, 0, STACK
        ARGFRAME XSTACK, 9, STACK
        ARGFRAME IOVERLAY, 0, STATIC
        ARGFRAME DOVERLAY, 0, STATIC
        MOV       A,#-0x9
        LCALL     ?BANKED_ENTER_XDATA
          CFI DPH0 load(1, XDATA, add(CFA_XSP16, literal(-1)))
          CFI DPL0 load(1, XDATA, add(CFA_XSP16, literal(-2)))
          CFI ?BRET_EXT load(1, XDATA, add(CFA_XSP16, literal(-3)))
          CFI ?RET_HIGH load(1, XDATA, add(CFA_XSP16, literal(-4)))
          CFI ?RET_LOW load(1, XDATA, add(CFA_XSP16, literal(-5)))
          CFI R7 load(1, XDATA, add(CFA_XSP16, literal(-6)))
          CFI V0 load(1, XDATA, add(CFA_XSP16, literal(-7)))
          CFI VB load(1, XDATA, add(CFA_XSP16, literal(-8)))
          CFI R6 load(1, XDATA, add(CFA_XSP16, literal(-9)))
          CFI CFA_SP SP+0
          CFI CFA_XSP16 add(XSP16, 9)
        ; Saved register size: 9
        ; Auto size: 0
//  536   //LCD_CS_CLR;  //ALD del  SPI写命令时序开始
//  537   LCD_DC_CLR;
        CLR       0x80.0
//  538   SPI_WriteData(Index);
        ; Setup parameters for call to function SPI_WriteData
        LJMP      ?Subroutine2 & 0xFFFF
          CFI EndBlock cfiBlock22
        REQUIRE _A_P0
//  539   //LCD_CS_SET;  //ALD del
//  540 }
//  541 
//  542 //向液晶屏写一个8位数据

        RSEG BANKED_CODE:HUGECODE:NOROOT(0)
//  543 void LCD_WrDat(unsigned char Data)
LCD_WrDat:
          CFI Block cfiBlock23 Using cfiCommon0
          CFI Function LCD_WrDat
        CODE
//  544 {
        FUNCALL LCD_WrDat, SPI_WriteData
        LOCFRAME ISTACK, 0, STACK
        LOCFRAME PSTACK, 0, STACK
        LOCFRAME XSTACK, 9, STACK
        LOCFRAME IOVERLAY, 0, STATIC
        LOCFRAME DOVERLAY, 0, STATIC
        ARGFRAME ISTACK, 0, STACK
        ARGFRAME PSTACK, 0, STACK
        ARGFRAME XSTACK, 9, STACK
        ARGFRAME IOVERLAY, 0, STATIC
        ARGFRAME DOVERLAY, 0, STATIC
        MOV       A,#-0x9
        LCALL     ?BANKED_ENTER_XDATA
          CFI DPH0 load(1, XDATA, add(CFA_XSP16, literal(-1)))
          CFI DPL0 load(1, XDATA, add(CFA_XSP16, literal(-2)))
          CFI ?BRET_EXT load(1, XDATA, add(CFA_XSP16, literal(-3)))
          CFI ?RET_HIGH load(1, XDATA, add(CFA_XSP16, literal(-4)))
          CFI ?RET_LOW load(1, XDATA, add(CFA_XSP16, literal(-5)))
          CFI R7 load(1, XDATA, add(CFA_XSP16, literal(-6)))
          CFI V0 load(1, XDATA, add(CFA_XSP16, literal(-7)))
          CFI VB load(1, XDATA, add(CFA_XSP16, literal(-8)))
          CFI R6 load(1, XDATA, add(CFA_XSP16, literal(-9)))
          CFI CFA_SP SP+0
          CFI CFA_XSP16 add(XSP16, 9)
        ; Saved register size: 9
        ; Auto size: 0
//  545   //LCD_CS_CLR;  //ALD del
//  546   LCD_DC_SET;
        SETB      0x80.0
//  547   SPI_WriteData(Data);
        ; Setup parameters for call to function SPI_WriteData
        LJMP      ?Subroutine2 & 0xFFFF
          CFI EndBlock cfiBlock23
        REQUIRE _A_P0
//  548   //LCD_CS_SET;  //ALD del 
//  549 }
//  550 
//  551 //向液晶屏写一个16位数据

        RSEG BANKED_CODE:HUGECODE:NOROOT(0)
//  552 void LCD_WriteData_16Bit(unsigned short Data)
LCD_WriteData_16Bit:
          CFI Block cfiBlock24 Using cfiCommon0
          CFI Function LCD_WriteData_16Bit
        CODE
//  553 {
        FUNCALL LCD_WriteData_16Bit, SPI_WriteData
        LOCFRAME ISTACK, 0, STACK
        LOCFRAME PSTACK, 0, STACK
        LOCFRAME XSTACK, 9, STACK
        LOCFRAME IOVERLAY, 0, STATIC
        LOCFRAME DOVERLAY, 0, STATIC
        ARGFRAME ISTACK, 0, STACK
        ARGFRAME PSTACK, 0, STACK
        ARGFRAME XSTACK, 9, STACK
        ARGFRAME IOVERLAY, 0, STATIC
        ARGFRAME DOVERLAY, 0, STATIC
        FUNCALL LCD_WriteData_16Bit, SPI_WriteData
        LOCFRAME ISTACK, 0, STACK
        LOCFRAME PSTACK, 0, STACK
        LOCFRAME XSTACK, 9, STACK
        LOCFRAME IOVERLAY, 0, STATIC
        LOCFRAME DOVERLAY, 0, STATIC
        ARGFRAME ISTACK, 0, STACK
        ARGFRAME PSTACK, 0, STACK
        ARGFRAME XSTACK, 9, STACK
        ARGFRAME IOVERLAY, 0, STATIC
        ARGFRAME DOVERLAY, 0, STATIC
        MOV       A,#-0x9
        LCALL     ?BANKED_ENTER_XDATA
          CFI DPH0 load(1, XDATA, add(CFA_XSP16, literal(-1)))
          CFI DPL0 load(1, XDATA, add(CFA_XSP16, literal(-2)))
          CFI ?BRET_EXT load(1, XDATA, add(CFA_XSP16, literal(-3)))
          CFI ?RET_HIGH load(1, XDATA, add(CFA_XSP16, literal(-4)))
          CFI ?RET_LOW load(1, XDATA, add(CFA_XSP16, literal(-5)))
          CFI R7 load(1, XDATA, add(CFA_XSP16, literal(-6)))
          CFI V0 load(1, XDATA, add(CFA_XSP16, literal(-7)))
          CFI VB load(1, XDATA, add(CFA_XSP16, literal(-8)))
          CFI R6 load(1, XDATA, add(CFA_XSP16, literal(-9)))
          CFI CFA_SP SP+0
          CFI CFA_XSP16 add(XSP16, 9)
        ; Saved register size: 9
        ; Auto size: 0
        MOV       A,R2
        MOV       R6,A
        MOV       A,R3
//  554   //LCD_CS_CLR;  //ALD del
//  555   LCD_DC_SET;
        SETB      0x80.0
//  556   SPI_WriteData(Data>>8); //写入高8位数据
        ; Setup parameters for call to function SPI_WriteData
        MOV       R1,A
        LCALL     `??SPI_WriteData::?relay`; Banked call to: SPI_WriteData
//  557   SPI_WriteData(Data); 	  //写入低8位数据
        ; Setup parameters for call to function SPI_WriteData
        MOV       A,R6
        MOV       R1,A
        LJMP      ?Subroutine2 & 0xFFFF
          CFI EndBlock cfiBlock24
        REQUIRE _A_P0
//  558   //LCD_CS_SET;  //ALD del 
//  559 }
//  560 
//  561 /****************************************************************************
//  562 * 名    称: LCD_write_byte()
//  563 * 功    能: 数据到LCD 
//  564 * 入口参数: data    ―写入的数据
//  565 *           command ―写数据/命令选择  
//  566 * 出口参数: 无 
//  567 ****************************************************************************/

        RSEG BANKED_CODE:HUGECODE:NOROOT(0)
//  568 static void LCD_write_byte(unsigned char data, unsigned char command)
LCD_write_byte:
          CFI Block cfiBlock25 Using cfiCommon0
          CFI Function LCD_write_byte
        CODE
//  569 {
        FUNCALL LCD_write_byte, LCD_WrCmd
        LOCFRAME ISTACK, 0, STACK
        LOCFRAME PSTACK, 0, STACK
        LOCFRAME XSTACK, 9, STACK
        LOCFRAME IOVERLAY, 0, STATIC
        LOCFRAME DOVERLAY, 0, STATIC
        ARGFRAME ISTACK, 0, STACK
        ARGFRAME PSTACK, 0, STACK
        ARGFRAME XSTACK, 9, STACK
        ARGFRAME IOVERLAY, 0, STATIC
        ARGFRAME DOVERLAY, 0, STATIC
        FUNCALL LCD_write_byte, LCD_WrDat
        LOCFRAME ISTACK, 0, STACK
        LOCFRAME PSTACK, 0, STACK
        LOCFRAME XSTACK, 9, STACK
        LOCFRAME IOVERLAY, 0, STATIC
        LOCFRAME DOVERLAY, 0, STATIC
        ARGFRAME ISTACK, 0, STACK
        ARGFRAME PSTACK, 0, STACK
        ARGFRAME XSTACK, 9, STACK
        ARGFRAME IOVERLAY, 0, STATIC
        ARGFRAME DOVERLAY, 0, STATIC
        MOV       A,#-0x9
        LCALL     ?BANKED_ENTER_XDATA
          CFI DPH0 load(1, XDATA, add(CFA_XSP16, literal(-1)))
          CFI DPL0 load(1, XDATA, add(CFA_XSP16, literal(-2)))
          CFI ?BRET_EXT load(1, XDATA, add(CFA_XSP16, literal(-3)))
          CFI ?RET_HIGH load(1, XDATA, add(CFA_XSP16, literal(-4)))
          CFI ?RET_LOW load(1, XDATA, add(CFA_XSP16, literal(-5)))
          CFI R7 load(1, XDATA, add(CFA_XSP16, literal(-6)))
          CFI V0 load(1, XDATA, add(CFA_XSP16, literal(-7)))
          CFI VB load(1, XDATA, add(CFA_XSP16, literal(-8)))
          CFI R6 load(1, XDATA, add(CFA_XSP16, literal(-9)))
          CFI CFA_SP SP+0
          CFI CFA_XSP16 add(XSP16, 9)
        ; Saved register size: 9
        ; Auto size: 0
        MOV       A,R2
//  570   ////LCD_CS_CLR ;// 使能LCD
//  571   if (command == 0)
        JNZ       ??LCD_write_byte_0
//  572     LCD_WrCmd(data); // 传送命令
        ; Setup parameters for call to function LCD_WrCmd
        LCALL     `??LCD_WrCmd::?relay`; Banked call to: LCD_WrCmd
        SJMP      ??LCD_write_byte_1
//  573   else
//  574     LCD_WrDat(data) ; // 传送数据
??LCD_write_byte_0:
        ; Setup parameters for call to function LCD_WrDat
        LCALL     `??LCD_WrDat::?relay`; Banked call to: LCD_WrDat
//  575   //SendByte(data);
//  576   //LCD_CS_SET; // 关闭LCD
//  577   //LCD_DC_SET;	
//  578 }
??LCD_write_byte_1:
        LJMP      ??Subroutine12_0 & 0xFFFF
          CFI EndBlock cfiBlock25
//  579 
//  580 // 复位lcd

        RSEG BANKED_CODE:HUGECODE:NOROOT(0)
//  581 void Lcd_Reset(void)
Lcd_Reset:
          CFI Block cfiBlock26 Using cfiCommon0
          CFI Function Lcd_Reset
        CODE
//  582 {
        FUNCALL Lcd_Reset, DelayMS
        LOCFRAME ISTACK, 2, STACK
        LOCFRAME PSTACK, 0, STACK
        LOCFRAME XSTACK, 0, STACK
        LOCFRAME IOVERLAY, 0, STATIC
        LOCFRAME DOVERLAY, 0, STATIC
        ARGFRAME ISTACK, 2, STACK
        ARGFRAME PSTACK, 0, STACK
        ARGFRAME XSTACK, 0, STACK
        ARGFRAME IOVERLAY, 0, STATIC
        ARGFRAME DOVERLAY, 0, STATIC
        FUNCALL Lcd_Reset, DelayMS
        LOCFRAME ISTACK, 2, STACK
        LOCFRAME PSTACK, 0, STACK
        LOCFRAME XSTACK, 0, STACK
        LOCFRAME IOVERLAY, 0, STATIC
        LOCFRAME DOVERLAY, 0, STATIC
        ARGFRAME ISTACK, 2, STACK
        ARGFRAME PSTACK, 0, STACK
        ARGFRAME XSTACK, 0, STACK
        ARGFRAME IOVERLAY, 0, STATIC
        ARGFRAME DOVERLAY, 0, STATIC
        PUSH      DPL
          CFI DPL0 Frame(CFA_SP, 4)
          CFI CFA_SP SP+-4
        PUSH      DPH
          CFI DPH0 Frame(CFA_SP, 5)
          CFI CFA_SP SP+-5
        ; Saved register size: 2
        ; Auto size: 0
//  583   LCD_RST_CLR;
        CLR       0x90.7
//  584   DelayMS(110);
        ; Setup parameters for call to function DelayMS
        MOV       R2,#0x6e
        MOV       R3,#0x0
        LCALL     `??DelayMS::?relay`; Banked call to: DelayMS
//  585   LCD_RST_SET;
        SETB      0x90.7
//  586   DelayMS(50);
        ; Setup parameters for call to function DelayMS
        MOV       R2,#0x32
        MOV       R3,#0x0
        LCALL     `??DelayMS::?relay`; Banked call to: DelayMS
//  587 }
        LJMP      ?Subroutine0 & 0xFFFF
          CFI EndBlock cfiBlock26
        REQUIRE _A_P1
//  588 
//  589 /****************************************************************************
//  590 * 名    称: LCD_set_window()
//  591 * 功    能: 设置显示窗口
//  592 * 入口参数: X - 显示窗口左上角横坐标      Y ―显示窗口左上角纵坐标
//  593 *           Width ―显示窗口宽度          Height ―显示窗口高度
//  594 * 出口参数: 无
//  595 ****************************************************************************/

        RSEG BANKED_CODE:HUGECODE:NOROOT(0)
//  596 static void LCD_set_window(unsigned int X    , unsigned int Y, 
LCD_set_window:
          CFI Block cfiBlock27 Using cfiCommon0
          CFI Function LCD_set_window
        CODE
//  597                            unsigned int Width, unsigned int Height)
//  598 {
        FUNCALL LCD_set_window, LCD_write_byte
        LOCFRAME ISTACK, 0, STACK
        LOCFRAME PSTACK, 0, STACK
        LOCFRAME XSTACK, 12, STACK
        LOCFRAME IOVERLAY, 0, STATIC
        LOCFRAME DOVERLAY, 0, STATIC
        ARGFRAME ISTACK, 0, STACK
        ARGFRAME PSTACK, 0, STACK
        ARGFRAME XSTACK, 12, STACK
        ARGFRAME IOVERLAY, 0, STATIC
        ARGFRAME DOVERLAY, 0, STATIC
        FUNCALL LCD_set_window, LCD_write_byte
        LOCFRAME ISTACK, 0, STACK
        LOCFRAME PSTACK, 0, STACK
        LOCFRAME XSTACK, 12, STACK
        LOCFRAME IOVERLAY, 0, STATIC
        LOCFRAME DOVERLAY, 0, STATIC
        ARGFRAME ISTACK, 0, STACK
        ARGFRAME PSTACK, 0, STACK
        ARGFRAME XSTACK, 12, STACK
        ARGFRAME IOVERLAY, 0, STATIC
        ARGFRAME DOVERLAY, 0, STATIC
        FUNCALL LCD_set_window, LCD_write_byte
        LOCFRAME ISTACK, 0, STACK
        LOCFRAME PSTACK, 0, STACK
        LOCFRAME XSTACK, 12, STACK
        LOCFRAME IOVERLAY, 0, STATIC
        LOCFRAME DOVERLAY, 0, STATIC
        ARGFRAME ISTACK, 0, STACK
        ARGFRAME PSTACK, 0, STACK
        ARGFRAME XSTACK, 12, STACK
        ARGFRAME IOVERLAY, 0, STATIC
        ARGFRAME DOVERLAY, 0, STATIC
        FUNCALL LCD_set_window, LCD_write_byte
        LOCFRAME ISTACK, 0, STACK
        LOCFRAME PSTACK, 0, STACK
        LOCFRAME XSTACK, 12, STACK
        LOCFRAME IOVERLAY, 0, STATIC
        LOCFRAME DOVERLAY, 0, STATIC
        ARGFRAME ISTACK, 0, STACK
        ARGFRAME PSTACK, 0, STACK
        ARGFRAME XSTACK, 12, STACK
        ARGFRAME IOVERLAY, 0, STATIC
        ARGFRAME DOVERLAY, 0, STATIC
        FUNCALL LCD_set_window, LCD_write_byte
        LOCFRAME ISTACK, 0, STACK
        LOCFRAME PSTACK, 0, STACK
        LOCFRAME XSTACK, 12, STACK
        LOCFRAME IOVERLAY, 0, STATIC
        LOCFRAME DOVERLAY, 0, STATIC
        ARGFRAME ISTACK, 0, STACK
        ARGFRAME PSTACK, 0, STACK
        ARGFRAME XSTACK, 12, STACK
        ARGFRAME IOVERLAY, 0, STATIC
        ARGFRAME DOVERLAY, 0, STATIC
        FUNCALL LCD_set_window, LCD_write_byte
        LOCFRAME ISTACK, 0, STACK
        LOCFRAME PSTACK, 0, STACK
        LOCFRAME XSTACK, 12, STACK
        LOCFRAME IOVERLAY, 0, STATIC
        LOCFRAME DOVERLAY, 0, STATIC
        ARGFRAME ISTACK, 0, STACK
        ARGFRAME PSTACK, 0, STACK
        ARGFRAME XSTACK, 12, STACK
        ARGFRAME IOVERLAY, 0, STATIC
        ARGFRAME DOVERLAY, 0, STATIC
        FUNCALL LCD_set_window, LCD_write_byte
        LOCFRAME ISTACK, 0, STACK
        LOCFRAME PSTACK, 0, STACK
        LOCFRAME XSTACK, 12, STACK
        LOCFRAME IOVERLAY, 0, STATIC
        LOCFRAME DOVERLAY, 0, STATIC
        ARGFRAME ISTACK, 0, STACK
        ARGFRAME PSTACK, 0, STACK
        ARGFRAME XSTACK, 12, STACK
        ARGFRAME IOVERLAY, 0, STATIC
        ARGFRAME DOVERLAY, 0, STATIC
        FUNCALL LCD_set_window, LCD_write_byte
        LOCFRAME ISTACK, 0, STACK
        LOCFRAME PSTACK, 0, STACK
        LOCFRAME XSTACK, 12, STACK
        LOCFRAME IOVERLAY, 0, STATIC
        LOCFRAME DOVERLAY, 0, STATIC
        ARGFRAME ISTACK, 0, STACK
        ARGFRAME PSTACK, 0, STACK
        ARGFRAME XSTACK, 12, STACK
        ARGFRAME IOVERLAY, 0, STATIC
        ARGFRAME DOVERLAY, 0, STATIC
        FUNCALL LCD_set_window, LCD_write_byte
        LOCFRAME ISTACK, 0, STACK
        LOCFRAME PSTACK, 0, STACK
        LOCFRAME XSTACK, 12, STACK
        LOCFRAME IOVERLAY, 0, STATIC
        LOCFRAME DOVERLAY, 0, STATIC
        ARGFRAME ISTACK, 0, STACK
        ARGFRAME PSTACK, 0, STACK
        ARGFRAME XSTACK, 12, STACK
        ARGFRAME IOVERLAY, 0, STATIC
        ARGFRAME DOVERLAY, 0, STATIC
        FUNCALL LCD_set_window, LCD_write_byte
        LOCFRAME ISTACK, 0, STACK
        LOCFRAME PSTACK, 0, STACK
        LOCFRAME XSTACK, 12, STACK
        LOCFRAME IOVERLAY, 0, STATIC
        LOCFRAME DOVERLAY, 0, STATIC
        ARGFRAME ISTACK, 0, STACK
        ARGFRAME PSTACK, 0, STACK
        ARGFRAME XSTACK, 12, STACK
        ARGFRAME IOVERLAY, 0, STATIC
        ARGFRAME DOVERLAY, 0, STATIC
        FUNCALL LCD_set_window, LCD_write_byte
        LOCFRAME ISTACK, 0, STACK
        LOCFRAME PSTACK, 0, STACK
        LOCFRAME XSTACK, 12, STACK
        LOCFRAME IOVERLAY, 0, STATIC
        LOCFRAME DOVERLAY, 0, STATIC
        ARGFRAME ISTACK, 0, STACK
        ARGFRAME PSTACK, 0, STACK
        ARGFRAME XSTACK, 12, STACK
        ARGFRAME IOVERLAY, 0, STATIC
        ARGFRAME DOVERLAY, 0, STATIC
        REQUIRE ?V0
        REQUIRE ?V1
        REQUIRE ?V2
        REQUIRE ?V3
        MOV       A,#-0xc
        LCALL     ?BANKED_ENTER_XDATA
          CFI DPH0 load(1, XDATA, add(CFA_XSP16, literal(-1)))
          CFI DPL0 load(1, XDATA, add(CFA_XSP16, literal(-2)))
          CFI ?BRET_EXT load(1, XDATA, add(CFA_XSP16, literal(-3)))
          CFI ?RET_HIGH load(1, XDATA, add(CFA_XSP16, literal(-4)))
          CFI ?RET_LOW load(1, XDATA, add(CFA_XSP16, literal(-5)))
          CFI R7 load(1, XDATA, add(CFA_XSP16, literal(-6)))
          CFI V3 load(1, XDATA, add(CFA_XSP16, literal(-7)))
          CFI V2 load(1, XDATA, add(CFA_XSP16, literal(-8)))
          CFI V1 load(1, XDATA, add(CFA_XSP16, literal(-9)))
          CFI V0 load(1, XDATA, add(CFA_XSP16, literal(-10)))
          CFI VB load(1, XDATA, add(CFA_XSP16, literal(-11)))
          CFI R6 load(1, XDATA, add(CFA_XSP16, literal(-12)))
          CFI CFA_SP SP+0
          CFI CFA_XSP16 add(XSP16, 12)
        ; Saved register size: 12
        ; Auto size: 0
        MOV       ?V0,R2
        MOV       ?V1,R3
        MOV       A,R4
        MOV       R6,A
        MOV       A,R5
        MOV       R7,A
//  599   LCD_write_byte(0x2A,LCD_COMMAND);         //列地址设置命令
        ; Setup parameters for call to function LCD_write_byte
        MOV       R2,#0x0
        MOV       R1,#0x2a
        LCALL     `??LCD_write_byte::?relay`; Banked call to: LCD_write_byte
//  600   LCD_write_byte(X>>8,LCD_DATA) ;           //设置显示窗口左上角横坐标高位
        ; Setup parameters for call to function LCD_write_byte
        MOV       R2,#0x1
        MOV       R1,?V1
        LCALL     `??LCD_write_byte::?relay`; Banked call to: LCD_write_byte
//  601   LCD_write_byte((X+2)&0xFF,LCD_DATA);      //设置显示窗口左上角横坐标低位 	
        ; Setup parameters for call to function LCD_write_byte
        MOV       R2,#0x1
        MOV       A,?V0
        ADD       A,#0x2
        MOV       R1,A
        LCALL     `??LCD_write_byte::?relay`; Banked call to: LCD_write_byte
        MOV       A,#0xc
        LCALL     ?XSTACK_DISP0_8
        LCALL     ?Subroutine9 & 0xFFFF
//  602   LCD_write_byte((X+Width+1)>>8,LCD_DATA);  //设置宽度高位 	
??CrossCallReturnLabel_8:
        ; Setup parameters for call to function LCD_write_byte
        MOV       R2,#0x1
        MOV       A,?V0
        ADD       A,?V2
        MOV       R0,A
        MOV       A,?V1
        ADDC      A,?V3
        MOV       R1,A
        MOV       A,R0
        ADD       A,R2
        JNC       ??LCD_set_window_0
        INC       R1
??LCD_set_window_0:
        LCALL     `??LCD_write_byte::?relay`; Banked call to: LCD_write_byte
//  603   LCD_write_byte((X+Width+1)&0xFF,LCD_DATA);// 设置宽度低位 	
        ; Setup parameters for call to function LCD_write_byte
        MOV       R2,#0x1
        MOV       A,?V0
        ADD       A,?V2
        ADD       A,R2
        MOV       R1,A
        LCALL     `??LCD_write_byte::?relay`; Banked call to: LCD_write_byte
//  604   
//  605   LCD_write_byte(0x2B,LCD_COMMAND);         //行地址设置命令
        ; Setup parameters for call to function LCD_write_byte
        MOV       R2,#0x0
        MOV       R1,#0x2b
        LCALL     `??LCD_write_byte::?relay`; Banked call to: LCD_write_byte
//  606   LCD_write_byte(Y>>8,LCD_DATA) ;           //设置显示窗口左上角纵坐标高位
        ; Setup parameters for call to function LCD_write_byte
        MOV       R2,#0x1
        MOV       A,R7
        MOV       R1,A
        LCALL     `??LCD_write_byte::?relay`; Banked call to: LCD_write_byte
//  607   LCD_write_byte((Y+3)&0xFF,LCD_DATA);      //设置显示窗口左上角纵坐标低位 
        ; Setup parameters for call to function LCD_write_byte
        MOV       R2,#0x1
        MOV       A,R6
        ADD       A,#0x3
        MOV       R1,A
        LCALL     `??LCD_write_byte::?relay`; Banked call to: LCD_write_byte
        MOV       A,#0xe
        LCALL     ?XSTACK_DISP0_8
        MOVX      A,@DPTR
        MOV       ?V0,A
        INC       DPTR
        MOVX      A,@DPTR
        MOV       ?V1,A
//  608   LCD_write_byte((Y+Height+2)>>8,LCD_DATA); // 设置显示窗口高度高位 	
        ; Setup parameters for call to function LCD_write_byte
        MOV       R2,#0x1
        MOV       A,R6
        ADD       A,?V0
        MOV       R0,A
        MOV       A,R7
        ADDC      A,?V1
        MOV       R1,A
        MOV       A,R0
        ADD       A,#0x2
        JNC       ??LCD_set_window_1
        INC       R1
??LCD_set_window_1:
        LCALL     `??LCD_write_byte::?relay`; Banked call to: LCD_write_byte
//  609   LCD_write_byte((Y+Height+2)&0xFF,LCD_DATA);// 设置显示窗口高度低位 	  
        ; Setup parameters for call to function LCD_write_byte
        MOV       R2,#0x1
        MOV       A,R6
        ADD       A,?V0
        ADD       A,#0x2
        MOV       R1,A
        LCALL     `??LCD_write_byte::?relay`; Banked call to: LCD_write_byte
//  610   LCD_write_byte(0x2C,LCD_COMMAND) ;
        ; Setup parameters for call to function LCD_write_byte
        MOV       R2,#0x0
        MOV       R1,#0x2c
        LCALL     `??LCD_write_byte::?relay`; Banked call to: LCD_write_byte
//  611 }
        LJMP      ??Subroutine13_0 & 0xFFFF
          CFI EndBlock cfiBlock27
//  612 
//  613 /****************************************************************************
//  614 * 名    称: DrawPixel()
//  615 * 功    能: 在指定位置以指定颜色显示像素
//  616 ****************************************************************************/

        RSEG BANKED_CODE:HUGECODE:NOROOT(0)
//  617 void DrawPixel(unsigned int x, unsigned int y, unsigned int color)
DrawPixel:
          CFI Block cfiBlock28 Using cfiCommon0
          CFI Function DrawPixel
        CODE
//  618 {
        FUNCALL DrawPixel, LCD_write_byte
        LOCFRAME ISTACK, 0, STACK
        LOCFRAME PSTACK, 0, STACK
        LOCFRAME XSTACK, 9, STACK
        LOCFRAME IOVERLAY, 0, STATIC
        LOCFRAME DOVERLAY, 0, STATIC
        ARGFRAME ISTACK, 0, STACK
        ARGFRAME PSTACK, 0, STACK
        ARGFRAME XSTACK, 9, STACK
        ARGFRAME IOVERLAY, 0, STATIC
        ARGFRAME DOVERLAY, 0, STATIC
        FUNCALL DrawPixel, LCD_write_byte
        LOCFRAME ISTACK, 0, STACK
        LOCFRAME PSTACK, 0, STACK
        LOCFRAME XSTACK, 9, STACK
        LOCFRAME IOVERLAY, 0, STATIC
        LOCFRAME DOVERLAY, 0, STATIC
        ARGFRAME ISTACK, 0, STACK
        ARGFRAME PSTACK, 0, STACK
        ARGFRAME XSTACK, 9, STACK
        ARGFRAME IOVERLAY, 0, STATIC
        ARGFRAME DOVERLAY, 0, STATIC
        MOV       A,#-0x9
        LCALL     ?BANKED_ENTER_XDATA
          CFI DPH0 load(1, XDATA, add(CFA_XSP16, literal(-1)))
          CFI DPL0 load(1, XDATA, add(CFA_XSP16, literal(-2)))
          CFI ?BRET_EXT load(1, XDATA, add(CFA_XSP16, literal(-3)))
          CFI ?RET_HIGH load(1, XDATA, add(CFA_XSP16, literal(-4)))
          CFI ?RET_LOW load(1, XDATA, add(CFA_XSP16, literal(-5)))
          CFI R7 load(1, XDATA, add(CFA_XSP16, literal(-6)))
          CFI V0 load(1, XDATA, add(CFA_XSP16, literal(-7)))
          CFI VB load(1, XDATA, add(CFA_XSP16, literal(-8)))
          CFI R6 load(1, XDATA, add(CFA_XSP16, literal(-9)))
          CFI CFA_SP SP+0
          CFI CFA_XSP16 add(XSP16, 9)
        ; Saved register size: 9
        ; Auto size: 0
        MOV       A,#0x9
        LCALL     ?XSTACK_DISP0_8
        MOVX      A,@DPTR
        MOV       R6,A
        INC       DPTR
        MOVX      A,@DPTR
//  619   //LCD_set_XY(x,y);  //设定显示位置 andy
//  620   LCD_write_byte(color>>8,LCD_DATA);  //发送显示颜色数据高位字节
        ; Setup parameters for call to function LCD_write_byte
        MOV       R2,#0x1
        MOV       R1,A
        LCALL     `??LCD_write_byte::?relay`; Banked call to: LCD_write_byte
//  621   LCD_write_byte(color&0xFF,LCD_DATA);//发送显示颜色数据低位字节
        ; Setup parameters for call to function LCD_write_byte
        MOV       R2,#0x1
        MOV       A,R6
        MOV       R1,A
        LCALL     `??LCD_write_byte::?relay`; Banked call to: LCD_write_byte
//  622 }
        LJMP      ??Subroutine12_0 & 0xFFFF
          CFI EndBlock cfiBlock28
//  623 
//  624 /****************************************************************************
//  625 * 名    称: DrawVerticalLine()
//  626 * 功    能: 在指定位置以指定颜色画垂直线
//  627 * 入口参数: X - 垂直线起始位置横坐标      Y ―垂直线起始位置纵坐标
//  628 *           Length ―垂直线长度           Color ―垂直线颜色
//  629 * 出口参数: 无
//  630 ****************************************************************************/

        RSEG BANKED_CODE:HUGECODE:NOROOT(0)
//  631 void DrawVerticalLine(unsigned int x, unsigned int y, 
DrawVerticalLine:
          CFI Block cfiBlock29 Using cfiCommon0
          CFI Function DrawVerticalLine
        CODE
//  632                       unsigned int Length,unsigned int Color)               
//  633 {
        FUNCALL DrawVerticalLine, LCD_set_window
        LOCFRAME ISTACK, 0, STACK
        LOCFRAME PSTACK, 0, STACK
        LOCFRAME XSTACK, 20, STACK
        LOCFRAME IOVERLAY, 0, STATIC
        LOCFRAME DOVERLAY, 0, STATIC
        ARGFRAME ISTACK, 0, STACK
        ARGFRAME PSTACK, 0, STACK
        ARGFRAME XSTACK, 20, STACK
        ARGFRAME IOVERLAY, 0, STATIC
        ARGFRAME DOVERLAY, 0, STATIC
        FUNCALL DrawVerticalLine, LCD_write_byte
        LOCFRAME ISTACK, 0, STACK
        LOCFRAME PSTACK, 0, STACK
        LOCFRAME XSTACK, 16, STACK
        LOCFRAME IOVERLAY, 0, STATIC
        LOCFRAME DOVERLAY, 0, STATIC
        ARGFRAME ISTACK, 0, STACK
        ARGFRAME PSTACK, 0, STACK
        ARGFRAME XSTACK, 16, STACK
        ARGFRAME IOVERLAY, 0, STATIC
        ARGFRAME DOVERLAY, 0, STATIC
        FUNCALL DrawVerticalLine, LCD_write_byte
        LOCFRAME ISTACK, 0, STACK
        LOCFRAME PSTACK, 0, STACK
        LOCFRAME XSTACK, 16, STACK
        LOCFRAME IOVERLAY, 0, STATIC
        LOCFRAME DOVERLAY, 0, STATIC
        ARGFRAME ISTACK, 0, STACK
        ARGFRAME PSTACK, 0, STACK
        ARGFRAME XSTACK, 16, STACK
        ARGFRAME IOVERLAY, 0, STATIC
        ARGFRAME DOVERLAY, 0, STATIC
        REQUIRE ?V0
        REQUIRE ?V1
        REQUIRE ?V2
        REQUIRE ?V4
        REQUIRE ?V5
        REQUIRE ?V6
        REQUIRE ?V7
        MOV       A,#-0x10
        LCALL     ?BANKED_ENTER_XDATA
          CFI DPH0 load(1, XDATA, add(CFA_XSP16, literal(-1)))
          CFI DPL0 load(1, XDATA, add(CFA_XSP16, literal(-2)))
          CFI ?BRET_EXT load(1, XDATA, add(CFA_XSP16, literal(-3)))
          CFI ?RET_HIGH load(1, XDATA, add(CFA_XSP16, literal(-4)))
          CFI ?RET_LOW load(1, XDATA, add(CFA_XSP16, literal(-5)))
          CFI R7 load(1, XDATA, add(CFA_XSP16, literal(-6)))
          CFI V7 load(1, XDATA, add(CFA_XSP16, literal(-7)))
          CFI V6 load(1, XDATA, add(CFA_XSP16, literal(-8)))
          CFI V5 load(1, XDATA, add(CFA_XSP16, literal(-9)))
          CFI V4 load(1, XDATA, add(CFA_XSP16, literal(-10)))
          CFI V3 load(1, XDATA, add(CFA_XSP16, literal(-11)))
          CFI V2 load(1, XDATA, add(CFA_XSP16, literal(-12)))
          CFI V1 load(1, XDATA, add(CFA_XSP16, literal(-13)))
          CFI V0 load(1, XDATA, add(CFA_XSP16, literal(-14)))
          CFI VB load(1, XDATA, add(CFA_XSP16, literal(-15)))
          CFI R6 load(1, XDATA, add(CFA_XSP16, literal(-16)))
          CFI CFA_SP SP+0
          CFI CFA_XSP16 add(XSP16, 16)
        ; Saved register size: 16
        ; Auto size: 0
//  634   register int  index = 0;
        MOV       R6,#0x0
        MOV       R7,#0x0
        MOV       A,#0x12
        LCALL     ?XSTACK_DISP0_8
        LCALL     ?Subroutine8 & 0xFFFF
//  635   register char ch,cl;
//  636   
//  637   ch = (unsigned char)(Color>>8);
//  638   cl = (unsigned char)(Color);
??CrossCallReturnLabel_6:
        LCALL     ?XSTACK_DISP0_8
        LCALL     ?Subroutine7 & 0xFFFF
//  639   LCD_set_window(x,y,1,Length);
??CrossCallReturnLabel_2:
        ; Setup parameters for call to function LCD_set_window
        MOV       R0,#?V4
        LCALL     ?PUSH_XSTACK_I_TWO
          CFI CFA_XSP16 add(XSP16, 18)
        MOV       ?V6,#0x1
        MOV       ?V7,R6
        MOV       R0,#?V6
        LCALL     ?PUSH_XSTACK_I_TWO
          CFI CFA_XSP16 add(XSP16, 20)
        LCALL     `??LCD_set_window::?relay`; Banked call to: LCD_set_window
        MOV       A,#0x4
        LCALL     ?DEALLOC_XSTACK8
          CFI CFA_XSP16 add(XSP16, 16)
//  640   for(index=0;index<Length;index++)
        SJMP      ??DrawVerticalLine_0
//  641   {
//  642   LCD_write_byte(ch,LCD_DATA) ;
??DrawVerticalLine_1:
        ; Setup parameters for call to function LCD_write_byte
        MOV       R2,#0x1
        MOV       R1,?V2
        LCALL     `??LCD_write_byte::?relay`; Banked call to: LCD_write_byte
//  643   LCD_write_byte(cl,LCD_DATA) ;
        ; Setup parameters for call to function LCD_write_byte
        MOV       R2,#0x1
        MOV       R1,?V0
        LCALL     `??LCD_write_byte::?relay`; Banked call to: LCD_write_byte
//  644   }
        INC       R6
        MOV       A,R6
        JNZ       ??DrawVerticalLine_0
        INC       R7
??DrawVerticalLine_0:
        CLR       C
        MOV       A,R6
        SUBB      A,?V4
        MOV       A,R7
        SUBB      A,?V5
        JC        ??DrawVerticalLine_1
//  645 }
        LJMP      ?Subroutine5 & 0xFFFF
          CFI EndBlock cfiBlock29
//  646 
//  647 /****************************************************************************
//  648 * 名    称: DrawHorizonLine()
//  649 * 功    能: 在指定位置以指定颜色画水平线
//  650 * 入口参数: X - 水平线起始位置横坐标      Y ―水平线起始位置纵坐标
//  651 *           Length ―水平线长度           Color ―水平线颜色
//  652 * 出口参数: 无
//  653 ****************************************************************************/

        RSEG BANKED_CODE:HUGECODE:NOROOT(0)
//  654 void DrawHorizonLine(unsigned int x, unsigned int y, 
DrawHorizonLine:
          CFI Block cfiBlock30 Using cfiCommon0
          CFI Function DrawHorizonLine
        CODE
//  655                      unsigned int Length,unsigned int Color)               
//  656 {
        FUNCALL DrawHorizonLine, LCD_set_window
        LOCFRAME ISTACK, 0, STACK
        LOCFRAME PSTACK, 0, STACK
        LOCFRAME XSTACK, 20, STACK
        LOCFRAME IOVERLAY, 0, STATIC
        LOCFRAME DOVERLAY, 0, STATIC
        ARGFRAME ISTACK, 0, STACK
        ARGFRAME PSTACK, 0, STACK
        ARGFRAME XSTACK, 20, STACK
        ARGFRAME IOVERLAY, 0, STATIC
        ARGFRAME DOVERLAY, 0, STATIC
        FUNCALL DrawHorizonLine, LCD_write_byte
        LOCFRAME ISTACK, 0, STACK
        LOCFRAME PSTACK, 0, STACK
        LOCFRAME XSTACK, 16, STACK
        LOCFRAME IOVERLAY, 0, STATIC
        LOCFRAME DOVERLAY, 0, STATIC
        ARGFRAME ISTACK, 0, STACK
        ARGFRAME PSTACK, 0, STACK
        ARGFRAME XSTACK, 16, STACK
        ARGFRAME IOVERLAY, 0, STATIC
        ARGFRAME DOVERLAY, 0, STATIC
        FUNCALL DrawHorizonLine, LCD_write_byte
        LOCFRAME ISTACK, 0, STACK
        LOCFRAME PSTACK, 0, STACK
        LOCFRAME XSTACK, 16, STACK
        LOCFRAME IOVERLAY, 0, STATIC
        LOCFRAME DOVERLAY, 0, STATIC
        ARGFRAME ISTACK, 0, STACK
        ARGFRAME PSTACK, 0, STACK
        ARGFRAME XSTACK, 16, STACK
        ARGFRAME IOVERLAY, 0, STATIC
        ARGFRAME DOVERLAY, 0, STATIC
        REQUIRE ?V0
        REQUIRE ?V1
        REQUIRE ?V2
        REQUIRE ?V4
        REQUIRE ?V5
        REQUIRE ?V6
        REQUIRE ?V7
        MOV       A,#-0x10
        LCALL     ?BANKED_ENTER_XDATA
          CFI DPH0 load(1, XDATA, add(CFA_XSP16, literal(-1)))
          CFI DPL0 load(1, XDATA, add(CFA_XSP16, literal(-2)))
          CFI ?BRET_EXT load(1, XDATA, add(CFA_XSP16, literal(-3)))
          CFI ?RET_HIGH load(1, XDATA, add(CFA_XSP16, literal(-4)))
          CFI ?RET_LOW load(1, XDATA, add(CFA_XSP16, literal(-5)))
          CFI R7 load(1, XDATA, add(CFA_XSP16, literal(-6)))
          CFI V7 load(1, XDATA, add(CFA_XSP16, literal(-7)))
          CFI V6 load(1, XDATA, add(CFA_XSP16, literal(-8)))
          CFI V5 load(1, XDATA, add(CFA_XSP16, literal(-9)))
          CFI V4 load(1, XDATA, add(CFA_XSP16, literal(-10)))
          CFI V3 load(1, XDATA, add(CFA_XSP16, literal(-11)))
          CFI V2 load(1, XDATA, add(CFA_XSP16, literal(-12)))
          CFI V1 load(1, XDATA, add(CFA_XSP16, literal(-13)))
          CFI V0 load(1, XDATA, add(CFA_XSP16, literal(-14)))
          CFI VB load(1, XDATA, add(CFA_XSP16, literal(-15)))
          CFI R6 load(1, XDATA, add(CFA_XSP16, literal(-16)))
          CFI CFA_SP SP+0
          CFI CFA_XSP16 add(XSP16, 16)
        ; Saved register size: 16
        ; Auto size: 0
//  657   register int  index = 0;
        MOV       R6,#0x0
        MOV       R7,#0x0
        MOV       A,#0x12
        LCALL     ?XSTACK_DISP0_8
        LCALL     ?Subroutine8 & 0xFFFF
//  658   register char ch,cl;
//  659   
//  660   ch = (unsigned char)(Color>>8);
//  661   cl = (unsigned char)(Color);
??CrossCallReturnLabel_7:
        LCALL     ?XSTACK_DISP0_8
        LCALL     ?Subroutine7 & 0xFFFF
//  662   LCD_set_window(x,y,Length,1);
??CrossCallReturnLabel_3:
        ; Setup parameters for call to function LCD_set_window
        MOV       ?V6,#0x1
        MOV       ?V7,R6
        MOV       R0,#?V6
        LCALL     ?PUSH_XSTACK_I_TWO
          CFI CFA_XSP16 add(XSP16, 18)
        MOV       R0,#?V4
        LCALL     ?PUSH_XSTACK_I_TWO
          CFI CFA_XSP16 add(XSP16, 20)
        LCALL     `??LCD_set_window::?relay`; Banked call to: LCD_set_window
        MOV       A,#0x4
        LCALL     ?DEALLOC_XSTACK8
          CFI CFA_XSP16 add(XSP16, 16)
//  663   for(index=0;index<Length;index++)
        SJMP      ??DrawHorizonLine_0
//  664   {
//  665     LCD_write_byte(ch,LCD_DATA);
??DrawHorizonLine_1:
        ; Setup parameters for call to function LCD_write_byte
        MOV       R2,#0x1
        MOV       R1,?V2
        LCALL     `??LCD_write_byte::?relay`; Banked call to: LCD_write_byte
//  666     LCD_write_byte(cl,LCD_DATA);
        ; Setup parameters for call to function LCD_write_byte
        MOV       R2,#0x1
        MOV       R1,?V0
        LCALL     `??LCD_write_byte::?relay`; Banked call to: LCD_write_byte
//  667   }
        INC       R6
        MOV       A,R6
        JNZ       ??DrawHorizonLine_0
        INC       R7
??DrawHorizonLine_0:
        CLR       C
        MOV       A,R6
        SUBB      A,?V4
        MOV       A,R7
        SUBB      A,?V5
        JC        ??DrawHorizonLine_1
//  668 }
        LJMP      ?Subroutine5 & 0xFFFF
          CFI EndBlock cfiBlock30

        RSEG BANKED_CODE:HUGECODE:NOROOT(0)
?Subroutine8:
          CFI Block cfiCond31 Using cfiCommon0
          CFI Function DrawVerticalLine
          CFI Conditional ??CrossCallReturnLabel_6
          CFI R6 load(1, XDATA, add(CFA_XSP16, literal(-16)))
          CFI VB load(1, XDATA, add(CFA_XSP16, literal(-15)))
          CFI V0 load(1, XDATA, add(CFA_XSP16, literal(-14)))
          CFI V1 load(1, XDATA, add(CFA_XSP16, literal(-13)))
          CFI V2 load(1, XDATA, add(CFA_XSP16, literal(-12)))
          CFI V3 load(1, XDATA, add(CFA_XSP16, literal(-11)))
          CFI V4 load(1, XDATA, add(CFA_XSP16, literal(-10)))
          CFI V5 load(1, XDATA, add(CFA_XSP16, literal(-9)))
          CFI V6 load(1, XDATA, add(CFA_XSP16, literal(-8)))
          CFI V7 load(1, XDATA, add(CFA_XSP16, literal(-7)))
          CFI R7 load(1, XDATA, add(CFA_XSP16, literal(-6)))
          CFI ?RET_LOW load(1, XDATA, add(CFA_XSP16, literal(-5)))
          CFI ?RET_HIGH load(1, XDATA, add(CFA_XSP16, literal(-4)))
          CFI ?BRET_EXT load(1, XDATA, add(CFA_XSP16, literal(-3)))
          CFI DPL0 load(1, XDATA, add(CFA_XSP16, literal(-2)))
          CFI DPH0 load(1, XDATA, add(CFA_XSP16, literal(-1)))
          CFI CFA_SP SP+-2
          CFI CFA_XSP16 add(XSP16, 16)
          CFI Block cfiCond32 Using cfiCommon0
          CFI (cfiCond32) Function DrawHorizonLine
          CFI (cfiCond32) Conditional ??CrossCallReturnLabel_7
          CFI (cfiCond32) R6 load(1, XDATA, add(CFA_XSP16, literal(-16)))
          CFI (cfiCond32) VB load(1, XDATA, add(CFA_XSP16, literal(-15)))
          CFI (cfiCond32) V0 load(1, XDATA, add(CFA_XSP16, literal(-14)))
          CFI (cfiCond32) V1 load(1, XDATA, add(CFA_XSP16, literal(-13)))
          CFI (cfiCond32) V2 load(1, XDATA, add(CFA_XSP16, literal(-12)))
          CFI (cfiCond32) V3 load(1, XDATA, add(CFA_XSP16, literal(-11)))
          CFI (cfiCond32) V4 load(1, XDATA, add(CFA_XSP16, literal(-10)))
          CFI (cfiCond32) V5 load(1, XDATA, add(CFA_XSP16, literal(-9)))
          CFI (cfiCond32) V6 load(1, XDATA, add(CFA_XSP16, literal(-8)))
          CFI (cfiCond32) V7 load(1, XDATA, add(CFA_XSP16, literal(-7)))
          CFI (cfiCond32) R7 load(1, XDATA, add(CFA_XSP16, literal(-6)))
          CFI (cfiCond32) ?RET_LOW load(1, XDATA, add(CFA_XSP16, literal(-5)))
          CFI (cfiCond32) ?RET_HIGH load(1, XDATA, add(CFA_XSP16, literal(-4)))
          CFI (cfiCond32) ?BRET_EXT load(1, XDATA, add(CFA_XSP16, literal(-3)))
          CFI (cfiCond32) DPL0 load(1, XDATA, add(CFA_XSP16, literal(-2)))
          CFI (cfiCond32) DPH0 load(1, XDATA, add(CFA_XSP16, literal(-1)))
          CFI (cfiCond32) CFA_SP SP+-2
          CFI (cfiCond32) CFA_XSP16 add(XSP16, 16)
          CFI Block cfiPicker33 Using cfiCommon1
          CFI (cfiPicker33) NoFunction
          CFI (cfiPicker33) Picker
        MOVX      A,@DPTR
        MOV       ?V0,A
        INC       DPTR
        MOVX      A,@DPTR
        MOV       ?V2,A
        MOV       A,?V0
        MOV       ?V0,A
        MOV       A,#0x10
        RET
          CFI EndBlock cfiCond31
          CFI EndBlock cfiCond32
          CFI EndBlock cfiPicker33
//  669 
//  670 /****************************************************************************
//  671 * 名    称: DrawRect()
//  672 * 功    能: 在指定位置以指定颜色画矩形
//  673 * 入口参数: X - 矩形起始位置横坐标      Y ―矩形起始位置纵坐标
//  674 *           Width  ―矩形宽度           Height ―矩形高度                   
//  675 *           Color  ―矩形颜色             
//  676 * 出口参数: 无
//  677 ****************************************************************************/

        RSEG BANKED_CODE:HUGECODE:NOROOT(0)
//  678 void DrawRect(unsigned int Xpos, unsigned int Ypos, unsigned int Width, 
DrawRect:
          CFI Block cfiBlock34 Using cfiCommon0
          CFI Function DrawRect
        CODE
//  679               unsigned int Height,unsigned Color)
//  680 {
        FUNCALL DrawRect, DrawHorizonLine
        LOCFRAME ISTACK, 0, STACK
        LOCFRAME PSTACK, 0, STACK
        LOCFRAME XSTACK, 20, STACK
        LOCFRAME IOVERLAY, 0, STATIC
        LOCFRAME DOVERLAY, 0, STATIC
        ARGFRAME ISTACK, 0, STACK
        ARGFRAME PSTACK, 0, STACK
        ARGFRAME XSTACK, 20, STACK
        ARGFRAME IOVERLAY, 0, STATIC
        ARGFRAME DOVERLAY, 0, STATIC
        FUNCALL DrawRect, DrawHorizonLine
        LOCFRAME ISTACK, 0, STACK
        LOCFRAME PSTACK, 0, STACK
        LOCFRAME XSTACK, 20, STACK
        LOCFRAME IOVERLAY, 0, STATIC
        LOCFRAME DOVERLAY, 0, STATIC
        ARGFRAME ISTACK, 0, STACK
        ARGFRAME PSTACK, 0, STACK
        ARGFRAME XSTACK, 20, STACK
        ARGFRAME IOVERLAY, 0, STATIC
        ARGFRAME DOVERLAY, 0, STATIC
        FUNCALL DrawRect, DrawVerticalLine
        LOCFRAME ISTACK, 0, STACK
        LOCFRAME PSTACK, 0, STACK
        LOCFRAME XSTACK, 20, STACK
        LOCFRAME IOVERLAY, 0, STATIC
        LOCFRAME DOVERLAY, 0, STATIC
        ARGFRAME ISTACK, 0, STACK
        ARGFRAME PSTACK, 0, STACK
        ARGFRAME XSTACK, 20, STACK
        ARGFRAME IOVERLAY, 0, STATIC
        ARGFRAME DOVERLAY, 0, STATIC
        FUNCALL DrawRect, DrawVerticalLine
        LOCFRAME ISTACK, 0, STACK
        LOCFRAME PSTACK, 0, STACK
        LOCFRAME XSTACK, 20, STACK
        LOCFRAME IOVERLAY, 0, STATIC
        LOCFRAME DOVERLAY, 0, STATIC
        ARGFRAME ISTACK, 0, STACK
        ARGFRAME PSTACK, 0, STACK
        ARGFRAME XSTACK, 20, STACK
        ARGFRAME IOVERLAY, 0, STATIC
        ARGFRAME DOVERLAY, 0, STATIC
        REQUIRE ?V0
        REQUIRE ?V1
        REQUIRE ?V2
        REQUIRE ?V3
        REQUIRE ?V4
        REQUIRE ?V5
        REQUIRE ?V6
        REQUIRE ?V7
        MOV       A,#-0x10
        LCALL     ?BANKED_ENTER_XDATA
          CFI DPH0 load(1, XDATA, add(CFA_XSP16, literal(-1)))
          CFI DPL0 load(1, XDATA, add(CFA_XSP16, literal(-2)))
          CFI ?BRET_EXT load(1, XDATA, add(CFA_XSP16, literal(-3)))
          CFI ?RET_HIGH load(1, XDATA, add(CFA_XSP16, literal(-4)))
          CFI ?RET_LOW load(1, XDATA, add(CFA_XSP16, literal(-5)))
          CFI R7 load(1, XDATA, add(CFA_XSP16, literal(-6)))
          CFI V7 load(1, XDATA, add(CFA_XSP16, literal(-7)))
          CFI V6 load(1, XDATA, add(CFA_XSP16, literal(-8)))
          CFI V5 load(1, XDATA, add(CFA_XSP16, literal(-9)))
          CFI V4 load(1, XDATA, add(CFA_XSP16, literal(-10)))
          CFI V3 load(1, XDATA, add(CFA_XSP16, literal(-11)))
          CFI V2 load(1, XDATA, add(CFA_XSP16, literal(-12)))
          CFI V1 load(1, XDATA, add(CFA_XSP16, literal(-13)))
          CFI V0 load(1, XDATA, add(CFA_XSP16, literal(-14)))
          CFI VB load(1, XDATA, add(CFA_XSP16, literal(-15)))
          CFI R6 load(1, XDATA, add(CFA_XSP16, literal(-16)))
          CFI CFA_SP SP+0
          CFI CFA_XSP16 add(XSP16, 16)
        ; Saved register size: 16
        ; Auto size: 0
        MOV       A,R2
        MOV       R6,A
        MOV       A,R3
        MOV       R7,A
        MOV       ?V0,R4
        MOV       ?V1,R5
        MOV       A,#0x10
        LCALL     ?XSTACK_DISP0_8
        MOVX      A,@DPTR
        MOV       ?V6,A
        INC       DPTR
        MOVX      A,@DPTR
        MOV       ?V7,A
        MOV       A,#0x14
        LCALL     ?XSTACK_DISP0_8
        LCALL     ?Subroutine9 & 0xFFFF
//  681   DrawHorizonLine(Xpos, Ypos, Width, Color) ;
??CrossCallReturnLabel_9:
        ; Setup parameters for call to function DrawHorizonLine
        MOV       R0,#?V2
        LCALL     ?PUSH_XSTACK_I_TWO
          CFI CFA_XSP16 add(XSP16, 18)
        MOV       R0,#?V6
        LCALL     ?PUSH_XSTACK_I_TWO
          CFI CFA_XSP16 add(XSP16, 20)
        LCALL     `??DrawHorizonLine::?relay`; Banked call to: DrawHorizonLine
        MOV       A,#0x4
        LCALL     ?DEALLOC_XSTACK8
          CFI CFA_XSP16 add(XSP16, 16)
        MOV       A,#0x12
        LCALL     ?XSTACK_DISP0_8
        LCALL     ?Subroutine7 & 0xFFFF
//  682   DrawHorizonLine(Xpos, (Ypos + Height), Width, Color) ;
??CrossCallReturnLabel_4:
        ; Setup parameters for call to function DrawHorizonLine
        MOV       R0,#?V2
        LCALL     ?PUSH_XSTACK_I_TWO
          CFI CFA_XSP16 add(XSP16, 18)
        MOV       R0,#?V6
        LCALL     ?PUSH_XSTACK_I_TWO
          CFI CFA_XSP16 add(XSP16, 20)
        MOV       A,?V0
        ADD       A,?V4
        MOV       R4,A
        MOV       A,?V1
        ADDC      A,?V5
        MOV       R5,A
        MOV       A,R6
        MOV       R2,A
        MOV       A,R7
        MOV       R3,A
        LCALL     `??DrawHorizonLine::?relay`; Banked call to: DrawHorizonLine
        MOV       A,#0x4
        LCALL     ?DEALLOC_XSTACK8
          CFI CFA_XSP16 add(XSP16, 16)
//  683   DrawVerticalLine(Xpos, Ypos, Height, Color) ;
        ; Setup parameters for call to function DrawVerticalLine
        MOV       R0,#?V2
        LCALL     ?PUSH_XSTACK_I_TWO
          CFI CFA_XSP16 add(XSP16, 18)
        MOV       R0,#?V4
        LCALL     ?PUSH_XSTACK_I_TWO
          CFI CFA_XSP16 add(XSP16, 20)
        MOV       R4,?V0
        MOV       R5,?V1
        MOV       A,R6
        MOV       R2,A
        MOV       A,R7
        MOV       R3,A
        LCALL     `??DrawVerticalLine::?relay`; Banked call to: DrawVerticalLine
        MOV       A,#0x4
        LCALL     ?DEALLOC_XSTACK8
          CFI CFA_XSP16 add(XSP16, 16)
//  684   DrawVerticalLine((Xpos+Width-1) ,Ypos, Height, Color);
        ; Setup parameters for call to function DrawVerticalLine
        MOV       R0,#?V2
        LCALL     ?PUSH_XSTACK_I_TWO
          CFI CFA_XSP16 add(XSP16, 18)
        MOV       R0,#?V4
        LCALL     ?PUSH_XSTACK_I_TWO
          CFI CFA_XSP16 add(XSP16, 20)
        MOV       R4,?V0
        MOV       R5,?V1
        MOV       A,R6
        ADD       A,?V6
        MOV       R0,A
        MOV       A,R7
        ADDC      A,?V7
        MOV       R1,A
        MOV       A,R0
        ADD       A,#-0x1
        MOV       R2,A
        MOV       A,R1
        ADDC      A,#-0x1
        MOV       R3,A
        LCALL     `??DrawVerticalLine::?relay`; Banked call to: DrawVerticalLine
        MOV       A,#0x4
        LCALL     ?DEALLOC_XSTACK8
//  685 }
          CFI EndBlock cfiBlock34
        REQUIRE ?Subroutine5
        ; // Fall through to label ?Subroutine5

        RSEG BANKED_CODE:HUGECODE:NOROOT(0)
?Subroutine5:
          CFI Block cfiBlock35 Using cfiCommon0
          CFI NoFunction
          CFI CFA_SP SP+0
          CFI CFA_XSP16 add(XSP16, 16)
          CFI VB load(1, XDATA, add(CFA_XSP16, literal(-15)))
          CFI DPL0 load(1, XDATA, add(CFA_XSP16, literal(-2)))
          CFI DPH0 load(1, XDATA, add(CFA_XSP16, literal(-1)))
          CFI R6 load(1, XDATA, add(CFA_XSP16, literal(-16)))
          CFI R7 load(1, XDATA, add(CFA_XSP16, literal(-6)))
          CFI V0 load(1, XDATA, add(CFA_XSP16, literal(-14)))
          CFI V1 load(1, XDATA, add(CFA_XSP16, literal(-13)))
          CFI V2 load(1, XDATA, add(CFA_XSP16, literal(-12)))
          CFI V3 load(1, XDATA, add(CFA_XSP16, literal(-11)))
          CFI V4 load(1, XDATA, add(CFA_XSP16, literal(-10)))
          CFI V5 load(1, XDATA, add(CFA_XSP16, literal(-9)))
          CFI V6 load(1, XDATA, add(CFA_XSP16, literal(-8)))
          CFI V7 load(1, XDATA, add(CFA_XSP16, literal(-7)))
          CFI ?BRET_EXT load(1, XDATA, add(CFA_XSP16, literal(-3)))
          CFI ?RET_HIGH load(1, XDATA, add(CFA_XSP16, literal(-4)))
          CFI ?RET_LOW load(1, XDATA, add(CFA_XSP16, literal(-5)))
        MOV       R7,#0x8
        LJMP      ?BANKED_LEAVE_XDATA
          CFI EndBlock cfiBlock35

        RSEG BANKED_CODE:HUGECODE:NOROOT(0)
?Subroutine9:
          CFI Block cfiCond36 Using cfiCommon0
          CFI Function LCD_set_window
          CFI Conditional ??CrossCallReturnLabel_8
          CFI R6 load(1, XDATA, add(CFA_XSP16, literal(-12)))
          CFI VB load(1, XDATA, add(CFA_XSP16, literal(-11)))
          CFI V0 load(1, XDATA, add(CFA_XSP16, literal(-10)))
          CFI V1 load(1, XDATA, add(CFA_XSP16, literal(-9)))
          CFI V2 load(1, XDATA, add(CFA_XSP16, literal(-8)))
          CFI V3 load(1, XDATA, add(CFA_XSP16, literal(-7)))
          CFI R7 load(1, XDATA, add(CFA_XSP16, literal(-6)))
          CFI ?RET_LOW load(1, XDATA, add(CFA_XSP16, literal(-5)))
          CFI ?RET_HIGH load(1, XDATA, add(CFA_XSP16, literal(-4)))
          CFI ?BRET_EXT load(1, XDATA, add(CFA_XSP16, literal(-3)))
          CFI DPL0 load(1, XDATA, add(CFA_XSP16, literal(-2)))
          CFI DPH0 load(1, XDATA, add(CFA_XSP16, literal(-1)))
          CFI CFA_SP SP+-2
          CFI CFA_XSP16 add(XSP16, 12)
          CFI Block cfiCond37 Using cfiCommon0
          CFI (cfiCond37) Function DrawRect
          CFI (cfiCond37) Conditional ??CrossCallReturnLabel_9
          CFI (cfiCond37) R6 load(1, XDATA, add(CFA_XSP16, literal(-16)))
          CFI (cfiCond37) VB load(1, XDATA, add(CFA_XSP16, literal(-15)))
          CFI (cfiCond37) V0 load(1, XDATA, add(CFA_XSP16, literal(-14)))
          CFI (cfiCond37) V1 load(1, XDATA, add(CFA_XSP16, literal(-13)))
          CFI (cfiCond37) V2 load(1, XDATA, add(CFA_XSP16, literal(-12)))
          CFI (cfiCond37) V3 load(1, XDATA, add(CFA_XSP16, literal(-11)))
          CFI (cfiCond37) V4 load(1, XDATA, add(CFA_XSP16, literal(-10)))
          CFI (cfiCond37) V5 load(1, XDATA, add(CFA_XSP16, literal(-9)))
          CFI (cfiCond37) V6 load(1, XDATA, add(CFA_XSP16, literal(-8)))
          CFI (cfiCond37) V7 load(1, XDATA, add(CFA_XSP16, literal(-7)))
          CFI (cfiCond37) R7 load(1, XDATA, add(CFA_XSP16, literal(-6)))
          CFI (cfiCond37) ?RET_LOW load(1, XDATA, add(CFA_XSP16, literal(-5)))
          CFI (cfiCond37) ?RET_HIGH load(1, XDATA, add(CFA_XSP16, literal(-4)))
          CFI (cfiCond37) ?BRET_EXT load(1, XDATA, add(CFA_XSP16, literal(-3)))
          CFI (cfiCond37) DPL0 load(1, XDATA, add(CFA_XSP16, literal(-2)))
          CFI (cfiCond37) DPH0 load(1, XDATA, add(CFA_XSP16, literal(-1)))
          CFI (cfiCond37) CFA_SP SP+-2
          CFI (cfiCond37) CFA_XSP16 add(XSP16, 16)
          CFI Block cfiCond38 Using cfiCommon0
          CFI (cfiCond38) Function DrawRectFill
          CFI (cfiCond38) Conditional ??CrossCallReturnLabel_10
          CFI (cfiCond38) R6 load(1, XDATA, add(CFA_XSP16, literal(-16)))
          CFI (cfiCond38) VB load(1, XDATA, add(CFA_XSP16, literal(-15)))
          CFI (cfiCond38) V0 load(1, XDATA, add(CFA_XSP16, literal(-14)))
          CFI (cfiCond38) V1 load(1, XDATA, add(CFA_XSP16, literal(-13)))
          CFI (cfiCond38) V2 load(1, XDATA, add(CFA_XSP16, literal(-12)))
          CFI (cfiCond38) V3 load(1, XDATA, add(CFA_XSP16, literal(-11)))
          CFI (cfiCond38) V4 load(1, XDATA, add(CFA_XSP16, literal(-10)))
          CFI (cfiCond38) V5 load(1, XDATA, add(CFA_XSP16, literal(-9)))
          CFI (cfiCond38) V6 load(1, XDATA, add(CFA_XSP16, literal(-8)))
          CFI (cfiCond38) V7 load(1, XDATA, add(CFA_XSP16, literal(-7)))
          CFI (cfiCond38) R7 load(1, XDATA, add(CFA_XSP16, literal(-6)))
          CFI (cfiCond38) ?RET_LOW load(1, XDATA, add(CFA_XSP16, literal(-5)))
          CFI (cfiCond38) ?RET_HIGH load(1, XDATA, add(CFA_XSP16, literal(-4)))
          CFI (cfiCond38) ?BRET_EXT load(1, XDATA, add(CFA_XSP16, literal(-3)))
          CFI (cfiCond38) DPL0 load(1, XDATA, add(CFA_XSP16, literal(-2)))
          CFI (cfiCond38) DPH0 load(1, XDATA, add(CFA_XSP16, literal(-1)))
          CFI (cfiCond38) CFA_SP SP+-2
          CFI (cfiCond38) CFA_XSP16 add(XSP16, 16)
          CFI Block cfiPicker39 Using cfiCommon1
          CFI (cfiPicker39) NoFunction
          CFI (cfiPicker39) Picker
        MOVX      A,@DPTR
        MOV       ?V2,A
        INC       DPTR
        MOVX      A,@DPTR
        MOV       ?V3,A
        RET
          CFI EndBlock cfiCond36
          CFI EndBlock cfiCond37
          CFI EndBlock cfiCond38
          CFI EndBlock cfiPicker39

        RSEG BANKED_CODE:HUGECODE:NOROOT(0)
?Subroutine7:
          CFI Block cfiCond40 Using cfiCommon0
          CFI Function DrawVerticalLine
          CFI Conditional ??CrossCallReturnLabel_2
          CFI R6 load(1, XDATA, add(CFA_XSP16, literal(-16)))
          CFI VB load(1, XDATA, add(CFA_XSP16, literal(-15)))
          CFI V0 load(1, XDATA, add(CFA_XSP16, literal(-14)))
          CFI V1 load(1, XDATA, add(CFA_XSP16, literal(-13)))
          CFI V2 load(1, XDATA, add(CFA_XSP16, literal(-12)))
          CFI V3 load(1, XDATA, add(CFA_XSP16, literal(-11)))
          CFI V4 load(1, XDATA, add(CFA_XSP16, literal(-10)))
          CFI V5 load(1, XDATA, add(CFA_XSP16, literal(-9)))
          CFI V6 load(1, XDATA, add(CFA_XSP16, literal(-8)))
          CFI V7 load(1, XDATA, add(CFA_XSP16, literal(-7)))
          CFI R7 load(1, XDATA, add(CFA_XSP16, literal(-6)))
          CFI ?RET_LOW load(1, XDATA, add(CFA_XSP16, literal(-5)))
          CFI ?RET_HIGH load(1, XDATA, add(CFA_XSP16, literal(-4)))
          CFI ?BRET_EXT load(1, XDATA, add(CFA_XSP16, literal(-3)))
          CFI DPL0 load(1, XDATA, add(CFA_XSP16, literal(-2)))
          CFI DPH0 load(1, XDATA, add(CFA_XSP16, literal(-1)))
          CFI CFA_SP SP+-2
          CFI CFA_XSP16 add(XSP16, 16)
          CFI Block cfiCond41 Using cfiCommon0
          CFI (cfiCond41) Function DrawHorizonLine
          CFI (cfiCond41) Conditional ??CrossCallReturnLabel_3
          CFI (cfiCond41) R6 load(1, XDATA, add(CFA_XSP16, literal(-16)))
          CFI (cfiCond41) VB load(1, XDATA, add(CFA_XSP16, literal(-15)))
          CFI (cfiCond41) V0 load(1, XDATA, add(CFA_XSP16, literal(-14)))
          CFI (cfiCond41) V1 load(1, XDATA, add(CFA_XSP16, literal(-13)))
          CFI (cfiCond41) V2 load(1, XDATA, add(CFA_XSP16, literal(-12)))
          CFI (cfiCond41) V3 load(1, XDATA, add(CFA_XSP16, literal(-11)))
          CFI (cfiCond41) V4 load(1, XDATA, add(CFA_XSP16, literal(-10)))
          CFI (cfiCond41) V5 load(1, XDATA, add(CFA_XSP16, literal(-9)))
          CFI (cfiCond41) V6 load(1, XDATA, add(CFA_XSP16, literal(-8)))
          CFI (cfiCond41) V7 load(1, XDATA, add(CFA_XSP16, literal(-7)))
          CFI (cfiCond41) R7 load(1, XDATA, add(CFA_XSP16, literal(-6)))
          CFI (cfiCond41) ?RET_LOW load(1, XDATA, add(CFA_XSP16, literal(-5)))
          CFI (cfiCond41) ?RET_HIGH load(1, XDATA, add(CFA_XSP16, literal(-4)))
          CFI (cfiCond41) ?BRET_EXT load(1, XDATA, add(CFA_XSP16, literal(-3)))
          CFI (cfiCond41) DPL0 load(1, XDATA, add(CFA_XSP16, literal(-2)))
          CFI (cfiCond41) DPH0 load(1, XDATA, add(CFA_XSP16, literal(-1)))
          CFI (cfiCond41) CFA_SP SP+-2
          CFI (cfiCond41) CFA_XSP16 add(XSP16, 16)
          CFI Block cfiCond42 Using cfiCommon0
          CFI (cfiCond42) Function DrawRect
          CFI (cfiCond42) Conditional ??CrossCallReturnLabel_4
          CFI (cfiCond42) R6 load(1, XDATA, add(CFA_XSP16, literal(-16)))
          CFI (cfiCond42) VB load(1, XDATA, add(CFA_XSP16, literal(-15)))
          CFI (cfiCond42) V0 load(1, XDATA, add(CFA_XSP16, literal(-14)))
          CFI (cfiCond42) V1 load(1, XDATA, add(CFA_XSP16, literal(-13)))
          CFI (cfiCond42) V2 load(1, XDATA, add(CFA_XSP16, literal(-12)))
          CFI (cfiCond42) V3 load(1, XDATA, add(CFA_XSP16, literal(-11)))
          CFI (cfiCond42) V4 load(1, XDATA, add(CFA_XSP16, literal(-10)))
          CFI (cfiCond42) V5 load(1, XDATA, add(CFA_XSP16, literal(-9)))
          CFI (cfiCond42) V6 load(1, XDATA, add(CFA_XSP16, literal(-8)))
          CFI (cfiCond42) V7 load(1, XDATA, add(CFA_XSP16, literal(-7)))
          CFI (cfiCond42) R7 load(1, XDATA, add(CFA_XSP16, literal(-6)))
          CFI (cfiCond42) ?RET_LOW load(1, XDATA, add(CFA_XSP16, literal(-5)))
          CFI (cfiCond42) ?RET_HIGH load(1, XDATA, add(CFA_XSP16, literal(-4)))
          CFI (cfiCond42) ?BRET_EXT load(1, XDATA, add(CFA_XSP16, literal(-3)))
          CFI (cfiCond42) DPL0 load(1, XDATA, add(CFA_XSP16, literal(-2)))
          CFI (cfiCond42) DPH0 load(1, XDATA, add(CFA_XSP16, literal(-1)))
          CFI (cfiCond42) CFA_SP SP+-2
          CFI (cfiCond42) CFA_XSP16 add(XSP16, 16)
          CFI Block cfiCond43 Using cfiCommon0
          CFI (cfiCond43) Function DrawRectFill
          CFI (cfiCond43) Conditional ??CrossCallReturnLabel_5
          CFI (cfiCond43) R6 load(1, XDATA, add(CFA_XSP16, literal(-16)))
          CFI (cfiCond43) VB load(1, XDATA, add(CFA_XSP16, literal(-15)))
          CFI (cfiCond43) V0 load(1, XDATA, add(CFA_XSP16, literal(-14)))
          CFI (cfiCond43) V1 load(1, XDATA, add(CFA_XSP16, literal(-13)))
          CFI (cfiCond43) V2 load(1, XDATA, add(CFA_XSP16, literal(-12)))
          CFI (cfiCond43) V3 load(1, XDATA, add(CFA_XSP16, literal(-11)))
          CFI (cfiCond43) V4 load(1, XDATA, add(CFA_XSP16, literal(-10)))
          CFI (cfiCond43) V5 load(1, XDATA, add(CFA_XSP16, literal(-9)))
          CFI (cfiCond43) V6 load(1, XDATA, add(CFA_XSP16, literal(-8)))
          CFI (cfiCond43) V7 load(1, XDATA, add(CFA_XSP16, literal(-7)))
          CFI (cfiCond43) R7 load(1, XDATA, add(CFA_XSP16, literal(-6)))
          CFI (cfiCond43) ?RET_LOW load(1, XDATA, add(CFA_XSP16, literal(-5)))
          CFI (cfiCond43) ?RET_HIGH load(1, XDATA, add(CFA_XSP16, literal(-4)))
          CFI (cfiCond43) ?BRET_EXT load(1, XDATA, add(CFA_XSP16, literal(-3)))
          CFI (cfiCond43) DPL0 load(1, XDATA, add(CFA_XSP16, literal(-2)))
          CFI (cfiCond43) DPH0 load(1, XDATA, add(CFA_XSP16, literal(-1)))
          CFI (cfiCond43) CFA_SP SP+-2
          CFI (cfiCond43) CFA_XSP16 add(XSP16, 16)
          CFI Block cfiPicker44 Using cfiCommon1
          CFI (cfiPicker44) NoFunction
          CFI (cfiPicker44) Picker
        MOVX      A,@DPTR
        MOV       ?V4,A
        INC       DPTR
        MOVX      A,@DPTR
        MOV       ?V5,A
        RET
          CFI EndBlock cfiCond40
          CFI EndBlock cfiCond41
          CFI EndBlock cfiCond42
          CFI EndBlock cfiCond43
          CFI EndBlock cfiPicker44
//  686 
//  687 /****************************************************************************
//  688 * 名    称: DrawRectFill()
//  689 * 功    能: 在指定位置以指定颜色画矩形
//  690 * 入口参数: X - 矩形起始位置横坐标      Y ―矩形起始位置纵坐标
//  691 *           Width  ―矩形宽度           Height ―矩形高度                   
//  692 *           Color  ―矩形填充颜色             
//  693 * 出口参数: 无
//  694 ****************************************************************************/

        RSEG BANKED_CODE:HUGECODE:NOROOT(0)
//  695 void DrawRectFill(unsigned int Xpos  , unsigned int Ypos, unsigned int Width, 
DrawRectFill:
          CFI Block cfiBlock45 Using cfiCommon0
          CFI Function DrawRectFill
        CODE
//  696                   unsigned int Height, unsigned Color                        )
//  697 {
        FUNCALL DrawRectFill, LCD_set_window
        LOCFRAME ISTACK, 0, STACK
        LOCFRAME PSTACK, 0, STACK
        LOCFRAME XSTACK, 20, STACK
        LOCFRAME IOVERLAY, 0, STATIC
        LOCFRAME DOVERLAY, 0, STATIC
        ARGFRAME ISTACK, 0, STACK
        ARGFRAME PSTACK, 0, STACK
        ARGFRAME XSTACK, 20, STACK
        ARGFRAME IOVERLAY, 0, STATIC
        ARGFRAME DOVERLAY, 0, STATIC
        FUNCALL DrawRectFill, LCD_write_byte
        LOCFRAME ISTACK, 0, STACK
        LOCFRAME PSTACK, 0, STACK
        LOCFRAME XSTACK, 16, STACK
        LOCFRAME IOVERLAY, 0, STATIC
        LOCFRAME DOVERLAY, 0, STATIC
        ARGFRAME ISTACK, 0, STACK
        ARGFRAME PSTACK, 0, STACK
        ARGFRAME XSTACK, 16, STACK
        ARGFRAME IOVERLAY, 0, STATIC
        ARGFRAME DOVERLAY, 0, STATIC
        FUNCALL DrawRectFill, SendByte
        LOCFRAME ISTACK, 0, STACK
        LOCFRAME PSTACK, 0, STACK
        LOCFRAME XSTACK, 16, STACK
        LOCFRAME IOVERLAY, 0, STATIC
        LOCFRAME DOVERLAY, 0, STATIC
        ARGFRAME ISTACK, 0, STACK
        ARGFRAME PSTACK, 0, STACK
        ARGFRAME XSTACK, 16, STACK
        ARGFRAME IOVERLAY, 0, STATIC
        ARGFRAME DOVERLAY, 0, STATIC
        FUNCALL DrawRectFill, SendByte
        LOCFRAME ISTACK, 0, STACK
        LOCFRAME PSTACK, 0, STACK
        LOCFRAME XSTACK, 16, STACK
        LOCFRAME IOVERLAY, 0, STATIC
        LOCFRAME DOVERLAY, 0, STATIC
        ARGFRAME ISTACK, 0, STACK
        ARGFRAME PSTACK, 0, STACK
        ARGFRAME XSTACK, 16, STACK
        ARGFRAME IOVERLAY, 0, STATIC
        ARGFRAME DOVERLAY, 0, STATIC
        FUNCALL DrawRectFill, SendByte
        LOCFRAME ISTACK, 0, STACK
        LOCFRAME PSTACK, 0, STACK
        LOCFRAME XSTACK, 16, STACK
        LOCFRAME IOVERLAY, 0, STATIC
        LOCFRAME DOVERLAY, 0, STATIC
        ARGFRAME ISTACK, 0, STACK
        ARGFRAME PSTACK, 0, STACK
        ARGFRAME XSTACK, 16, STACK
        ARGFRAME IOVERLAY, 0, STATIC
        ARGFRAME DOVERLAY, 0, STATIC
        FUNCALL DrawRectFill, SendByte
        LOCFRAME ISTACK, 0, STACK
        LOCFRAME PSTACK, 0, STACK
        LOCFRAME XSTACK, 16, STACK
        LOCFRAME IOVERLAY, 0, STATIC
        LOCFRAME DOVERLAY, 0, STATIC
        ARGFRAME ISTACK, 0, STACK
        ARGFRAME PSTACK, 0, STACK
        ARGFRAME XSTACK, 16, STACK
        ARGFRAME IOVERLAY, 0, STATIC
        ARGFRAME DOVERLAY, 0, STATIC
        FUNCALL DrawRectFill, SendByte
        LOCFRAME ISTACK, 0, STACK
        LOCFRAME PSTACK, 0, STACK
        LOCFRAME XSTACK, 16, STACK
        LOCFRAME IOVERLAY, 0, STATIC
        LOCFRAME DOVERLAY, 0, STATIC
        ARGFRAME ISTACK, 0, STACK
        ARGFRAME PSTACK, 0, STACK
        ARGFRAME XSTACK, 16, STACK
        ARGFRAME IOVERLAY, 0, STATIC
        ARGFRAME DOVERLAY, 0, STATIC
        FUNCALL DrawRectFill, SendByte
        LOCFRAME ISTACK, 0, STACK
        LOCFRAME PSTACK, 0, STACK
        LOCFRAME XSTACK, 16, STACK
        LOCFRAME IOVERLAY, 0, STATIC
        LOCFRAME DOVERLAY, 0, STATIC
        ARGFRAME ISTACK, 0, STACK
        ARGFRAME PSTACK, 0, STACK
        ARGFRAME XSTACK, 16, STACK
        ARGFRAME IOVERLAY, 0, STATIC
        ARGFRAME DOVERLAY, 0, STATIC
        FUNCALL DrawRectFill, SendByte
        LOCFRAME ISTACK, 0, STACK
        LOCFRAME PSTACK, 0, STACK
        LOCFRAME XSTACK, 16, STACK
        LOCFRAME IOVERLAY, 0, STATIC
        LOCFRAME DOVERLAY, 0, STATIC
        ARGFRAME ISTACK, 0, STACK
        ARGFRAME PSTACK, 0, STACK
        ARGFRAME XSTACK, 16, STACK
        ARGFRAME IOVERLAY, 0, STATIC
        ARGFRAME DOVERLAY, 0, STATIC
        FUNCALL DrawRectFill, SendByte
        LOCFRAME ISTACK, 0, STACK
        LOCFRAME PSTACK, 0, STACK
        LOCFRAME XSTACK, 16, STACK
        LOCFRAME IOVERLAY, 0, STATIC
        LOCFRAME DOVERLAY, 0, STATIC
        ARGFRAME ISTACK, 0, STACK
        ARGFRAME PSTACK, 0, STACK
        ARGFRAME XSTACK, 16, STACK
        ARGFRAME IOVERLAY, 0, STATIC
        ARGFRAME DOVERLAY, 0, STATIC
        FUNCALL DrawRectFill, SendByte
        LOCFRAME ISTACK, 0, STACK
        LOCFRAME PSTACK, 0, STACK
        LOCFRAME XSTACK, 16, STACK
        LOCFRAME IOVERLAY, 0, STATIC
        LOCFRAME DOVERLAY, 0, STATIC
        ARGFRAME ISTACK, 0, STACK
        ARGFRAME PSTACK, 0, STACK
        ARGFRAME XSTACK, 16, STACK
        ARGFRAME IOVERLAY, 0, STATIC
        ARGFRAME DOVERLAY, 0, STATIC
        FUNCALL DrawRectFill, SendByte
        LOCFRAME ISTACK, 0, STACK
        LOCFRAME PSTACK, 0, STACK
        LOCFRAME XSTACK, 16, STACK
        LOCFRAME IOVERLAY, 0, STATIC
        LOCFRAME DOVERLAY, 0, STATIC
        ARGFRAME ISTACK, 0, STACK
        ARGFRAME PSTACK, 0, STACK
        ARGFRAME XSTACK, 16, STACK
        ARGFRAME IOVERLAY, 0, STATIC
        ARGFRAME DOVERLAY, 0, STATIC
        FUNCALL DrawRectFill, SendByte
        LOCFRAME ISTACK, 0, STACK
        LOCFRAME PSTACK, 0, STACK
        LOCFRAME XSTACK, 16, STACK
        LOCFRAME IOVERLAY, 0, STATIC
        LOCFRAME DOVERLAY, 0, STATIC
        ARGFRAME ISTACK, 0, STACK
        ARGFRAME PSTACK, 0, STACK
        ARGFRAME XSTACK, 16, STACK
        ARGFRAME IOVERLAY, 0, STATIC
        ARGFRAME DOVERLAY, 0, STATIC
        FUNCALL DrawRectFill, SendByte
        LOCFRAME ISTACK, 0, STACK
        LOCFRAME PSTACK, 0, STACK
        LOCFRAME XSTACK, 16, STACK
        LOCFRAME IOVERLAY, 0, STATIC
        LOCFRAME DOVERLAY, 0, STATIC
        ARGFRAME ISTACK, 0, STACK
        ARGFRAME PSTACK, 0, STACK
        ARGFRAME XSTACK, 16, STACK
        ARGFRAME IOVERLAY, 0, STATIC
        ARGFRAME DOVERLAY, 0, STATIC
        FUNCALL DrawRectFill, SendByte
        LOCFRAME ISTACK, 0, STACK
        LOCFRAME PSTACK, 0, STACK
        LOCFRAME XSTACK, 16, STACK
        LOCFRAME IOVERLAY, 0, STATIC
        LOCFRAME DOVERLAY, 0, STATIC
        ARGFRAME ISTACK, 0, STACK
        ARGFRAME PSTACK, 0, STACK
        ARGFRAME XSTACK, 16, STACK
        ARGFRAME IOVERLAY, 0, STATIC
        ARGFRAME DOVERLAY, 0, STATIC
        FUNCALL DrawRectFill, SendByte
        LOCFRAME ISTACK, 0, STACK
        LOCFRAME PSTACK, 0, STACK
        LOCFRAME XSTACK, 16, STACK
        LOCFRAME IOVERLAY, 0, STATIC
        LOCFRAME DOVERLAY, 0, STATIC
        ARGFRAME ISTACK, 0, STACK
        ARGFRAME PSTACK, 0, STACK
        ARGFRAME XSTACK, 16, STACK
        ARGFRAME IOVERLAY, 0, STATIC
        ARGFRAME DOVERLAY, 0, STATIC
        FUNCALL DrawRectFill, SendByte
        LOCFRAME ISTACK, 0, STACK
        LOCFRAME PSTACK, 0, STACK
        LOCFRAME XSTACK, 16, STACK
        LOCFRAME IOVERLAY, 0, STATIC
        LOCFRAME DOVERLAY, 0, STATIC
        ARGFRAME ISTACK, 0, STACK
        ARGFRAME PSTACK, 0, STACK
        ARGFRAME XSTACK, 16, STACK
        ARGFRAME IOVERLAY, 0, STATIC
        ARGFRAME DOVERLAY, 0, STATIC
        FUNCALL DrawRectFill, SendByte
        LOCFRAME ISTACK, 0, STACK
        LOCFRAME PSTACK, 0, STACK
        LOCFRAME XSTACK, 16, STACK
        LOCFRAME IOVERLAY, 0, STATIC
        LOCFRAME DOVERLAY, 0, STATIC
        ARGFRAME ISTACK, 0, STACK
        ARGFRAME PSTACK, 0, STACK
        ARGFRAME XSTACK, 16, STACK
        ARGFRAME IOVERLAY, 0, STATIC
        ARGFRAME DOVERLAY, 0, STATIC
        FUNCALL DrawRectFill, SendByte
        LOCFRAME ISTACK, 0, STACK
        LOCFRAME PSTACK, 0, STACK
        LOCFRAME XSTACK, 16, STACK
        LOCFRAME IOVERLAY, 0, STATIC
        LOCFRAME DOVERLAY, 0, STATIC
        ARGFRAME ISTACK, 0, STACK
        ARGFRAME PSTACK, 0, STACK
        ARGFRAME XSTACK, 16, STACK
        ARGFRAME IOVERLAY, 0, STATIC
        ARGFRAME DOVERLAY, 0, STATIC
        FUNCALL DrawRectFill, SendByte
        LOCFRAME ISTACK, 0, STACK
        LOCFRAME PSTACK, 0, STACK
        LOCFRAME XSTACK, 16, STACK
        LOCFRAME IOVERLAY, 0, STATIC
        LOCFRAME DOVERLAY, 0, STATIC
        ARGFRAME ISTACK, 0, STACK
        ARGFRAME PSTACK, 0, STACK
        ARGFRAME XSTACK, 16, STACK
        ARGFRAME IOVERLAY, 0, STATIC
        ARGFRAME DOVERLAY, 0, STATIC
        FUNCALL DrawRectFill, SendByte
        LOCFRAME ISTACK, 0, STACK
        LOCFRAME PSTACK, 0, STACK
        LOCFRAME XSTACK, 16, STACK
        LOCFRAME IOVERLAY, 0, STATIC
        LOCFRAME DOVERLAY, 0, STATIC
        ARGFRAME ISTACK, 0, STACK
        ARGFRAME PSTACK, 0, STACK
        ARGFRAME XSTACK, 16, STACK
        ARGFRAME IOVERLAY, 0, STATIC
        ARGFRAME DOVERLAY, 0, STATIC
        FUNCALL DrawRectFill, SendByte
        LOCFRAME ISTACK, 0, STACK
        LOCFRAME PSTACK, 0, STACK
        LOCFRAME XSTACK, 16, STACK
        LOCFRAME IOVERLAY, 0, STATIC
        LOCFRAME DOVERLAY, 0, STATIC
        ARGFRAME ISTACK, 0, STACK
        ARGFRAME PSTACK, 0, STACK
        ARGFRAME XSTACK, 16, STACK
        ARGFRAME IOVERLAY, 0, STATIC
        ARGFRAME DOVERLAY, 0, STATIC
        FUNCALL DrawRectFill, SendByte
        LOCFRAME ISTACK, 0, STACK
        LOCFRAME PSTACK, 0, STACK
        LOCFRAME XSTACK, 16, STACK
        LOCFRAME IOVERLAY, 0, STATIC
        LOCFRAME DOVERLAY, 0, STATIC
        ARGFRAME ISTACK, 0, STACK
        ARGFRAME PSTACK, 0, STACK
        ARGFRAME XSTACK, 16, STACK
        ARGFRAME IOVERLAY, 0, STATIC
        ARGFRAME DOVERLAY, 0, STATIC
        FUNCALL DrawRectFill, SendByte
        LOCFRAME ISTACK, 0, STACK
        LOCFRAME PSTACK, 0, STACK
        LOCFRAME XSTACK, 16, STACK
        LOCFRAME IOVERLAY, 0, STATIC
        LOCFRAME DOVERLAY, 0, STATIC
        ARGFRAME ISTACK, 0, STACK
        ARGFRAME PSTACK, 0, STACK
        ARGFRAME XSTACK, 16, STACK
        ARGFRAME IOVERLAY, 0, STATIC
        ARGFRAME DOVERLAY, 0, STATIC
        FUNCALL DrawRectFill, SendByte
        LOCFRAME ISTACK, 0, STACK
        LOCFRAME PSTACK, 0, STACK
        LOCFRAME XSTACK, 16, STACK
        LOCFRAME IOVERLAY, 0, STATIC
        LOCFRAME DOVERLAY, 0, STATIC
        ARGFRAME ISTACK, 0, STACK
        ARGFRAME PSTACK, 0, STACK
        ARGFRAME XSTACK, 16, STACK
        ARGFRAME IOVERLAY, 0, STATIC
        ARGFRAME DOVERLAY, 0, STATIC
        FUNCALL DrawRectFill, SendByte
        LOCFRAME ISTACK, 0, STACK
        LOCFRAME PSTACK, 0, STACK
        LOCFRAME XSTACK, 16, STACK
        LOCFRAME IOVERLAY, 0, STATIC
        LOCFRAME DOVERLAY, 0, STATIC
        ARGFRAME ISTACK, 0, STACK
        ARGFRAME PSTACK, 0, STACK
        ARGFRAME XSTACK, 16, STACK
        ARGFRAME IOVERLAY, 0, STATIC
        ARGFRAME DOVERLAY, 0, STATIC
        FUNCALL DrawRectFill, SendByte
        LOCFRAME ISTACK, 0, STACK
        LOCFRAME PSTACK, 0, STACK
        LOCFRAME XSTACK, 16, STACK
        LOCFRAME IOVERLAY, 0, STATIC
        LOCFRAME DOVERLAY, 0, STATIC
        ARGFRAME ISTACK, 0, STACK
        ARGFRAME PSTACK, 0, STACK
        ARGFRAME XSTACK, 16, STACK
        ARGFRAME IOVERLAY, 0, STATIC
        ARGFRAME DOVERLAY, 0, STATIC
        FUNCALL DrawRectFill, SendByte
        LOCFRAME ISTACK, 0, STACK
        LOCFRAME PSTACK, 0, STACK
        LOCFRAME XSTACK, 16, STACK
        LOCFRAME IOVERLAY, 0, STATIC
        LOCFRAME DOVERLAY, 0, STATIC
        ARGFRAME ISTACK, 0, STACK
        ARGFRAME PSTACK, 0, STACK
        ARGFRAME XSTACK, 16, STACK
        ARGFRAME IOVERLAY, 0, STATIC
        ARGFRAME DOVERLAY, 0, STATIC
        FUNCALL DrawRectFill, SendByte
        LOCFRAME ISTACK, 0, STACK
        LOCFRAME PSTACK, 0, STACK
        LOCFRAME XSTACK, 16, STACK
        LOCFRAME IOVERLAY, 0, STATIC
        LOCFRAME DOVERLAY, 0, STATIC
        ARGFRAME ISTACK, 0, STACK
        ARGFRAME PSTACK, 0, STACK
        ARGFRAME XSTACK, 16, STACK
        ARGFRAME IOVERLAY, 0, STATIC
        ARGFRAME DOVERLAY, 0, STATIC
        FUNCALL DrawRectFill, SendByte
        LOCFRAME ISTACK, 0, STACK
        LOCFRAME PSTACK, 0, STACK
        LOCFRAME XSTACK, 16, STACK
        LOCFRAME IOVERLAY, 0, STATIC
        LOCFRAME DOVERLAY, 0, STATIC
        ARGFRAME ISTACK, 0, STACK
        ARGFRAME PSTACK, 0, STACK
        ARGFRAME XSTACK, 16, STACK
        ARGFRAME IOVERLAY, 0, STATIC
        ARGFRAME DOVERLAY, 0, STATIC
        FUNCALL DrawRectFill, SendByte
        LOCFRAME ISTACK, 0, STACK
        LOCFRAME PSTACK, 0, STACK
        LOCFRAME XSTACK, 16, STACK
        LOCFRAME IOVERLAY, 0, STATIC
        LOCFRAME DOVERLAY, 0, STATIC
        ARGFRAME ISTACK, 0, STACK
        ARGFRAME PSTACK, 0, STACK
        ARGFRAME XSTACK, 16, STACK
        ARGFRAME IOVERLAY, 0, STATIC
        ARGFRAME DOVERLAY, 0, STATIC
        FUNCALL DrawRectFill, SendByte
        LOCFRAME ISTACK, 0, STACK
        LOCFRAME PSTACK, 0, STACK
        LOCFRAME XSTACK, 16, STACK
        LOCFRAME IOVERLAY, 0, STATIC
        LOCFRAME DOVERLAY, 0, STATIC
        ARGFRAME ISTACK, 0, STACK
        ARGFRAME PSTACK, 0, STACK
        ARGFRAME XSTACK, 16, STACK
        ARGFRAME IOVERLAY, 0, STATIC
        ARGFRAME DOVERLAY, 0, STATIC
        FUNCALL DrawRectFill, SendByte
        LOCFRAME ISTACK, 0, STACK
        LOCFRAME PSTACK, 0, STACK
        LOCFRAME XSTACK, 16, STACK
        LOCFRAME IOVERLAY, 0, STATIC
        LOCFRAME DOVERLAY, 0, STATIC
        ARGFRAME ISTACK, 0, STACK
        ARGFRAME PSTACK, 0, STACK
        ARGFRAME XSTACK, 16, STACK
        ARGFRAME IOVERLAY, 0, STATIC
        ARGFRAME DOVERLAY, 0, STATIC
        FUNCALL DrawRectFill, SendByte
        LOCFRAME ISTACK, 0, STACK
        LOCFRAME PSTACK, 0, STACK
        LOCFRAME XSTACK, 16, STACK
        LOCFRAME IOVERLAY, 0, STATIC
        LOCFRAME DOVERLAY, 0, STATIC
        ARGFRAME ISTACK, 0, STACK
        ARGFRAME PSTACK, 0, STACK
        ARGFRAME XSTACK, 16, STACK
        ARGFRAME IOVERLAY, 0, STATIC
        ARGFRAME DOVERLAY, 0, STATIC
        REQUIRE ?V0
        REQUIRE ?V1
        REQUIRE ?V2
        REQUIRE ?V3
        REQUIRE ?V4
        REQUIRE ?V5
        REQUIRE ?V6
        REQUIRE ?V7
        MOV       A,#-0x10
        LCALL     ?BANKED_ENTER_XDATA
          CFI DPH0 load(1, XDATA, add(CFA_XSP16, literal(-1)))
          CFI DPL0 load(1, XDATA, add(CFA_XSP16, literal(-2)))
          CFI ?BRET_EXT load(1, XDATA, add(CFA_XSP16, literal(-3)))
          CFI ?RET_HIGH load(1, XDATA, add(CFA_XSP16, literal(-4)))
          CFI ?RET_LOW load(1, XDATA, add(CFA_XSP16, literal(-5)))
          CFI R7 load(1, XDATA, add(CFA_XSP16, literal(-6)))
          CFI V7 load(1, XDATA, add(CFA_XSP16, literal(-7)))
          CFI V6 load(1, XDATA, add(CFA_XSP16, literal(-8)))
          CFI V5 load(1, XDATA, add(CFA_XSP16, literal(-9)))
          CFI V4 load(1, XDATA, add(CFA_XSP16, literal(-10)))
          CFI V3 load(1, XDATA, add(CFA_XSP16, literal(-11)))
          CFI V2 load(1, XDATA, add(CFA_XSP16, literal(-12)))
          CFI V1 load(1, XDATA, add(CFA_XSP16, literal(-13)))
          CFI V0 load(1, XDATA, add(CFA_XSP16, literal(-14)))
          CFI VB load(1, XDATA, add(CFA_XSP16, literal(-15)))
          CFI R6 load(1, XDATA, add(CFA_XSP16, literal(-16)))
          CFI CFA_SP SP+0
          CFI CFA_XSP16 add(XSP16, 16)
        ; Saved register size: 16
        ; Auto size: 0
        MOV       A,#0x10
        LCALL     ?XSTACK_DISP0_8
        LCALL     ?Subroutine7 & 0xFFFF
??CrossCallReturnLabel_5:
        MOV       A,#0x12
        LCALL     ?XSTACK_DISP0_8
        LCALL     ?Subroutine9 & 0xFFFF
//  698   register unsigned int i;
//  699   register unsigned int index = Width*Height/16+1;
??CrossCallReturnLabel_10:
        MOV       ?V0,?V4
        MOV       ?V1,?V5
        MOV       A,?V0
        MOV       B,?V2
        MUL       AB
        XCH       A,?V0
        MOV       R0,B
        MOV       B,?V3
        MUL       AB
        ADD       A,R0
        MOV       R0,A
        MOV       B,?V2
        MOV       A,?V1
        MUL       AB
        ADD       A,R0
        MOV       ?V1,A
        MOV       A,#0x4
        MOV       R0,#?V0
        LCALL     ?US_SHR
        MOV       A,?V0
        ADD       A,#0x1
        MOV       ?V0,A
        JNC       ??DrawRectFill_0
        INC       ?V1
??DrawRectFill_0:
        MOV       A,#0x14
        LCALL     ?XSTACK_DISP0_8
        MOVX      A,@DPTR
        MOV       ?V6,A
        INC       DPTR
        MOVX      A,@DPTR
//  700   register char ch,cl;
//  701   
//  702   ch = (unsigned char)(Color>>8);
        MOV       R6,A
//  703   cl = (unsigned char)(Color);
        MOV       A,?V6
        MOV       R7,A
//  704   LCD_set_window(Xpos,Ypos,Width,Height);
        ; Setup parameters for call to function LCD_set_window
        MOV       R0,#?V2
        LCALL     ?PUSH_XSTACK_I_TWO
          CFI CFA_XSP16 add(XSP16, 18)
        MOV       R0,#?V4
        LCALL     ?PUSH_XSTACK_I_TWO
          CFI CFA_XSP16 add(XSP16, 20)
        LCALL     `??LCD_set_window::?relay`; Banked call to: LCD_set_window
        MOV       A,#0x4
        LCALL     ?DEALLOC_XSTACK8
          CFI CFA_XSP16 add(XSP16, 16)
//  705   LCD_write_byte(0x2C,LCD_COMMAND);
        ; Setup parameters for call to function LCD_write_byte
        MOV       R2,#0x0
        MOV       R1,#0x2c
        LCALL     `??LCD_write_byte::?relay`; Banked call to: LCD_write_byte
//  706   //LCD_CS_CLR ; andy
//  707   LCD_DC_SET ;
        SETB      0x80.0
//  708   for(i=0;i<index;i++)
        MOV       ?V2,#0x0
        MOV       ?V3,#0x0
        LJMP      ??DrawRectFill_1 & 0xFFFF
//  709   {
//  710       SendByte(ch);
??DrawRectFill_2:
        ; Setup parameters for call to function SendByte
        MOV       A,R6
        MOV       R1,A
        LCALL     `??SendByte::?relay`; Banked call to: SendByte
//  711       SendByte(cl);
        ; Setup parameters for call to function SendByte
        MOV       A,R7
        MOV       R1,A
        LCALL     `??SendByte::?relay`; Banked call to: SendByte
//  712       SendByte(ch);
        ; Setup parameters for call to function SendByte
        MOV       A,R6
        MOV       R1,A
        LCALL     `??SendByte::?relay`; Banked call to: SendByte
//  713       SendByte(cl); 
        ; Setup parameters for call to function SendByte
        MOV       A,R7
        MOV       R1,A
        LCALL     `??SendByte::?relay`; Banked call to: SendByte
//  714       SendByte(ch);
        ; Setup parameters for call to function SendByte
        MOV       A,R6
        MOV       R1,A
        LCALL     `??SendByte::?relay`; Banked call to: SendByte
//  715       SendByte(cl);      
        ; Setup parameters for call to function SendByte
        MOV       A,R7
        MOV       R1,A
        LCALL     `??SendByte::?relay`; Banked call to: SendByte
//  716       SendByte(ch);
        ; Setup parameters for call to function SendByte
        MOV       A,R6
        MOV       R1,A
        LCALL     `??SendByte::?relay`; Banked call to: SendByte
//  717       SendByte(cl);
        ; Setup parameters for call to function SendByte
        MOV       A,R7
        MOV       R1,A
        LCALL     `??SendByte::?relay`; Banked call to: SendByte
//  718       SendByte(ch);
        ; Setup parameters for call to function SendByte
        MOV       A,R6
        MOV       R1,A
        LCALL     `??SendByte::?relay`; Banked call to: SendByte
//  719       SendByte(cl);
        ; Setup parameters for call to function SendByte
        MOV       A,R7
        MOV       R1,A
        LCALL     `??SendByte::?relay`; Banked call to: SendByte
//  720       SendByte(ch);
        ; Setup parameters for call to function SendByte
        MOV       A,R6
        MOV       R1,A
        LCALL     `??SendByte::?relay`; Banked call to: SendByte
//  721       SendByte(cl);
        ; Setup parameters for call to function SendByte
        MOV       A,R7
        MOV       R1,A
        LCALL     `??SendByte::?relay`; Banked call to: SendByte
//  722       SendByte(ch);
        ; Setup parameters for call to function SendByte
        MOV       A,R6
        MOV       R1,A
        LCALL     `??SendByte::?relay`; Banked call to: SendByte
//  723       SendByte(cl);
        ; Setup parameters for call to function SendByte
        MOV       A,R7
        MOV       R1,A
        LCALL     `??SendByte::?relay`; Banked call to: SendByte
//  724       SendByte(ch);
        ; Setup parameters for call to function SendByte
        MOV       A,R6
        MOV       R1,A
        LCALL     `??SendByte::?relay`; Banked call to: SendByte
//  725       SendByte(cl);
        ; Setup parameters for call to function SendByte
        MOV       A,R7
        MOV       R1,A
        LCALL     `??SendByte::?relay`; Banked call to: SendByte
//  726       SendByte(ch);
        ; Setup parameters for call to function SendByte
        MOV       A,R6
        MOV       R1,A
        LCALL     `??SendByte::?relay`; Banked call to: SendByte
//  727       SendByte(cl);
        ; Setup parameters for call to function SendByte
        MOV       A,R7
        MOV       R1,A
        LCALL     `??SendByte::?relay`; Banked call to: SendByte
//  728       SendByte(ch);
        ; Setup parameters for call to function SendByte
        MOV       A,R6
        MOV       R1,A
        LCALL     `??SendByte::?relay`; Banked call to: SendByte
//  729       SendByte(cl);
        ; Setup parameters for call to function SendByte
        MOV       A,R7
        MOV       R1,A
        LCALL     `??SendByte::?relay`; Banked call to: SendByte
//  730       SendByte(ch);
        ; Setup parameters for call to function SendByte
        MOV       A,R6
        MOV       R1,A
        LCALL     `??SendByte::?relay`; Banked call to: SendByte
//  731       SendByte(cl);
        ; Setup parameters for call to function SendByte
        MOV       A,R7
        MOV       R1,A
        LCALL     `??SendByte::?relay`; Banked call to: SendByte
//  732       SendByte(ch);
        ; Setup parameters for call to function SendByte
        MOV       A,R6
        MOV       R1,A
        LCALL     `??SendByte::?relay`; Banked call to: SendByte
//  733       SendByte(cl);
        ; Setup parameters for call to function SendByte
        MOV       A,R7
        MOV       R1,A
        LCALL     `??SendByte::?relay`; Banked call to: SendByte
//  734       SendByte(ch);
        ; Setup parameters for call to function SendByte
        MOV       A,R6
        MOV       R1,A
        LCALL     `??SendByte::?relay`; Banked call to: SendByte
//  735       SendByte(cl);
        ; Setup parameters for call to function SendByte
        MOV       A,R7
        MOV       R1,A
        LCALL     `??SendByte::?relay`; Banked call to: SendByte
//  736       SendByte(ch);
        ; Setup parameters for call to function SendByte
        MOV       A,R6
        MOV       R1,A
        LCALL     `??SendByte::?relay`; Banked call to: SendByte
//  737       SendByte(cl);
        ; Setup parameters for call to function SendByte
        MOV       A,R7
        MOV       R1,A
        LCALL     `??SendByte::?relay`; Banked call to: SendByte
//  738       SendByte(ch);
        ; Setup parameters for call to function SendByte
        MOV       A,R6
        MOV       R1,A
        LCALL     `??SendByte::?relay`; Banked call to: SendByte
//  739       SendByte(cl);
        ; Setup parameters for call to function SendByte
        MOV       A,R7
        MOV       R1,A
        LCALL     `??SendByte::?relay`; Banked call to: SendByte
//  740       SendByte(ch);
        ; Setup parameters for call to function SendByte
        MOV       A,R6
        MOV       R1,A
        LCALL     `??SendByte::?relay`; Banked call to: SendByte
//  741       SendByte(cl);
        ; Setup parameters for call to function SendByte
        MOV       A,R7
        MOV       R1,A
        LCALL     `??SendByte::?relay`; Banked call to: SendByte
//  742   }    
        INC       ?V2
        MOV       A,?V2
        JNZ       ??DrawRectFill_1
        INC       ?V3
??DrawRectFill_1:
        CLR       C
        MOV       A,?V2
        SUBB      A,?V0
        MOV       A,?V3
        SUBB      A,?V1
        JNC       $+5
        LJMP      ??DrawRectFill_2 & 0xFFFF
//  743 }
        LJMP      ?Subroutine5 & 0xFFFF
          CFI EndBlock cfiBlock45
        REQUIRE _A_P0
//  744 
//  745 /****************************************************************************
//  746 * 名    称: LCD_clear()
//  747 * 功    能: 以指定颜色清屏
//  748 * 入口参数: color ―清屏颜色
//  749 * 出口参数: 无
//  750 ****************************************************************************/

        RSEG BANKED_CODE:HUGECODE:NOROOT(0)
//  751 void LCD_clear(unsigned int color)
LCD_clear:
          CFI Block cfiBlock46 Using cfiCommon0
          CFI Function LCD_clear
        CODE
//  752 {
        FUNCALL LCD_clear, LCD_set_window
        LOCFRAME ISTACK, 0, STACK
        LOCFRAME PSTACK, 0, STACK
        LOCFRAME XSTACK, 16, STACK
        LOCFRAME IOVERLAY, 0, STATIC
        LOCFRAME DOVERLAY, 0, STATIC
        ARGFRAME ISTACK, 0, STACK
        ARGFRAME PSTACK, 0, STACK
        ARGFRAME XSTACK, 16, STACK
        ARGFRAME IOVERLAY, 0, STATIC
        ARGFRAME DOVERLAY, 0, STATIC
        FUNCALL LCD_clear, LCD_write_byte
        LOCFRAME ISTACK, 0, STACK
        LOCFRAME PSTACK, 0, STACK
        LOCFRAME XSTACK, 12, STACK
        LOCFRAME IOVERLAY, 0, STATIC
        LOCFRAME DOVERLAY, 0, STATIC
        ARGFRAME ISTACK, 0, STACK
        ARGFRAME PSTACK, 0, STACK
        ARGFRAME XSTACK, 12, STACK
        ARGFRAME IOVERLAY, 0, STATIC
        ARGFRAME DOVERLAY, 0, STATIC
        FUNCALL LCD_clear, SendByte
        LOCFRAME ISTACK, 0, STACK
        LOCFRAME PSTACK, 0, STACK
        LOCFRAME XSTACK, 12, STACK
        LOCFRAME IOVERLAY, 0, STATIC
        LOCFRAME DOVERLAY, 0, STATIC
        ARGFRAME ISTACK, 0, STACK
        ARGFRAME PSTACK, 0, STACK
        ARGFRAME XSTACK, 12, STACK
        ARGFRAME IOVERLAY, 0, STATIC
        ARGFRAME DOVERLAY, 0, STATIC
        FUNCALL LCD_clear, SendByte
        LOCFRAME ISTACK, 0, STACK
        LOCFRAME PSTACK, 0, STACK
        LOCFRAME XSTACK, 12, STACK
        LOCFRAME IOVERLAY, 0, STATIC
        LOCFRAME DOVERLAY, 0, STATIC
        ARGFRAME ISTACK, 0, STACK
        ARGFRAME PSTACK, 0, STACK
        ARGFRAME XSTACK, 12, STACK
        ARGFRAME IOVERLAY, 0, STATIC
        ARGFRAME DOVERLAY, 0, STATIC
        FUNCALL LCD_clear, SendByte
        LOCFRAME ISTACK, 0, STACK
        LOCFRAME PSTACK, 0, STACK
        LOCFRAME XSTACK, 12, STACK
        LOCFRAME IOVERLAY, 0, STATIC
        LOCFRAME DOVERLAY, 0, STATIC
        ARGFRAME ISTACK, 0, STACK
        ARGFRAME PSTACK, 0, STACK
        ARGFRAME XSTACK, 12, STACK
        ARGFRAME IOVERLAY, 0, STATIC
        ARGFRAME DOVERLAY, 0, STATIC
        FUNCALL LCD_clear, SendByte
        LOCFRAME ISTACK, 0, STACK
        LOCFRAME PSTACK, 0, STACK
        LOCFRAME XSTACK, 12, STACK
        LOCFRAME IOVERLAY, 0, STATIC
        LOCFRAME DOVERLAY, 0, STATIC
        ARGFRAME ISTACK, 0, STACK
        ARGFRAME PSTACK, 0, STACK
        ARGFRAME XSTACK, 12, STACK
        ARGFRAME IOVERLAY, 0, STATIC
        ARGFRAME DOVERLAY, 0, STATIC
        FUNCALL LCD_clear, SendByte
        LOCFRAME ISTACK, 0, STACK
        LOCFRAME PSTACK, 0, STACK
        LOCFRAME XSTACK, 12, STACK
        LOCFRAME IOVERLAY, 0, STATIC
        LOCFRAME DOVERLAY, 0, STATIC
        ARGFRAME ISTACK, 0, STACK
        ARGFRAME PSTACK, 0, STACK
        ARGFRAME XSTACK, 12, STACK
        ARGFRAME IOVERLAY, 0, STATIC
        ARGFRAME DOVERLAY, 0, STATIC
        FUNCALL LCD_clear, SendByte
        LOCFRAME ISTACK, 0, STACK
        LOCFRAME PSTACK, 0, STACK
        LOCFRAME XSTACK, 12, STACK
        LOCFRAME IOVERLAY, 0, STATIC
        LOCFRAME DOVERLAY, 0, STATIC
        ARGFRAME ISTACK, 0, STACK
        ARGFRAME PSTACK, 0, STACK
        ARGFRAME XSTACK, 12, STACK
        ARGFRAME IOVERLAY, 0, STATIC
        ARGFRAME DOVERLAY, 0, STATIC
        FUNCALL LCD_clear, SendByte
        LOCFRAME ISTACK, 0, STACK
        LOCFRAME PSTACK, 0, STACK
        LOCFRAME XSTACK, 12, STACK
        LOCFRAME IOVERLAY, 0, STATIC
        LOCFRAME DOVERLAY, 0, STATIC
        ARGFRAME ISTACK, 0, STACK
        ARGFRAME PSTACK, 0, STACK
        ARGFRAME XSTACK, 12, STACK
        ARGFRAME IOVERLAY, 0, STATIC
        ARGFRAME DOVERLAY, 0, STATIC
        FUNCALL LCD_clear, SendByte
        LOCFRAME ISTACK, 0, STACK
        LOCFRAME PSTACK, 0, STACK
        LOCFRAME XSTACK, 12, STACK
        LOCFRAME IOVERLAY, 0, STATIC
        LOCFRAME DOVERLAY, 0, STATIC
        ARGFRAME ISTACK, 0, STACK
        ARGFRAME PSTACK, 0, STACK
        ARGFRAME XSTACK, 12, STACK
        ARGFRAME IOVERLAY, 0, STATIC
        ARGFRAME DOVERLAY, 0, STATIC
        FUNCALL LCD_clear, SendByte
        LOCFRAME ISTACK, 0, STACK
        LOCFRAME PSTACK, 0, STACK
        LOCFRAME XSTACK, 12, STACK
        LOCFRAME IOVERLAY, 0, STATIC
        LOCFRAME DOVERLAY, 0, STATIC
        ARGFRAME ISTACK, 0, STACK
        ARGFRAME PSTACK, 0, STACK
        ARGFRAME XSTACK, 12, STACK
        ARGFRAME IOVERLAY, 0, STATIC
        ARGFRAME DOVERLAY, 0, STATIC
        FUNCALL LCD_clear, SendByte
        LOCFRAME ISTACK, 0, STACK
        LOCFRAME PSTACK, 0, STACK
        LOCFRAME XSTACK, 12, STACK
        LOCFRAME IOVERLAY, 0, STATIC
        LOCFRAME DOVERLAY, 0, STATIC
        ARGFRAME ISTACK, 0, STACK
        ARGFRAME PSTACK, 0, STACK
        ARGFRAME XSTACK, 12, STACK
        ARGFRAME IOVERLAY, 0, STATIC
        ARGFRAME DOVERLAY, 0, STATIC
        FUNCALL LCD_clear, SendByte
        LOCFRAME ISTACK, 0, STACK
        LOCFRAME PSTACK, 0, STACK
        LOCFRAME XSTACK, 12, STACK
        LOCFRAME IOVERLAY, 0, STATIC
        LOCFRAME DOVERLAY, 0, STATIC
        ARGFRAME ISTACK, 0, STACK
        ARGFRAME PSTACK, 0, STACK
        ARGFRAME XSTACK, 12, STACK
        ARGFRAME IOVERLAY, 0, STATIC
        ARGFRAME DOVERLAY, 0, STATIC
        FUNCALL LCD_clear, SendByte
        LOCFRAME ISTACK, 0, STACK
        LOCFRAME PSTACK, 0, STACK
        LOCFRAME XSTACK, 12, STACK
        LOCFRAME IOVERLAY, 0, STATIC
        LOCFRAME DOVERLAY, 0, STATIC
        ARGFRAME ISTACK, 0, STACK
        ARGFRAME PSTACK, 0, STACK
        ARGFRAME XSTACK, 12, STACK
        ARGFRAME IOVERLAY, 0, STATIC
        ARGFRAME DOVERLAY, 0, STATIC
        FUNCALL LCD_clear, SendByte
        LOCFRAME ISTACK, 0, STACK
        LOCFRAME PSTACK, 0, STACK
        LOCFRAME XSTACK, 12, STACK
        LOCFRAME IOVERLAY, 0, STATIC
        LOCFRAME DOVERLAY, 0, STATIC
        ARGFRAME ISTACK, 0, STACK
        ARGFRAME PSTACK, 0, STACK
        ARGFRAME XSTACK, 12, STACK
        ARGFRAME IOVERLAY, 0, STATIC
        ARGFRAME DOVERLAY, 0, STATIC
        FUNCALL LCD_clear, SendByte
        LOCFRAME ISTACK, 0, STACK
        LOCFRAME PSTACK, 0, STACK
        LOCFRAME XSTACK, 12, STACK
        LOCFRAME IOVERLAY, 0, STATIC
        LOCFRAME DOVERLAY, 0, STATIC
        ARGFRAME ISTACK, 0, STACK
        ARGFRAME PSTACK, 0, STACK
        ARGFRAME XSTACK, 12, STACK
        ARGFRAME IOVERLAY, 0, STATIC
        ARGFRAME DOVERLAY, 0, STATIC
        FUNCALL LCD_clear, SendByte
        LOCFRAME ISTACK, 0, STACK
        LOCFRAME PSTACK, 0, STACK
        LOCFRAME XSTACK, 12, STACK
        LOCFRAME IOVERLAY, 0, STATIC
        LOCFRAME DOVERLAY, 0, STATIC
        ARGFRAME ISTACK, 0, STACK
        ARGFRAME PSTACK, 0, STACK
        ARGFRAME XSTACK, 12, STACK
        ARGFRAME IOVERLAY, 0, STATIC
        ARGFRAME DOVERLAY, 0, STATIC
        FUNCALL LCD_clear, SendByte
        LOCFRAME ISTACK, 0, STACK
        LOCFRAME PSTACK, 0, STACK
        LOCFRAME XSTACK, 12, STACK
        LOCFRAME IOVERLAY, 0, STATIC
        LOCFRAME DOVERLAY, 0, STATIC
        ARGFRAME ISTACK, 0, STACK
        ARGFRAME PSTACK, 0, STACK
        ARGFRAME XSTACK, 12, STACK
        ARGFRAME IOVERLAY, 0, STATIC
        ARGFRAME DOVERLAY, 0, STATIC
        FUNCALL LCD_clear, SendByte
        LOCFRAME ISTACK, 0, STACK
        LOCFRAME PSTACK, 0, STACK
        LOCFRAME XSTACK, 12, STACK
        LOCFRAME IOVERLAY, 0, STATIC
        LOCFRAME DOVERLAY, 0, STATIC
        ARGFRAME ISTACK, 0, STACK
        ARGFRAME PSTACK, 0, STACK
        ARGFRAME XSTACK, 12, STACK
        ARGFRAME IOVERLAY, 0, STATIC
        ARGFRAME DOVERLAY, 0, STATIC
        FUNCALL LCD_clear, SendByte
        LOCFRAME ISTACK, 0, STACK
        LOCFRAME PSTACK, 0, STACK
        LOCFRAME XSTACK, 12, STACK
        LOCFRAME IOVERLAY, 0, STATIC
        LOCFRAME DOVERLAY, 0, STATIC
        ARGFRAME ISTACK, 0, STACK
        ARGFRAME PSTACK, 0, STACK
        ARGFRAME XSTACK, 12, STACK
        ARGFRAME IOVERLAY, 0, STATIC
        ARGFRAME DOVERLAY, 0, STATIC
        FUNCALL LCD_clear, SendByte
        LOCFRAME ISTACK, 0, STACK
        LOCFRAME PSTACK, 0, STACK
        LOCFRAME XSTACK, 12, STACK
        LOCFRAME IOVERLAY, 0, STATIC
        LOCFRAME DOVERLAY, 0, STATIC
        ARGFRAME ISTACK, 0, STACK
        ARGFRAME PSTACK, 0, STACK
        ARGFRAME XSTACK, 12, STACK
        ARGFRAME IOVERLAY, 0, STATIC
        ARGFRAME DOVERLAY, 0, STATIC
        FUNCALL LCD_clear, SendByte
        LOCFRAME ISTACK, 0, STACK
        LOCFRAME PSTACK, 0, STACK
        LOCFRAME XSTACK, 12, STACK
        LOCFRAME IOVERLAY, 0, STATIC
        LOCFRAME DOVERLAY, 0, STATIC
        ARGFRAME ISTACK, 0, STACK
        ARGFRAME PSTACK, 0, STACK
        ARGFRAME XSTACK, 12, STACK
        ARGFRAME IOVERLAY, 0, STATIC
        ARGFRAME DOVERLAY, 0, STATIC
        FUNCALL LCD_clear, SendByte
        LOCFRAME ISTACK, 0, STACK
        LOCFRAME PSTACK, 0, STACK
        LOCFRAME XSTACK, 12, STACK
        LOCFRAME IOVERLAY, 0, STATIC
        LOCFRAME DOVERLAY, 0, STATIC
        ARGFRAME ISTACK, 0, STACK
        ARGFRAME PSTACK, 0, STACK
        ARGFRAME XSTACK, 12, STACK
        ARGFRAME IOVERLAY, 0, STATIC
        ARGFRAME DOVERLAY, 0, STATIC
        FUNCALL LCD_clear, SendByte
        LOCFRAME ISTACK, 0, STACK
        LOCFRAME PSTACK, 0, STACK
        LOCFRAME XSTACK, 12, STACK
        LOCFRAME IOVERLAY, 0, STATIC
        LOCFRAME DOVERLAY, 0, STATIC
        ARGFRAME ISTACK, 0, STACK
        ARGFRAME PSTACK, 0, STACK
        ARGFRAME XSTACK, 12, STACK
        ARGFRAME IOVERLAY, 0, STATIC
        ARGFRAME DOVERLAY, 0, STATIC
        FUNCALL LCD_clear, SendByte
        LOCFRAME ISTACK, 0, STACK
        LOCFRAME PSTACK, 0, STACK
        LOCFRAME XSTACK, 12, STACK
        LOCFRAME IOVERLAY, 0, STATIC
        LOCFRAME DOVERLAY, 0, STATIC
        ARGFRAME ISTACK, 0, STACK
        ARGFRAME PSTACK, 0, STACK
        ARGFRAME XSTACK, 12, STACK
        ARGFRAME IOVERLAY, 0, STATIC
        ARGFRAME DOVERLAY, 0, STATIC
        FUNCALL LCD_clear, SendByte
        LOCFRAME ISTACK, 0, STACK
        LOCFRAME PSTACK, 0, STACK
        LOCFRAME XSTACK, 12, STACK
        LOCFRAME IOVERLAY, 0, STATIC
        LOCFRAME DOVERLAY, 0, STATIC
        ARGFRAME ISTACK, 0, STACK
        ARGFRAME PSTACK, 0, STACK
        ARGFRAME XSTACK, 12, STACK
        ARGFRAME IOVERLAY, 0, STATIC
        ARGFRAME DOVERLAY, 0, STATIC
        FUNCALL LCD_clear, SendByte
        LOCFRAME ISTACK, 0, STACK
        LOCFRAME PSTACK, 0, STACK
        LOCFRAME XSTACK, 12, STACK
        LOCFRAME IOVERLAY, 0, STATIC
        LOCFRAME DOVERLAY, 0, STATIC
        ARGFRAME ISTACK, 0, STACK
        ARGFRAME PSTACK, 0, STACK
        ARGFRAME XSTACK, 12, STACK
        ARGFRAME IOVERLAY, 0, STATIC
        ARGFRAME DOVERLAY, 0, STATIC
        FUNCALL LCD_clear, SendByte
        LOCFRAME ISTACK, 0, STACK
        LOCFRAME PSTACK, 0, STACK
        LOCFRAME XSTACK, 12, STACK
        LOCFRAME IOVERLAY, 0, STATIC
        LOCFRAME DOVERLAY, 0, STATIC
        ARGFRAME ISTACK, 0, STACK
        ARGFRAME PSTACK, 0, STACK
        ARGFRAME XSTACK, 12, STACK
        ARGFRAME IOVERLAY, 0, STATIC
        ARGFRAME DOVERLAY, 0, STATIC
        FUNCALL LCD_clear, SendByte
        LOCFRAME ISTACK, 0, STACK
        LOCFRAME PSTACK, 0, STACK
        LOCFRAME XSTACK, 12, STACK
        LOCFRAME IOVERLAY, 0, STATIC
        LOCFRAME DOVERLAY, 0, STATIC
        ARGFRAME ISTACK, 0, STACK
        ARGFRAME PSTACK, 0, STACK
        ARGFRAME XSTACK, 12, STACK
        ARGFRAME IOVERLAY, 0, STATIC
        ARGFRAME DOVERLAY, 0, STATIC
        FUNCALL LCD_clear, SendByte
        LOCFRAME ISTACK, 0, STACK
        LOCFRAME PSTACK, 0, STACK
        LOCFRAME XSTACK, 12, STACK
        LOCFRAME IOVERLAY, 0, STATIC
        LOCFRAME DOVERLAY, 0, STATIC
        ARGFRAME ISTACK, 0, STACK
        ARGFRAME PSTACK, 0, STACK
        ARGFRAME XSTACK, 12, STACK
        ARGFRAME IOVERLAY, 0, STATIC
        ARGFRAME DOVERLAY, 0, STATIC
        FUNCALL LCD_clear, SendByte
        LOCFRAME ISTACK, 0, STACK
        LOCFRAME PSTACK, 0, STACK
        LOCFRAME XSTACK, 12, STACK
        LOCFRAME IOVERLAY, 0, STATIC
        LOCFRAME DOVERLAY, 0, STATIC
        ARGFRAME ISTACK, 0, STACK
        ARGFRAME PSTACK, 0, STACK
        ARGFRAME XSTACK, 12, STACK
        ARGFRAME IOVERLAY, 0, STATIC
        ARGFRAME DOVERLAY, 0, STATIC
        FUNCALL LCD_clear, SendByte
        LOCFRAME ISTACK, 0, STACK
        LOCFRAME PSTACK, 0, STACK
        LOCFRAME XSTACK, 12, STACK
        LOCFRAME IOVERLAY, 0, STATIC
        LOCFRAME DOVERLAY, 0, STATIC
        ARGFRAME ISTACK, 0, STACK
        ARGFRAME PSTACK, 0, STACK
        ARGFRAME XSTACK, 12, STACK
        ARGFRAME IOVERLAY, 0, STATIC
        ARGFRAME DOVERLAY, 0, STATIC
        FUNCALL LCD_clear, SendByte
        LOCFRAME ISTACK, 0, STACK
        LOCFRAME PSTACK, 0, STACK
        LOCFRAME XSTACK, 12, STACK
        LOCFRAME IOVERLAY, 0, STATIC
        LOCFRAME DOVERLAY, 0, STATIC
        ARGFRAME ISTACK, 0, STACK
        ARGFRAME PSTACK, 0, STACK
        ARGFRAME XSTACK, 12, STACK
        ARGFRAME IOVERLAY, 0, STATIC
        ARGFRAME DOVERLAY, 0, STATIC
        FUNCALL LCD_clear, SendByte
        LOCFRAME ISTACK, 0, STACK
        LOCFRAME PSTACK, 0, STACK
        LOCFRAME XSTACK, 12, STACK
        LOCFRAME IOVERLAY, 0, STATIC
        LOCFRAME DOVERLAY, 0, STATIC
        ARGFRAME ISTACK, 0, STACK
        ARGFRAME PSTACK, 0, STACK
        ARGFRAME XSTACK, 12, STACK
        ARGFRAME IOVERLAY, 0, STATIC
        ARGFRAME DOVERLAY, 0, STATIC
        FUNCALL LCD_clear, SendByte
        LOCFRAME ISTACK, 0, STACK
        LOCFRAME PSTACK, 0, STACK
        LOCFRAME XSTACK, 12, STACK
        LOCFRAME IOVERLAY, 0, STATIC
        LOCFRAME DOVERLAY, 0, STATIC
        ARGFRAME ISTACK, 0, STACK
        ARGFRAME PSTACK, 0, STACK
        ARGFRAME XSTACK, 12, STACK
        ARGFRAME IOVERLAY, 0, STATIC
        ARGFRAME DOVERLAY, 0, STATIC
        FUNCALL LCD_clear, SendByte
        LOCFRAME ISTACK, 0, STACK
        LOCFRAME PSTACK, 0, STACK
        LOCFRAME XSTACK, 12, STACK
        LOCFRAME IOVERLAY, 0, STATIC
        LOCFRAME DOVERLAY, 0, STATIC
        ARGFRAME ISTACK, 0, STACK
        ARGFRAME PSTACK, 0, STACK
        ARGFRAME XSTACK, 12, STACK
        ARGFRAME IOVERLAY, 0, STATIC
        ARGFRAME DOVERLAY, 0, STATIC
        FUNCALL LCD_clear, SendByte
        LOCFRAME ISTACK, 0, STACK
        LOCFRAME PSTACK, 0, STACK
        LOCFRAME XSTACK, 12, STACK
        LOCFRAME IOVERLAY, 0, STATIC
        LOCFRAME DOVERLAY, 0, STATIC
        ARGFRAME ISTACK, 0, STACK
        ARGFRAME PSTACK, 0, STACK
        ARGFRAME XSTACK, 12, STACK
        ARGFRAME IOVERLAY, 0, STATIC
        ARGFRAME DOVERLAY, 0, STATIC
        FUNCALL LCD_clear, SendByte
        LOCFRAME ISTACK, 0, STACK
        LOCFRAME PSTACK, 0, STACK
        LOCFRAME XSTACK, 12, STACK
        LOCFRAME IOVERLAY, 0, STATIC
        LOCFRAME DOVERLAY, 0, STATIC
        ARGFRAME ISTACK, 0, STACK
        ARGFRAME PSTACK, 0, STACK
        ARGFRAME XSTACK, 12, STACK
        ARGFRAME IOVERLAY, 0, STATIC
        ARGFRAME DOVERLAY, 0, STATIC
        FUNCALL LCD_clear, SendByte
        LOCFRAME ISTACK, 0, STACK
        LOCFRAME PSTACK, 0, STACK
        LOCFRAME XSTACK, 12, STACK
        LOCFRAME IOVERLAY, 0, STATIC
        LOCFRAME DOVERLAY, 0, STATIC
        ARGFRAME ISTACK, 0, STACK
        ARGFRAME PSTACK, 0, STACK
        ARGFRAME XSTACK, 12, STACK
        ARGFRAME IOVERLAY, 0, STATIC
        ARGFRAME DOVERLAY, 0, STATIC
        FUNCALL LCD_clear, SendByte
        LOCFRAME ISTACK, 0, STACK
        LOCFRAME PSTACK, 0, STACK
        LOCFRAME XSTACK, 12, STACK
        LOCFRAME IOVERLAY, 0, STATIC
        LOCFRAME DOVERLAY, 0, STATIC
        ARGFRAME ISTACK, 0, STACK
        ARGFRAME PSTACK, 0, STACK
        ARGFRAME XSTACK, 12, STACK
        ARGFRAME IOVERLAY, 0, STATIC
        ARGFRAME DOVERLAY, 0, STATIC
        FUNCALL LCD_clear, SendByte
        LOCFRAME ISTACK, 0, STACK
        LOCFRAME PSTACK, 0, STACK
        LOCFRAME XSTACK, 12, STACK
        LOCFRAME IOVERLAY, 0, STATIC
        LOCFRAME DOVERLAY, 0, STATIC
        ARGFRAME ISTACK, 0, STACK
        ARGFRAME PSTACK, 0, STACK
        ARGFRAME XSTACK, 12, STACK
        ARGFRAME IOVERLAY, 0, STATIC
        ARGFRAME DOVERLAY, 0, STATIC
        FUNCALL LCD_clear, SendByte
        LOCFRAME ISTACK, 0, STACK
        LOCFRAME PSTACK, 0, STACK
        LOCFRAME XSTACK, 12, STACK
        LOCFRAME IOVERLAY, 0, STATIC
        LOCFRAME DOVERLAY, 0, STATIC
        ARGFRAME ISTACK, 0, STACK
        ARGFRAME PSTACK, 0, STACK
        ARGFRAME XSTACK, 12, STACK
        ARGFRAME IOVERLAY, 0, STATIC
        ARGFRAME DOVERLAY, 0, STATIC
        FUNCALL LCD_clear, SendByte
        LOCFRAME ISTACK, 0, STACK
        LOCFRAME PSTACK, 0, STACK
        LOCFRAME XSTACK, 12, STACK
        LOCFRAME IOVERLAY, 0, STATIC
        LOCFRAME DOVERLAY, 0, STATIC
        ARGFRAME ISTACK, 0, STACK
        ARGFRAME PSTACK, 0, STACK
        ARGFRAME XSTACK, 12, STACK
        ARGFRAME IOVERLAY, 0, STATIC
        ARGFRAME DOVERLAY, 0, STATIC
        FUNCALL LCD_clear, SendByte
        LOCFRAME ISTACK, 0, STACK
        LOCFRAME PSTACK, 0, STACK
        LOCFRAME XSTACK, 12, STACK
        LOCFRAME IOVERLAY, 0, STATIC
        LOCFRAME DOVERLAY, 0, STATIC
        ARGFRAME ISTACK, 0, STACK
        ARGFRAME PSTACK, 0, STACK
        ARGFRAME XSTACK, 12, STACK
        ARGFRAME IOVERLAY, 0, STATIC
        ARGFRAME DOVERLAY, 0, STATIC
        FUNCALL LCD_clear, SendByte
        LOCFRAME ISTACK, 0, STACK
        LOCFRAME PSTACK, 0, STACK
        LOCFRAME XSTACK, 12, STACK
        LOCFRAME IOVERLAY, 0, STATIC
        LOCFRAME DOVERLAY, 0, STATIC
        ARGFRAME ISTACK, 0, STACK
        ARGFRAME PSTACK, 0, STACK
        ARGFRAME XSTACK, 12, STACK
        ARGFRAME IOVERLAY, 0, STATIC
        ARGFRAME DOVERLAY, 0, STATIC
        FUNCALL LCD_clear, SendByte
        LOCFRAME ISTACK, 0, STACK
        LOCFRAME PSTACK, 0, STACK
        LOCFRAME XSTACK, 12, STACK
        LOCFRAME IOVERLAY, 0, STATIC
        LOCFRAME DOVERLAY, 0, STATIC
        ARGFRAME ISTACK, 0, STACK
        ARGFRAME PSTACK, 0, STACK
        ARGFRAME XSTACK, 12, STACK
        ARGFRAME IOVERLAY, 0, STATIC
        ARGFRAME DOVERLAY, 0, STATIC
        FUNCALL LCD_clear, SendByte
        LOCFRAME ISTACK, 0, STACK
        LOCFRAME PSTACK, 0, STACK
        LOCFRAME XSTACK, 12, STACK
        LOCFRAME IOVERLAY, 0, STATIC
        LOCFRAME DOVERLAY, 0, STATIC
        ARGFRAME ISTACK, 0, STACK
        ARGFRAME PSTACK, 0, STACK
        ARGFRAME XSTACK, 12, STACK
        ARGFRAME IOVERLAY, 0, STATIC
        ARGFRAME DOVERLAY, 0, STATIC
        FUNCALL LCD_clear, SendByte
        LOCFRAME ISTACK, 0, STACK
        LOCFRAME PSTACK, 0, STACK
        LOCFRAME XSTACK, 12, STACK
        LOCFRAME IOVERLAY, 0, STATIC
        LOCFRAME DOVERLAY, 0, STATIC
        ARGFRAME ISTACK, 0, STACK
        ARGFRAME PSTACK, 0, STACK
        ARGFRAME XSTACK, 12, STACK
        ARGFRAME IOVERLAY, 0, STATIC
        ARGFRAME DOVERLAY, 0, STATIC
        FUNCALL LCD_clear, SendByte
        LOCFRAME ISTACK, 0, STACK
        LOCFRAME PSTACK, 0, STACK
        LOCFRAME XSTACK, 12, STACK
        LOCFRAME IOVERLAY, 0, STATIC
        LOCFRAME DOVERLAY, 0, STATIC
        ARGFRAME ISTACK, 0, STACK
        ARGFRAME PSTACK, 0, STACK
        ARGFRAME XSTACK, 12, STACK
        ARGFRAME IOVERLAY, 0, STATIC
        ARGFRAME DOVERLAY, 0, STATIC
        FUNCALL LCD_clear, SendByte
        LOCFRAME ISTACK, 0, STACK
        LOCFRAME PSTACK, 0, STACK
        LOCFRAME XSTACK, 12, STACK
        LOCFRAME IOVERLAY, 0, STATIC
        LOCFRAME DOVERLAY, 0, STATIC
        ARGFRAME ISTACK, 0, STACK
        ARGFRAME PSTACK, 0, STACK
        ARGFRAME XSTACK, 12, STACK
        ARGFRAME IOVERLAY, 0, STATIC
        ARGFRAME DOVERLAY, 0, STATIC
        FUNCALL LCD_clear, SendByte
        LOCFRAME ISTACK, 0, STACK
        LOCFRAME PSTACK, 0, STACK
        LOCFRAME XSTACK, 12, STACK
        LOCFRAME IOVERLAY, 0, STATIC
        LOCFRAME DOVERLAY, 0, STATIC
        ARGFRAME ISTACK, 0, STACK
        ARGFRAME PSTACK, 0, STACK
        ARGFRAME XSTACK, 12, STACK
        ARGFRAME IOVERLAY, 0, STATIC
        ARGFRAME DOVERLAY, 0, STATIC
        FUNCALL LCD_clear, SendByte
        LOCFRAME ISTACK, 0, STACK
        LOCFRAME PSTACK, 0, STACK
        LOCFRAME XSTACK, 12, STACK
        LOCFRAME IOVERLAY, 0, STATIC
        LOCFRAME DOVERLAY, 0, STATIC
        ARGFRAME ISTACK, 0, STACK
        ARGFRAME PSTACK, 0, STACK
        ARGFRAME XSTACK, 12, STACK
        ARGFRAME IOVERLAY, 0, STATIC
        ARGFRAME DOVERLAY, 0, STATIC
        FUNCALL LCD_clear, SendByte
        LOCFRAME ISTACK, 0, STACK
        LOCFRAME PSTACK, 0, STACK
        LOCFRAME XSTACK, 12, STACK
        LOCFRAME IOVERLAY, 0, STATIC
        LOCFRAME DOVERLAY, 0, STATIC
        ARGFRAME ISTACK, 0, STACK
        ARGFRAME PSTACK, 0, STACK
        ARGFRAME XSTACK, 12, STACK
        ARGFRAME IOVERLAY, 0, STATIC
        ARGFRAME DOVERLAY, 0, STATIC
        FUNCALL LCD_clear, SendByte
        LOCFRAME ISTACK, 0, STACK
        LOCFRAME PSTACK, 0, STACK
        LOCFRAME XSTACK, 12, STACK
        LOCFRAME IOVERLAY, 0, STATIC
        LOCFRAME DOVERLAY, 0, STATIC
        ARGFRAME ISTACK, 0, STACK
        ARGFRAME PSTACK, 0, STACK
        ARGFRAME XSTACK, 12, STACK
        ARGFRAME IOVERLAY, 0, STATIC
        ARGFRAME DOVERLAY, 0, STATIC
        FUNCALL LCD_clear, SendByte
        LOCFRAME ISTACK, 0, STACK
        LOCFRAME PSTACK, 0, STACK
        LOCFRAME XSTACK, 12, STACK
        LOCFRAME IOVERLAY, 0, STATIC
        LOCFRAME DOVERLAY, 0, STATIC
        ARGFRAME ISTACK, 0, STACK
        ARGFRAME PSTACK, 0, STACK
        ARGFRAME XSTACK, 12, STACK
        ARGFRAME IOVERLAY, 0, STATIC
        ARGFRAME DOVERLAY, 0, STATIC
        FUNCALL LCD_clear, SendByte
        LOCFRAME ISTACK, 0, STACK
        LOCFRAME PSTACK, 0, STACK
        LOCFRAME XSTACK, 12, STACK
        LOCFRAME IOVERLAY, 0, STATIC
        LOCFRAME DOVERLAY, 0, STATIC
        ARGFRAME ISTACK, 0, STACK
        ARGFRAME PSTACK, 0, STACK
        ARGFRAME XSTACK, 12, STACK
        ARGFRAME IOVERLAY, 0, STATIC
        ARGFRAME DOVERLAY, 0, STATIC
        FUNCALL LCD_clear, SendByte
        LOCFRAME ISTACK, 0, STACK
        LOCFRAME PSTACK, 0, STACK
        LOCFRAME XSTACK, 12, STACK
        LOCFRAME IOVERLAY, 0, STATIC
        LOCFRAME DOVERLAY, 0, STATIC
        ARGFRAME ISTACK, 0, STACK
        ARGFRAME PSTACK, 0, STACK
        ARGFRAME XSTACK, 12, STACK
        ARGFRAME IOVERLAY, 0, STATIC
        ARGFRAME DOVERLAY, 0, STATIC
        FUNCALL LCD_clear, SendByte
        LOCFRAME ISTACK, 0, STACK
        LOCFRAME PSTACK, 0, STACK
        LOCFRAME XSTACK, 12, STACK
        LOCFRAME IOVERLAY, 0, STATIC
        LOCFRAME DOVERLAY, 0, STATIC
        ARGFRAME ISTACK, 0, STACK
        ARGFRAME PSTACK, 0, STACK
        ARGFRAME XSTACK, 12, STACK
        ARGFRAME IOVERLAY, 0, STATIC
        ARGFRAME DOVERLAY, 0, STATIC
        FUNCALL LCD_clear, SendByte
        LOCFRAME ISTACK, 0, STACK
        LOCFRAME PSTACK, 0, STACK
        LOCFRAME XSTACK, 12, STACK
        LOCFRAME IOVERLAY, 0, STATIC
        LOCFRAME DOVERLAY, 0, STATIC
        ARGFRAME ISTACK, 0, STACK
        ARGFRAME PSTACK, 0, STACK
        ARGFRAME XSTACK, 12, STACK
        ARGFRAME IOVERLAY, 0, STATIC
        ARGFRAME DOVERLAY, 0, STATIC
        FUNCALL LCD_clear, SendByte
        LOCFRAME ISTACK, 0, STACK
        LOCFRAME PSTACK, 0, STACK
        LOCFRAME XSTACK, 12, STACK
        LOCFRAME IOVERLAY, 0, STATIC
        LOCFRAME DOVERLAY, 0, STATIC
        ARGFRAME ISTACK, 0, STACK
        ARGFRAME PSTACK, 0, STACK
        ARGFRAME XSTACK, 12, STACK
        ARGFRAME IOVERLAY, 0, STATIC
        ARGFRAME DOVERLAY, 0, STATIC
        FUNCALL LCD_clear, SendByte
        LOCFRAME ISTACK, 0, STACK
        LOCFRAME PSTACK, 0, STACK
        LOCFRAME XSTACK, 12, STACK
        LOCFRAME IOVERLAY, 0, STATIC
        LOCFRAME DOVERLAY, 0, STATIC
        ARGFRAME ISTACK, 0, STACK
        ARGFRAME PSTACK, 0, STACK
        ARGFRAME XSTACK, 12, STACK
        ARGFRAME IOVERLAY, 0, STATIC
        ARGFRAME DOVERLAY, 0, STATIC
        FUNCALL LCD_clear, SendByte
        LOCFRAME ISTACK, 0, STACK
        LOCFRAME PSTACK, 0, STACK
        LOCFRAME XSTACK, 12, STACK
        LOCFRAME IOVERLAY, 0, STATIC
        LOCFRAME DOVERLAY, 0, STATIC
        ARGFRAME ISTACK, 0, STACK
        ARGFRAME PSTACK, 0, STACK
        ARGFRAME XSTACK, 12, STACK
        ARGFRAME IOVERLAY, 0, STATIC
        ARGFRAME DOVERLAY, 0, STATIC
        FUNCALL LCD_clear, SendByte
        LOCFRAME ISTACK, 0, STACK
        LOCFRAME PSTACK, 0, STACK
        LOCFRAME XSTACK, 12, STACK
        LOCFRAME IOVERLAY, 0, STATIC
        LOCFRAME DOVERLAY, 0, STATIC
        ARGFRAME ISTACK, 0, STACK
        ARGFRAME PSTACK, 0, STACK
        ARGFRAME XSTACK, 12, STACK
        ARGFRAME IOVERLAY, 0, STATIC
        ARGFRAME DOVERLAY, 0, STATIC
        FUNCALL LCD_clear, SendByte
        LOCFRAME ISTACK, 0, STACK
        LOCFRAME PSTACK, 0, STACK
        LOCFRAME XSTACK, 12, STACK
        LOCFRAME IOVERLAY, 0, STATIC
        LOCFRAME DOVERLAY, 0, STATIC
        ARGFRAME ISTACK, 0, STACK
        ARGFRAME PSTACK, 0, STACK
        ARGFRAME XSTACK, 12, STACK
        ARGFRAME IOVERLAY, 0, STATIC
        ARGFRAME DOVERLAY, 0, STATIC
        FUNCALL LCD_clear, SendByte
        LOCFRAME ISTACK, 0, STACK
        LOCFRAME PSTACK, 0, STACK
        LOCFRAME XSTACK, 12, STACK
        LOCFRAME IOVERLAY, 0, STATIC
        LOCFRAME DOVERLAY, 0, STATIC
        ARGFRAME ISTACK, 0, STACK
        ARGFRAME PSTACK, 0, STACK
        ARGFRAME XSTACK, 12, STACK
        ARGFRAME IOVERLAY, 0, STATIC
        ARGFRAME DOVERLAY, 0, STATIC
        FUNCALL LCD_clear, SendByte
        LOCFRAME ISTACK, 0, STACK
        LOCFRAME PSTACK, 0, STACK
        LOCFRAME XSTACK, 12, STACK
        LOCFRAME IOVERLAY, 0, STATIC
        LOCFRAME DOVERLAY, 0, STATIC
        ARGFRAME ISTACK, 0, STACK
        ARGFRAME PSTACK, 0, STACK
        ARGFRAME XSTACK, 12, STACK
        ARGFRAME IOVERLAY, 0, STATIC
        ARGFRAME DOVERLAY, 0, STATIC
        FUNCALL LCD_clear, SendByte
        LOCFRAME ISTACK, 0, STACK
        LOCFRAME PSTACK, 0, STACK
        LOCFRAME XSTACK, 12, STACK
        LOCFRAME IOVERLAY, 0, STATIC
        LOCFRAME DOVERLAY, 0, STATIC
        ARGFRAME ISTACK, 0, STACK
        ARGFRAME PSTACK, 0, STACK
        ARGFRAME XSTACK, 12, STACK
        ARGFRAME IOVERLAY, 0, STATIC
        ARGFRAME DOVERLAY, 0, STATIC
        FUNCALL LCD_clear, SendByte
        LOCFRAME ISTACK, 0, STACK
        LOCFRAME PSTACK, 0, STACK
        LOCFRAME XSTACK, 12, STACK
        LOCFRAME IOVERLAY, 0, STATIC
        LOCFRAME DOVERLAY, 0, STATIC
        ARGFRAME ISTACK, 0, STACK
        ARGFRAME PSTACK, 0, STACK
        ARGFRAME XSTACK, 12, STACK
        ARGFRAME IOVERLAY, 0, STATIC
        ARGFRAME DOVERLAY, 0, STATIC
        FUNCALL LCD_clear, SendByte
        LOCFRAME ISTACK, 0, STACK
        LOCFRAME PSTACK, 0, STACK
        LOCFRAME XSTACK, 12, STACK
        LOCFRAME IOVERLAY, 0, STATIC
        LOCFRAME DOVERLAY, 0, STATIC
        ARGFRAME ISTACK, 0, STACK
        ARGFRAME PSTACK, 0, STACK
        ARGFRAME XSTACK, 12, STACK
        ARGFRAME IOVERLAY, 0, STATIC
        ARGFRAME DOVERLAY, 0, STATIC
        FUNCALL LCD_clear, SendByte
        LOCFRAME ISTACK, 0, STACK
        LOCFRAME PSTACK, 0, STACK
        LOCFRAME XSTACK, 12, STACK
        LOCFRAME IOVERLAY, 0, STATIC
        LOCFRAME DOVERLAY, 0, STATIC
        ARGFRAME ISTACK, 0, STACK
        ARGFRAME PSTACK, 0, STACK
        ARGFRAME XSTACK, 12, STACK
        ARGFRAME IOVERLAY, 0, STATIC
        ARGFRAME DOVERLAY, 0, STATIC
        FUNCALL LCD_clear, SendByte
        LOCFRAME ISTACK, 0, STACK
        LOCFRAME PSTACK, 0, STACK
        LOCFRAME XSTACK, 12, STACK
        LOCFRAME IOVERLAY, 0, STATIC
        LOCFRAME DOVERLAY, 0, STATIC
        ARGFRAME ISTACK, 0, STACK
        ARGFRAME PSTACK, 0, STACK
        ARGFRAME XSTACK, 12, STACK
        ARGFRAME IOVERLAY, 0, STATIC
        ARGFRAME DOVERLAY, 0, STATIC
        FUNCALL LCD_clear, SendByte
        LOCFRAME ISTACK, 0, STACK
        LOCFRAME PSTACK, 0, STACK
        LOCFRAME XSTACK, 12, STACK
        LOCFRAME IOVERLAY, 0, STATIC
        LOCFRAME DOVERLAY, 0, STATIC
        ARGFRAME ISTACK, 0, STACK
        ARGFRAME PSTACK, 0, STACK
        ARGFRAME XSTACK, 12, STACK
        ARGFRAME IOVERLAY, 0, STATIC
        ARGFRAME DOVERLAY, 0, STATIC
        FUNCALL LCD_clear, SendByte
        LOCFRAME ISTACK, 0, STACK
        LOCFRAME PSTACK, 0, STACK
        LOCFRAME XSTACK, 12, STACK
        LOCFRAME IOVERLAY, 0, STATIC
        LOCFRAME DOVERLAY, 0, STATIC
        ARGFRAME ISTACK, 0, STACK
        ARGFRAME PSTACK, 0, STACK
        ARGFRAME XSTACK, 12, STACK
        ARGFRAME IOVERLAY, 0, STATIC
        ARGFRAME DOVERLAY, 0, STATIC
        FUNCALL LCD_clear, SendByte
        LOCFRAME ISTACK, 0, STACK
        LOCFRAME PSTACK, 0, STACK
        LOCFRAME XSTACK, 12, STACK
        LOCFRAME IOVERLAY, 0, STATIC
        LOCFRAME DOVERLAY, 0, STATIC
        ARGFRAME ISTACK, 0, STACK
        ARGFRAME PSTACK, 0, STACK
        ARGFRAME XSTACK, 12, STACK
        ARGFRAME IOVERLAY, 0, STATIC
        ARGFRAME DOVERLAY, 0, STATIC
        FUNCALL LCD_clear, SendByte
        LOCFRAME ISTACK, 0, STACK
        LOCFRAME PSTACK, 0, STACK
        LOCFRAME XSTACK, 12, STACK
        LOCFRAME IOVERLAY, 0, STATIC
        LOCFRAME DOVERLAY, 0, STATIC
        ARGFRAME ISTACK, 0, STACK
        ARGFRAME PSTACK, 0, STACK
        ARGFRAME XSTACK, 12, STACK
        ARGFRAME IOVERLAY, 0, STATIC
        ARGFRAME DOVERLAY, 0, STATIC
        FUNCALL LCD_clear, SendByte
        LOCFRAME ISTACK, 0, STACK
        LOCFRAME PSTACK, 0, STACK
        LOCFRAME XSTACK, 12, STACK
        LOCFRAME IOVERLAY, 0, STATIC
        LOCFRAME DOVERLAY, 0, STATIC
        ARGFRAME ISTACK, 0, STACK
        ARGFRAME PSTACK, 0, STACK
        ARGFRAME XSTACK, 12, STACK
        ARGFRAME IOVERLAY, 0, STATIC
        ARGFRAME DOVERLAY, 0, STATIC
        FUNCALL LCD_clear, SendByte
        LOCFRAME ISTACK, 0, STACK
        LOCFRAME PSTACK, 0, STACK
        LOCFRAME XSTACK, 12, STACK
        LOCFRAME IOVERLAY, 0, STATIC
        LOCFRAME DOVERLAY, 0, STATIC
        ARGFRAME ISTACK, 0, STACK
        ARGFRAME PSTACK, 0, STACK
        ARGFRAME XSTACK, 12, STACK
        ARGFRAME IOVERLAY, 0, STATIC
        ARGFRAME DOVERLAY, 0, STATIC
        FUNCALL LCD_clear, SendByte
        LOCFRAME ISTACK, 0, STACK
        LOCFRAME PSTACK, 0, STACK
        LOCFRAME XSTACK, 12, STACK
        LOCFRAME IOVERLAY, 0, STATIC
        LOCFRAME DOVERLAY, 0, STATIC
        ARGFRAME ISTACK, 0, STACK
        ARGFRAME PSTACK, 0, STACK
        ARGFRAME XSTACK, 12, STACK
        ARGFRAME IOVERLAY, 0, STATIC
        ARGFRAME DOVERLAY, 0, STATIC
        FUNCALL LCD_clear, SendByte
        LOCFRAME ISTACK, 0, STACK
        LOCFRAME PSTACK, 0, STACK
        LOCFRAME XSTACK, 12, STACK
        LOCFRAME IOVERLAY, 0, STATIC
        LOCFRAME DOVERLAY, 0, STATIC
        ARGFRAME ISTACK, 0, STACK
        ARGFRAME PSTACK, 0, STACK
        ARGFRAME XSTACK, 12, STACK
        ARGFRAME IOVERLAY, 0, STATIC
        ARGFRAME DOVERLAY, 0, STATIC
        FUNCALL LCD_clear, SendByte
        LOCFRAME ISTACK, 0, STACK
        LOCFRAME PSTACK, 0, STACK
        LOCFRAME XSTACK, 12, STACK
        LOCFRAME IOVERLAY, 0, STATIC
        LOCFRAME DOVERLAY, 0, STATIC
        ARGFRAME ISTACK, 0, STACK
        ARGFRAME PSTACK, 0, STACK
        ARGFRAME XSTACK, 12, STACK
        ARGFRAME IOVERLAY, 0, STATIC
        ARGFRAME DOVERLAY, 0, STATIC
        FUNCALL LCD_clear, SendByte
        LOCFRAME ISTACK, 0, STACK
        LOCFRAME PSTACK, 0, STACK
        LOCFRAME XSTACK, 12, STACK
        LOCFRAME IOVERLAY, 0, STATIC
        LOCFRAME DOVERLAY, 0, STATIC
        ARGFRAME ISTACK, 0, STACK
        ARGFRAME PSTACK, 0, STACK
        ARGFRAME XSTACK, 12, STACK
        ARGFRAME IOVERLAY, 0, STATIC
        ARGFRAME DOVERLAY, 0, STATIC
        FUNCALL LCD_clear, SendByte
        LOCFRAME ISTACK, 0, STACK
        LOCFRAME PSTACK, 0, STACK
        LOCFRAME XSTACK, 12, STACK
        LOCFRAME IOVERLAY, 0, STATIC
        LOCFRAME DOVERLAY, 0, STATIC
        ARGFRAME ISTACK, 0, STACK
        ARGFRAME PSTACK, 0, STACK
        ARGFRAME XSTACK, 12, STACK
        ARGFRAME IOVERLAY, 0, STATIC
        ARGFRAME DOVERLAY, 0, STATIC
        FUNCALL LCD_clear, SendByte
        LOCFRAME ISTACK, 0, STACK
        LOCFRAME PSTACK, 0, STACK
        LOCFRAME XSTACK, 12, STACK
        LOCFRAME IOVERLAY, 0, STATIC
        LOCFRAME DOVERLAY, 0, STATIC
        ARGFRAME ISTACK, 0, STACK
        ARGFRAME PSTACK, 0, STACK
        ARGFRAME XSTACK, 12, STACK
        ARGFRAME IOVERLAY, 0, STATIC
        ARGFRAME DOVERLAY, 0, STATIC
        FUNCALL LCD_clear, SendByte
        LOCFRAME ISTACK, 0, STACK
        LOCFRAME PSTACK, 0, STACK
        LOCFRAME XSTACK, 12, STACK
        LOCFRAME IOVERLAY, 0, STATIC
        LOCFRAME DOVERLAY, 0, STATIC
        ARGFRAME ISTACK, 0, STACK
        ARGFRAME PSTACK, 0, STACK
        ARGFRAME XSTACK, 12, STACK
        ARGFRAME IOVERLAY, 0, STATIC
        ARGFRAME DOVERLAY, 0, STATIC
        FUNCALL LCD_clear, SendByte
        LOCFRAME ISTACK, 0, STACK
        LOCFRAME PSTACK, 0, STACK
        LOCFRAME XSTACK, 12, STACK
        LOCFRAME IOVERLAY, 0, STATIC
        LOCFRAME DOVERLAY, 0, STATIC
        ARGFRAME ISTACK, 0, STACK
        ARGFRAME PSTACK, 0, STACK
        ARGFRAME XSTACK, 12, STACK
        ARGFRAME IOVERLAY, 0, STATIC
        ARGFRAME DOVERLAY, 0, STATIC
        FUNCALL LCD_clear, SendByte
        LOCFRAME ISTACK, 0, STACK
        LOCFRAME PSTACK, 0, STACK
        LOCFRAME XSTACK, 12, STACK
        LOCFRAME IOVERLAY, 0, STATIC
        LOCFRAME DOVERLAY, 0, STATIC
        ARGFRAME ISTACK, 0, STACK
        ARGFRAME PSTACK, 0, STACK
        ARGFRAME XSTACK, 12, STACK
        ARGFRAME IOVERLAY, 0, STATIC
        ARGFRAME DOVERLAY, 0, STATIC
        FUNCALL LCD_clear, SendByte
        LOCFRAME ISTACK, 0, STACK
        LOCFRAME PSTACK, 0, STACK
        LOCFRAME XSTACK, 12, STACK
        LOCFRAME IOVERLAY, 0, STATIC
        LOCFRAME DOVERLAY, 0, STATIC
        ARGFRAME ISTACK, 0, STACK
        ARGFRAME PSTACK, 0, STACK
        ARGFRAME XSTACK, 12, STACK
        ARGFRAME IOVERLAY, 0, STATIC
        ARGFRAME DOVERLAY, 0, STATIC
        FUNCALL LCD_clear, SendByte
        LOCFRAME ISTACK, 0, STACK
        LOCFRAME PSTACK, 0, STACK
        LOCFRAME XSTACK, 12, STACK
        LOCFRAME IOVERLAY, 0, STATIC
        LOCFRAME DOVERLAY, 0, STATIC
        ARGFRAME ISTACK, 0, STACK
        ARGFRAME PSTACK, 0, STACK
        ARGFRAME XSTACK, 12, STACK
        ARGFRAME IOVERLAY, 0, STATIC
        ARGFRAME DOVERLAY, 0, STATIC
        FUNCALL LCD_clear, SendByte
        LOCFRAME ISTACK, 0, STACK
        LOCFRAME PSTACK, 0, STACK
        LOCFRAME XSTACK, 12, STACK
        LOCFRAME IOVERLAY, 0, STATIC
        LOCFRAME DOVERLAY, 0, STATIC
        ARGFRAME ISTACK, 0, STACK
        ARGFRAME PSTACK, 0, STACK
        ARGFRAME XSTACK, 12, STACK
        ARGFRAME IOVERLAY, 0, STATIC
        ARGFRAME DOVERLAY, 0, STATIC
        FUNCALL LCD_clear, SendByte
        LOCFRAME ISTACK, 0, STACK
        LOCFRAME PSTACK, 0, STACK
        LOCFRAME XSTACK, 12, STACK
        LOCFRAME IOVERLAY, 0, STATIC
        LOCFRAME DOVERLAY, 0, STATIC
        ARGFRAME ISTACK, 0, STACK
        ARGFRAME PSTACK, 0, STACK
        ARGFRAME XSTACK, 12, STACK
        ARGFRAME IOVERLAY, 0, STATIC
        ARGFRAME DOVERLAY, 0, STATIC
        FUNCALL LCD_clear, SendByte
        LOCFRAME ISTACK, 0, STACK
        LOCFRAME PSTACK, 0, STACK
        LOCFRAME XSTACK, 12, STACK
        LOCFRAME IOVERLAY, 0, STATIC
        LOCFRAME DOVERLAY, 0, STATIC
        ARGFRAME ISTACK, 0, STACK
        ARGFRAME PSTACK, 0, STACK
        ARGFRAME XSTACK, 12, STACK
        ARGFRAME IOVERLAY, 0, STATIC
        ARGFRAME DOVERLAY, 0, STATIC
        FUNCALL LCD_clear, SendByte
        LOCFRAME ISTACK, 0, STACK
        LOCFRAME PSTACK, 0, STACK
        LOCFRAME XSTACK, 12, STACK
        LOCFRAME IOVERLAY, 0, STATIC
        LOCFRAME DOVERLAY, 0, STATIC
        ARGFRAME ISTACK, 0, STACK
        ARGFRAME PSTACK, 0, STACK
        ARGFRAME XSTACK, 12, STACK
        ARGFRAME IOVERLAY, 0, STATIC
        ARGFRAME DOVERLAY, 0, STATIC
        FUNCALL LCD_clear, SendByte
        LOCFRAME ISTACK, 0, STACK
        LOCFRAME PSTACK, 0, STACK
        LOCFRAME XSTACK, 12, STACK
        LOCFRAME IOVERLAY, 0, STATIC
        LOCFRAME DOVERLAY, 0, STATIC
        ARGFRAME ISTACK, 0, STACK
        ARGFRAME PSTACK, 0, STACK
        ARGFRAME XSTACK, 12, STACK
        ARGFRAME IOVERLAY, 0, STATIC
        ARGFRAME DOVERLAY, 0, STATIC
        FUNCALL LCD_clear, SendByte
        LOCFRAME ISTACK, 0, STACK
        LOCFRAME PSTACK, 0, STACK
        LOCFRAME XSTACK, 12, STACK
        LOCFRAME IOVERLAY, 0, STATIC
        LOCFRAME DOVERLAY, 0, STATIC
        ARGFRAME ISTACK, 0, STACK
        ARGFRAME PSTACK, 0, STACK
        ARGFRAME XSTACK, 12, STACK
        ARGFRAME IOVERLAY, 0, STATIC
        ARGFRAME DOVERLAY, 0, STATIC
        FUNCALL LCD_clear, SendByte
        LOCFRAME ISTACK, 0, STACK
        LOCFRAME PSTACK, 0, STACK
        LOCFRAME XSTACK, 12, STACK
        LOCFRAME IOVERLAY, 0, STATIC
        LOCFRAME DOVERLAY, 0, STATIC
        ARGFRAME ISTACK, 0, STACK
        ARGFRAME PSTACK, 0, STACK
        ARGFRAME XSTACK, 12, STACK
        ARGFRAME IOVERLAY, 0, STATIC
        ARGFRAME DOVERLAY, 0, STATIC
        FUNCALL LCD_clear, SendByte
        LOCFRAME ISTACK, 0, STACK
        LOCFRAME PSTACK, 0, STACK
        LOCFRAME XSTACK, 12, STACK
        LOCFRAME IOVERLAY, 0, STATIC
        LOCFRAME DOVERLAY, 0, STATIC
        ARGFRAME ISTACK, 0, STACK
        ARGFRAME PSTACK, 0, STACK
        ARGFRAME XSTACK, 12, STACK
        ARGFRAME IOVERLAY, 0, STATIC
        ARGFRAME DOVERLAY, 0, STATIC
        FUNCALL LCD_clear, SendByte
        LOCFRAME ISTACK, 0, STACK
        LOCFRAME PSTACK, 0, STACK
        LOCFRAME XSTACK, 12, STACK
        LOCFRAME IOVERLAY, 0, STATIC
        LOCFRAME DOVERLAY, 0, STATIC
        ARGFRAME ISTACK, 0, STACK
        ARGFRAME PSTACK, 0, STACK
        ARGFRAME XSTACK, 12, STACK
        ARGFRAME IOVERLAY, 0, STATIC
        ARGFRAME DOVERLAY, 0, STATIC
        FUNCALL LCD_clear, SendByte
        LOCFRAME ISTACK, 0, STACK
        LOCFRAME PSTACK, 0, STACK
        LOCFRAME XSTACK, 12, STACK
        LOCFRAME IOVERLAY, 0, STATIC
        LOCFRAME DOVERLAY, 0, STATIC
        ARGFRAME ISTACK, 0, STACK
        ARGFRAME PSTACK, 0, STACK
        ARGFRAME XSTACK, 12, STACK
        ARGFRAME IOVERLAY, 0, STATIC
        ARGFRAME DOVERLAY, 0, STATIC
        FUNCALL LCD_clear, SendByte
        LOCFRAME ISTACK, 0, STACK
        LOCFRAME PSTACK, 0, STACK
        LOCFRAME XSTACK, 12, STACK
        LOCFRAME IOVERLAY, 0, STATIC
        LOCFRAME DOVERLAY, 0, STATIC
        ARGFRAME ISTACK, 0, STACK
        ARGFRAME PSTACK, 0, STACK
        ARGFRAME XSTACK, 12, STACK
        ARGFRAME IOVERLAY, 0, STATIC
        ARGFRAME DOVERLAY, 0, STATIC
        FUNCALL LCD_clear, SendByte
        LOCFRAME ISTACK, 0, STACK
        LOCFRAME PSTACK, 0, STACK
        LOCFRAME XSTACK, 12, STACK
        LOCFRAME IOVERLAY, 0, STATIC
        LOCFRAME DOVERLAY, 0, STATIC
        ARGFRAME ISTACK, 0, STACK
        ARGFRAME PSTACK, 0, STACK
        ARGFRAME XSTACK, 12, STACK
        ARGFRAME IOVERLAY, 0, STATIC
        ARGFRAME DOVERLAY, 0, STATIC
        FUNCALL LCD_clear, SendByte
        LOCFRAME ISTACK, 0, STACK
        LOCFRAME PSTACK, 0, STACK
        LOCFRAME XSTACK, 12, STACK
        LOCFRAME IOVERLAY, 0, STATIC
        LOCFRAME DOVERLAY, 0, STATIC
        ARGFRAME ISTACK, 0, STACK
        ARGFRAME PSTACK, 0, STACK
        ARGFRAME XSTACK, 12, STACK
        ARGFRAME IOVERLAY, 0, STATIC
        ARGFRAME DOVERLAY, 0, STATIC
        FUNCALL LCD_clear, SendByte
        LOCFRAME ISTACK, 0, STACK
        LOCFRAME PSTACK, 0, STACK
        LOCFRAME XSTACK, 12, STACK
        LOCFRAME IOVERLAY, 0, STATIC
        LOCFRAME DOVERLAY, 0, STATIC
        ARGFRAME ISTACK, 0, STACK
        ARGFRAME PSTACK, 0, STACK
        ARGFRAME XSTACK, 12, STACK
        ARGFRAME IOVERLAY, 0, STATIC
        ARGFRAME DOVERLAY, 0, STATIC
        FUNCALL LCD_clear, SendByte
        LOCFRAME ISTACK, 0, STACK
        LOCFRAME PSTACK, 0, STACK
        LOCFRAME XSTACK, 12, STACK
        LOCFRAME IOVERLAY, 0, STATIC
        LOCFRAME DOVERLAY, 0, STATIC
        ARGFRAME ISTACK, 0, STACK
        ARGFRAME PSTACK, 0, STACK
        ARGFRAME XSTACK, 12, STACK
        ARGFRAME IOVERLAY, 0, STATIC
        ARGFRAME DOVERLAY, 0, STATIC
        FUNCALL LCD_clear, SendByte
        LOCFRAME ISTACK, 0, STACK
        LOCFRAME PSTACK, 0, STACK
        LOCFRAME XSTACK, 12, STACK
        LOCFRAME IOVERLAY, 0, STATIC
        LOCFRAME DOVERLAY, 0, STATIC
        ARGFRAME ISTACK, 0, STACK
        ARGFRAME PSTACK, 0, STACK
        ARGFRAME XSTACK, 12, STACK
        ARGFRAME IOVERLAY, 0, STATIC
        ARGFRAME DOVERLAY, 0, STATIC
        FUNCALL LCD_clear, SendByte
        LOCFRAME ISTACK, 0, STACK
        LOCFRAME PSTACK, 0, STACK
        LOCFRAME XSTACK, 12, STACK
        LOCFRAME IOVERLAY, 0, STATIC
        LOCFRAME DOVERLAY, 0, STATIC
        ARGFRAME ISTACK, 0, STACK
        ARGFRAME PSTACK, 0, STACK
        ARGFRAME XSTACK, 12, STACK
        ARGFRAME IOVERLAY, 0, STATIC
        ARGFRAME DOVERLAY, 0, STATIC
        FUNCALL LCD_clear, SendByte
        LOCFRAME ISTACK, 0, STACK
        LOCFRAME PSTACK, 0, STACK
        LOCFRAME XSTACK, 12, STACK
        LOCFRAME IOVERLAY, 0, STATIC
        LOCFRAME DOVERLAY, 0, STATIC
        ARGFRAME ISTACK, 0, STACK
        ARGFRAME PSTACK, 0, STACK
        ARGFRAME XSTACK, 12, STACK
        ARGFRAME IOVERLAY, 0, STATIC
        ARGFRAME DOVERLAY, 0, STATIC
        FUNCALL LCD_clear, SendByte
        LOCFRAME ISTACK, 0, STACK
        LOCFRAME PSTACK, 0, STACK
        LOCFRAME XSTACK, 12, STACK
        LOCFRAME IOVERLAY, 0, STATIC
        LOCFRAME DOVERLAY, 0, STATIC
        ARGFRAME ISTACK, 0, STACK
        ARGFRAME PSTACK, 0, STACK
        ARGFRAME XSTACK, 12, STACK
        ARGFRAME IOVERLAY, 0, STATIC
        ARGFRAME DOVERLAY, 0, STATIC
        FUNCALL LCD_clear, SendByte
        LOCFRAME ISTACK, 0, STACK
        LOCFRAME PSTACK, 0, STACK
        LOCFRAME XSTACK, 12, STACK
        LOCFRAME IOVERLAY, 0, STATIC
        LOCFRAME DOVERLAY, 0, STATIC
        ARGFRAME ISTACK, 0, STACK
        ARGFRAME PSTACK, 0, STACK
        ARGFRAME XSTACK, 12, STACK
        ARGFRAME IOVERLAY, 0, STATIC
        ARGFRAME DOVERLAY, 0, STATIC
        FUNCALL LCD_clear, SendByte
        LOCFRAME ISTACK, 0, STACK
        LOCFRAME PSTACK, 0, STACK
        LOCFRAME XSTACK, 12, STACK
        LOCFRAME IOVERLAY, 0, STATIC
        LOCFRAME DOVERLAY, 0, STATIC
        ARGFRAME ISTACK, 0, STACK
        ARGFRAME PSTACK, 0, STACK
        ARGFRAME XSTACK, 12, STACK
        ARGFRAME IOVERLAY, 0, STATIC
        ARGFRAME DOVERLAY, 0, STATIC
        FUNCALL LCD_clear, SendByte
        LOCFRAME ISTACK, 0, STACK
        LOCFRAME PSTACK, 0, STACK
        LOCFRAME XSTACK, 12, STACK
        LOCFRAME IOVERLAY, 0, STATIC
        LOCFRAME DOVERLAY, 0, STATIC
        ARGFRAME ISTACK, 0, STACK
        ARGFRAME PSTACK, 0, STACK
        ARGFRAME XSTACK, 12, STACK
        ARGFRAME IOVERLAY, 0, STATIC
        ARGFRAME DOVERLAY, 0, STATIC
        FUNCALL LCD_clear, SendByte
        LOCFRAME ISTACK, 0, STACK
        LOCFRAME PSTACK, 0, STACK
        LOCFRAME XSTACK, 12, STACK
        LOCFRAME IOVERLAY, 0, STATIC
        LOCFRAME DOVERLAY, 0, STATIC
        ARGFRAME ISTACK, 0, STACK
        ARGFRAME PSTACK, 0, STACK
        ARGFRAME XSTACK, 12, STACK
        ARGFRAME IOVERLAY, 0, STATIC
        ARGFRAME DOVERLAY, 0, STATIC
        FUNCALL LCD_clear, SendByte
        LOCFRAME ISTACK, 0, STACK
        LOCFRAME PSTACK, 0, STACK
        LOCFRAME XSTACK, 12, STACK
        LOCFRAME IOVERLAY, 0, STATIC
        LOCFRAME DOVERLAY, 0, STATIC
        ARGFRAME ISTACK, 0, STACK
        ARGFRAME PSTACK, 0, STACK
        ARGFRAME XSTACK, 12, STACK
        ARGFRAME IOVERLAY, 0, STATIC
        ARGFRAME DOVERLAY, 0, STATIC
        FUNCALL LCD_clear, SendByte
        LOCFRAME ISTACK, 0, STACK
        LOCFRAME PSTACK, 0, STACK
        LOCFRAME XSTACK, 12, STACK
        LOCFRAME IOVERLAY, 0, STATIC
        LOCFRAME DOVERLAY, 0, STATIC
        ARGFRAME ISTACK, 0, STACK
        ARGFRAME PSTACK, 0, STACK
        ARGFRAME XSTACK, 12, STACK
        ARGFRAME IOVERLAY, 0, STATIC
        ARGFRAME DOVERLAY, 0, STATIC
        FUNCALL LCD_clear, SendByte
        LOCFRAME ISTACK, 0, STACK
        LOCFRAME PSTACK, 0, STACK
        LOCFRAME XSTACK, 12, STACK
        LOCFRAME IOVERLAY, 0, STATIC
        LOCFRAME DOVERLAY, 0, STATIC
        ARGFRAME ISTACK, 0, STACK
        ARGFRAME PSTACK, 0, STACK
        ARGFRAME XSTACK, 12, STACK
        ARGFRAME IOVERLAY, 0, STATIC
        ARGFRAME DOVERLAY, 0, STATIC
        FUNCALL LCD_clear, SendByte
        LOCFRAME ISTACK, 0, STACK
        LOCFRAME PSTACK, 0, STACK
        LOCFRAME XSTACK, 12, STACK
        LOCFRAME IOVERLAY, 0, STATIC
        LOCFRAME DOVERLAY, 0, STATIC
        ARGFRAME ISTACK, 0, STACK
        ARGFRAME PSTACK, 0, STACK
        ARGFRAME XSTACK, 12, STACK
        ARGFRAME IOVERLAY, 0, STATIC
        ARGFRAME DOVERLAY, 0, STATIC
        FUNCALL LCD_clear, SendByte
        LOCFRAME ISTACK, 0, STACK
        LOCFRAME PSTACK, 0, STACK
        LOCFRAME XSTACK, 12, STACK
        LOCFRAME IOVERLAY, 0, STATIC
        LOCFRAME DOVERLAY, 0, STATIC
        ARGFRAME ISTACK, 0, STACK
        ARGFRAME PSTACK, 0, STACK
        ARGFRAME XSTACK, 12, STACK
        ARGFRAME IOVERLAY, 0, STATIC
        ARGFRAME DOVERLAY, 0, STATIC
        FUNCALL LCD_clear, SendByte
        LOCFRAME ISTACK, 0, STACK
        LOCFRAME PSTACK, 0, STACK
        LOCFRAME XSTACK, 12, STACK
        LOCFRAME IOVERLAY, 0, STATIC
        LOCFRAME DOVERLAY, 0, STATIC
        ARGFRAME ISTACK, 0, STACK
        ARGFRAME PSTACK, 0, STACK
        ARGFRAME XSTACK, 12, STACK
        ARGFRAME IOVERLAY, 0, STATIC
        ARGFRAME DOVERLAY, 0, STATIC
        FUNCALL LCD_clear, SendByte
        LOCFRAME ISTACK, 0, STACK
        LOCFRAME PSTACK, 0, STACK
        LOCFRAME XSTACK, 12, STACK
        LOCFRAME IOVERLAY, 0, STATIC
        LOCFRAME DOVERLAY, 0, STATIC
        ARGFRAME ISTACK, 0, STACK
        ARGFRAME PSTACK, 0, STACK
        ARGFRAME XSTACK, 12, STACK
        ARGFRAME IOVERLAY, 0, STATIC
        ARGFRAME DOVERLAY, 0, STATIC
        FUNCALL LCD_clear, SendByte
        LOCFRAME ISTACK, 0, STACK
        LOCFRAME PSTACK, 0, STACK
        LOCFRAME XSTACK, 12, STACK
        LOCFRAME IOVERLAY, 0, STATIC
        LOCFRAME DOVERLAY, 0, STATIC
        ARGFRAME ISTACK, 0, STACK
        ARGFRAME PSTACK, 0, STACK
        ARGFRAME XSTACK, 12, STACK
        ARGFRAME IOVERLAY, 0, STATIC
        ARGFRAME DOVERLAY, 0, STATIC
        FUNCALL LCD_clear, SendByte
        LOCFRAME ISTACK, 0, STACK
        LOCFRAME PSTACK, 0, STACK
        LOCFRAME XSTACK, 12, STACK
        LOCFRAME IOVERLAY, 0, STATIC
        LOCFRAME DOVERLAY, 0, STATIC
        ARGFRAME ISTACK, 0, STACK
        ARGFRAME PSTACK, 0, STACK
        ARGFRAME XSTACK, 12, STACK
        ARGFRAME IOVERLAY, 0, STATIC
        ARGFRAME DOVERLAY, 0, STATIC
        FUNCALL LCD_clear, SendByte
        LOCFRAME ISTACK, 0, STACK
        LOCFRAME PSTACK, 0, STACK
        LOCFRAME XSTACK, 12, STACK
        LOCFRAME IOVERLAY, 0, STATIC
        LOCFRAME DOVERLAY, 0, STATIC
        ARGFRAME ISTACK, 0, STACK
        ARGFRAME PSTACK, 0, STACK
        ARGFRAME XSTACK, 12, STACK
        ARGFRAME IOVERLAY, 0, STATIC
        ARGFRAME DOVERLAY, 0, STATIC
        FUNCALL LCD_clear, SendByte
        LOCFRAME ISTACK, 0, STACK
        LOCFRAME PSTACK, 0, STACK
        LOCFRAME XSTACK, 12, STACK
        LOCFRAME IOVERLAY, 0, STATIC
        LOCFRAME DOVERLAY, 0, STATIC
        ARGFRAME ISTACK, 0, STACK
        ARGFRAME PSTACK, 0, STACK
        ARGFRAME XSTACK, 12, STACK
        ARGFRAME IOVERLAY, 0, STATIC
        ARGFRAME DOVERLAY, 0, STATIC
        FUNCALL LCD_clear, SendByte
        LOCFRAME ISTACK, 0, STACK
        LOCFRAME PSTACK, 0, STACK
        LOCFRAME XSTACK, 12, STACK
        LOCFRAME IOVERLAY, 0, STATIC
        LOCFRAME DOVERLAY, 0, STATIC
        ARGFRAME ISTACK, 0, STACK
        ARGFRAME PSTACK, 0, STACK
        ARGFRAME XSTACK, 12, STACK
        ARGFRAME IOVERLAY, 0, STATIC
        ARGFRAME DOVERLAY, 0, STATIC
        FUNCALL LCD_clear, SendByte
        LOCFRAME ISTACK, 0, STACK
        LOCFRAME PSTACK, 0, STACK
        LOCFRAME XSTACK, 12, STACK
        LOCFRAME IOVERLAY, 0, STATIC
        LOCFRAME DOVERLAY, 0, STATIC
        ARGFRAME ISTACK, 0, STACK
        ARGFRAME PSTACK, 0, STACK
        ARGFRAME XSTACK, 12, STACK
        ARGFRAME IOVERLAY, 0, STATIC
        ARGFRAME DOVERLAY, 0, STATIC
        FUNCALL LCD_clear, SendByte
        LOCFRAME ISTACK, 0, STACK
        LOCFRAME PSTACK, 0, STACK
        LOCFRAME XSTACK, 12, STACK
        LOCFRAME IOVERLAY, 0, STATIC
        LOCFRAME DOVERLAY, 0, STATIC
        ARGFRAME ISTACK, 0, STACK
        ARGFRAME PSTACK, 0, STACK
        ARGFRAME XSTACK, 12, STACK
        ARGFRAME IOVERLAY, 0, STATIC
        ARGFRAME DOVERLAY, 0, STATIC
        FUNCALL LCD_clear, SendByte
        LOCFRAME ISTACK, 0, STACK
        LOCFRAME PSTACK, 0, STACK
        LOCFRAME XSTACK, 12, STACK
        LOCFRAME IOVERLAY, 0, STATIC
        LOCFRAME DOVERLAY, 0, STATIC
        ARGFRAME ISTACK, 0, STACK
        ARGFRAME PSTACK, 0, STACK
        ARGFRAME XSTACK, 12, STACK
        ARGFRAME IOVERLAY, 0, STATIC
        ARGFRAME DOVERLAY, 0, STATIC
        FUNCALL LCD_clear, SendByte
        LOCFRAME ISTACK, 0, STACK
        LOCFRAME PSTACK, 0, STACK
        LOCFRAME XSTACK, 12, STACK
        LOCFRAME IOVERLAY, 0, STATIC
        LOCFRAME DOVERLAY, 0, STATIC
        ARGFRAME ISTACK, 0, STACK
        ARGFRAME PSTACK, 0, STACK
        ARGFRAME XSTACK, 12, STACK
        ARGFRAME IOVERLAY, 0, STATIC
        ARGFRAME DOVERLAY, 0, STATIC
        FUNCALL LCD_clear, SendByte
        LOCFRAME ISTACK, 0, STACK
        LOCFRAME PSTACK, 0, STACK
        LOCFRAME XSTACK, 12, STACK
        LOCFRAME IOVERLAY, 0, STATIC
        LOCFRAME DOVERLAY, 0, STATIC
        ARGFRAME ISTACK, 0, STACK
        ARGFRAME PSTACK, 0, STACK
        ARGFRAME XSTACK, 12, STACK
        ARGFRAME IOVERLAY, 0, STATIC
        ARGFRAME DOVERLAY, 0, STATIC
        FUNCALL LCD_clear, SendByte
        LOCFRAME ISTACK, 0, STACK
        LOCFRAME PSTACK, 0, STACK
        LOCFRAME XSTACK, 12, STACK
        LOCFRAME IOVERLAY, 0, STATIC
        LOCFRAME DOVERLAY, 0, STATIC
        ARGFRAME ISTACK, 0, STACK
        ARGFRAME PSTACK, 0, STACK
        ARGFRAME XSTACK, 12, STACK
        ARGFRAME IOVERLAY, 0, STATIC
        ARGFRAME DOVERLAY, 0, STATIC
        FUNCALL LCD_clear, SendByte
        LOCFRAME ISTACK, 0, STACK
        LOCFRAME PSTACK, 0, STACK
        LOCFRAME XSTACK, 12, STACK
        LOCFRAME IOVERLAY, 0, STATIC
        LOCFRAME DOVERLAY, 0, STATIC
        ARGFRAME ISTACK, 0, STACK
        ARGFRAME PSTACK, 0, STACK
        ARGFRAME XSTACK, 12, STACK
        ARGFRAME IOVERLAY, 0, STATIC
        ARGFRAME DOVERLAY, 0, STATIC
        REQUIRE ?V0
        REQUIRE ?V1
        REQUIRE ?V2
        REQUIRE ?V3
        MOV       A,#-0xc
        LCALL     ?BANKED_ENTER_XDATA
          CFI DPH0 load(1, XDATA, add(CFA_XSP16, literal(-1)))
          CFI DPL0 load(1, XDATA, add(CFA_XSP16, literal(-2)))
          CFI ?BRET_EXT load(1, XDATA, add(CFA_XSP16, literal(-3)))
          CFI ?RET_HIGH load(1, XDATA, add(CFA_XSP16, literal(-4)))
          CFI ?RET_LOW load(1, XDATA, add(CFA_XSP16, literal(-5)))
          CFI R7 load(1, XDATA, add(CFA_XSP16, literal(-6)))
          CFI V3 load(1, XDATA, add(CFA_XSP16, literal(-7)))
          CFI V2 load(1, XDATA, add(CFA_XSP16, literal(-8)))
          CFI V1 load(1, XDATA, add(CFA_XSP16, literal(-9)))
          CFI V0 load(1, XDATA, add(CFA_XSP16, literal(-10)))
          CFI VB load(1, XDATA, add(CFA_XSP16, literal(-11)))
          CFI R6 load(1, XDATA, add(CFA_XSP16, literal(-12)))
          CFI CFA_SP SP+0
          CFI CFA_XSP16 add(XSP16, 12)
        ; Saved register size: 12
        ; Auto size: 0
        MOV       ?V0,R2
        MOV       ?V1,R3
//  753   register unsigned int  i=0,j=0;
//  754   register unsigned char ch;
//  755   register unsigned char cl;
//  756   
//  757   LCD_set_window(0,0,X_MAX_PIXEL,Y_MAX_PIXEL);
        ; Setup parameters for call to function LCD_set_window
        MOV       ?V2,#-0x80
        MOV       ?V3,#0x0
        MOV       R0,#?V2
        LCALL     ?PUSH_XSTACK_I_TWO
          CFI CFA_XSP16 add(XSP16, 14)
        MOV       R0,#?V2
        LCALL     ?PUSH_XSTACK_I_TWO
          CFI CFA_XSP16 add(XSP16, 16)
        MOV       R4,#0x0
        MOV       R5,#0x0
        MOV       R2,#0x0
        MOV       R3,#0x0
        LCALL     `??LCD_set_window::?relay`; Banked call to: LCD_set_window
        MOV       A,#0x4
        LCALL     ?DEALLOC_XSTACK8
          CFI CFA_XSP16 add(XSP16, 12)
//  758   ch = color>>8;
        MOV       A,?V1
        MOV       R7,A
//  759   cl = color&0xFF;
        MOV       A,?V0
        MOV       R6,A
//  760   LCD_write_byte(0x2C,LCD_COMMAND);
        ; Setup parameters for call to function LCD_write_byte
        MOV       R2,#0x0
        MOV       R1,#0x2c
        LCALL     `??LCD_write_byte::?relay`; Banked call to: LCD_write_byte
//  761   //LCD_CS_CLR;
//  762   LCD_DC_SET;
        SETB      0x80.0
//  763   for (i=0;i<Y_MAX_PIXEL;i++)
        MOV       ?V1,#-0x80
//  764     for (j=0;j<2;j++)
??LCD_clear_0:
        MOV       ?V0,#0x2
//  765     {
//  766       SendByte(ch);
??LCD_clear_1:
        ; Setup parameters for call to function SendByte
        MOV       A,R7
        MOV       R1,A
        LCALL     `??SendByte::?relay`; Banked call to: SendByte
//  767       SendByte(cl);
        ; Setup parameters for call to function SendByte
        MOV       A,R6
        MOV       R1,A
        LCALL     `??SendByte::?relay`; Banked call to: SendByte
//  768       SendByte(ch);
        ; Setup parameters for call to function SendByte
        MOV       A,R7
        MOV       R1,A
        LCALL     `??SendByte::?relay`; Banked call to: SendByte
//  769       SendByte(cl);
        ; Setup parameters for call to function SendByte
        MOV       A,R6
        MOV       R1,A
        LCALL     `??SendByte::?relay`; Banked call to: SendByte
//  770       SendByte(ch);
        ; Setup parameters for call to function SendByte
        MOV       A,R7
        MOV       R1,A
        LCALL     `??SendByte::?relay`; Banked call to: SendByte
//  771       SendByte(cl);
        ; Setup parameters for call to function SendByte
        MOV       A,R6
        MOV       R1,A
        LCALL     `??SendByte::?relay`; Banked call to: SendByte
//  772       SendByte(ch);
        ; Setup parameters for call to function SendByte
        MOV       A,R7
        MOV       R1,A
        LCALL     `??SendByte::?relay`; Banked call to: SendByte
//  773       SendByte(cl);
        ; Setup parameters for call to function SendByte
        MOV       A,R6
        MOV       R1,A
        LCALL     `??SendByte::?relay`; Banked call to: SendByte
//  774       SendByte(ch);
        ; Setup parameters for call to function SendByte
        MOV       A,R7
        MOV       R1,A
        LCALL     `??SendByte::?relay`; Banked call to: SendByte
//  775       SendByte(cl);
        ; Setup parameters for call to function SendByte
        MOV       A,R6
        MOV       R1,A
        LCALL     `??SendByte::?relay`; Banked call to: SendByte
//  776       SendByte(ch);
        ; Setup parameters for call to function SendByte
        MOV       A,R7
        MOV       R1,A
        LCALL     `??SendByte::?relay`; Banked call to: SendByte
//  777       SendByte(cl);
        ; Setup parameters for call to function SendByte
        MOV       A,R6
        MOV       R1,A
        LCALL     `??SendByte::?relay`; Banked call to: SendByte
//  778       SendByte(ch);
        ; Setup parameters for call to function SendByte
        MOV       A,R7
        MOV       R1,A
        LCALL     `??SendByte::?relay`; Banked call to: SendByte
//  779       SendByte(cl);
        ; Setup parameters for call to function SendByte
        MOV       A,R6
        MOV       R1,A
        LCALL     `??SendByte::?relay`; Banked call to: SendByte
//  780       SendByte(ch);
        ; Setup parameters for call to function SendByte
        MOV       A,R7
        MOV       R1,A
        LCALL     `??SendByte::?relay`; Banked call to: SendByte
//  781       SendByte(cl);
        ; Setup parameters for call to function SendByte
        MOV       A,R6
        MOV       R1,A
        LCALL     `??SendByte::?relay`; Banked call to: SendByte
//  782       SendByte(ch);
        ; Setup parameters for call to function SendByte
        MOV       A,R7
        MOV       R1,A
        LCALL     `??SendByte::?relay`; Banked call to: SendByte
//  783       SendByte(cl);
        ; Setup parameters for call to function SendByte
        MOV       A,R6
        MOV       R1,A
        LCALL     `??SendByte::?relay`; Banked call to: SendByte
//  784       SendByte(ch);
        ; Setup parameters for call to function SendByte
        MOV       A,R7
        MOV       R1,A
        LCALL     `??SendByte::?relay`; Banked call to: SendByte
//  785       SendByte(cl);
        ; Setup parameters for call to function SendByte
        MOV       A,R6
        MOV       R1,A
        LCALL     `??SendByte::?relay`; Banked call to: SendByte
//  786       SendByte(ch);
        ; Setup parameters for call to function SendByte
        MOV       A,R7
        MOV       R1,A
        LCALL     `??SendByte::?relay`; Banked call to: SendByte
//  787       SendByte(cl);
        ; Setup parameters for call to function SendByte
        MOV       A,R6
        MOV       R1,A
        LCALL     `??SendByte::?relay`; Banked call to: SendByte
//  788       SendByte(ch);
        ; Setup parameters for call to function SendByte
        MOV       A,R7
        MOV       R1,A
        LCALL     `??SendByte::?relay`; Banked call to: SendByte
//  789       SendByte(cl);
        ; Setup parameters for call to function SendByte
        MOV       A,R6
        MOV       R1,A
        LCALL     `??SendByte::?relay`; Banked call to: SendByte
//  790       SendByte(ch);
        ; Setup parameters for call to function SendByte
        MOV       A,R7
        MOV       R1,A
        LCALL     `??SendByte::?relay`; Banked call to: SendByte
//  791       SendByte(cl);
        ; Setup parameters for call to function SendByte
        MOV       A,R6
        MOV       R1,A
        LCALL     `??SendByte::?relay`; Banked call to: SendByte
//  792       SendByte(ch);
        ; Setup parameters for call to function SendByte
        MOV       A,R7
        MOV       R1,A
        LCALL     `??SendByte::?relay`; Banked call to: SendByte
//  793       SendByte(cl);
        ; Setup parameters for call to function SendByte
        MOV       A,R6
        MOV       R1,A
        LCALL     `??SendByte::?relay`; Banked call to: SendByte
//  794       SendByte(ch);
        ; Setup parameters for call to function SendByte
        MOV       A,R7
        MOV       R1,A
        LCALL     `??SendByte::?relay`; Banked call to: SendByte
//  795       SendByte(cl);
        ; Setup parameters for call to function SendByte
        MOV       A,R6
        MOV       R1,A
        LCALL     `??SendByte::?relay`; Banked call to: SendByte
//  796       SendByte(ch);
        ; Setup parameters for call to function SendByte
        MOV       A,R7
        MOV       R1,A
        LCALL     `??SendByte::?relay`; Banked call to: SendByte
//  797       SendByte(cl);
        ; Setup parameters for call to function SendByte
        MOV       A,R6
        MOV       R1,A
        LCALL     `??SendByte::?relay`; Banked call to: SendByte
//  798       SendByte(ch);
        ; Setup parameters for call to function SendByte
        MOV       A,R7
        MOV       R1,A
        LCALL     `??SendByte::?relay`; Banked call to: SendByte
//  799       SendByte(cl);
        ; Setup parameters for call to function SendByte
        MOV       A,R6
        MOV       R1,A
        LCALL     `??SendByte::?relay`; Banked call to: SendByte
//  800       SendByte(ch);
        ; Setup parameters for call to function SendByte
        MOV       A,R7
        MOV       R1,A
        LCALL     `??SendByte::?relay`; Banked call to: SendByte
//  801       SendByte(cl);
        ; Setup parameters for call to function SendByte
        MOV       A,R6
        MOV       R1,A
        LCALL     `??SendByte::?relay`; Banked call to: SendByte
//  802       SendByte(ch);
        ; Setup parameters for call to function SendByte
        MOV       A,R7
        MOV       R1,A
        LCALL     `??SendByte::?relay`; Banked call to: SendByte
//  803       SendByte(cl);
        ; Setup parameters for call to function SendByte
        MOV       A,R6
        MOV       R1,A
        LCALL     `??SendByte::?relay`; Banked call to: SendByte
//  804       SendByte(ch);
        ; Setup parameters for call to function SendByte
        MOV       A,R7
        MOV       R1,A
        LCALL     `??SendByte::?relay`; Banked call to: SendByte
//  805       SendByte(cl);
        ; Setup parameters for call to function SendByte
        MOV       A,R6
        MOV       R1,A
        LCALL     `??SendByte::?relay`; Banked call to: SendByte
//  806       SendByte(ch);
        ; Setup parameters for call to function SendByte
        MOV       A,R7
        MOV       R1,A
        LCALL     `??SendByte::?relay`; Banked call to: SendByte
//  807       SendByte(cl);
        ; Setup parameters for call to function SendByte
        MOV       A,R6
        MOV       R1,A
        LCALL     `??SendByte::?relay`; Banked call to: SendByte
//  808       SendByte(ch);
        ; Setup parameters for call to function SendByte
        MOV       A,R7
        MOV       R1,A
        LCALL     `??SendByte::?relay`; Banked call to: SendByte
//  809       SendByte(cl);
        ; Setup parameters for call to function SendByte
        MOV       A,R6
        MOV       R1,A
        LCALL     `??SendByte::?relay`; Banked call to: SendByte
//  810       SendByte(ch);
        ; Setup parameters for call to function SendByte
        MOV       A,R7
        MOV       R1,A
        LCALL     `??SendByte::?relay`; Banked call to: SendByte
//  811       SendByte(cl);
        ; Setup parameters for call to function SendByte
        MOV       A,R6
        MOV       R1,A
        LCALL     `??SendByte::?relay`; Banked call to: SendByte
//  812       SendByte(ch);
        ; Setup parameters for call to function SendByte
        MOV       A,R7
        MOV       R1,A
        LCALL     `??SendByte::?relay`; Banked call to: SendByte
//  813       SendByte(cl);
        ; Setup parameters for call to function SendByte
        MOV       A,R6
        MOV       R1,A
        LCALL     `??SendByte::?relay`; Banked call to: SendByte
//  814       SendByte(ch);
        ; Setup parameters for call to function SendByte
        MOV       A,R7
        MOV       R1,A
        LCALL     `??SendByte::?relay`; Banked call to: SendByte
//  815       SendByte(cl);
        ; Setup parameters for call to function SendByte
        MOV       A,R6
        MOV       R1,A
        LCALL     `??SendByte::?relay`; Banked call to: SendByte
//  816       SendByte(ch);
        ; Setup parameters for call to function SendByte
        MOV       A,R7
        MOV       R1,A
        LCALL     `??SendByte::?relay`; Banked call to: SendByte
//  817       SendByte(cl);
        ; Setup parameters for call to function SendByte
        MOV       A,R6
        MOV       R1,A
        LCALL     `??SendByte::?relay`; Banked call to: SendByte
//  818       SendByte(ch);
        ; Setup parameters for call to function SendByte
        MOV       A,R7
        MOV       R1,A
        LCALL     `??SendByte::?relay`; Banked call to: SendByte
//  819       SendByte(cl);
        ; Setup parameters for call to function SendByte
        MOV       A,R6
        MOV       R1,A
        LCALL     `??SendByte::?relay`; Banked call to: SendByte
//  820       SendByte(ch);
        ; Setup parameters for call to function SendByte
        MOV       A,R7
        MOV       R1,A
        LCALL     `??SendByte::?relay`; Banked call to: SendByte
//  821       SendByte(cl);
        ; Setup parameters for call to function SendByte
        MOV       A,R6
        MOV       R1,A
        LCALL     `??SendByte::?relay`; Banked call to: SendByte
//  822       SendByte(ch);
        ; Setup parameters for call to function SendByte
        MOV       A,R7
        MOV       R1,A
        LCALL     `??SendByte::?relay`; Banked call to: SendByte
//  823       SendByte(cl);
        ; Setup parameters for call to function SendByte
        MOV       A,R6
        MOV       R1,A
        LCALL     `??SendByte::?relay`; Banked call to: SendByte
//  824       SendByte(ch);
        ; Setup parameters for call to function SendByte
        MOV       A,R7
        MOV       R1,A
        LCALL     `??SendByte::?relay`; Banked call to: SendByte
//  825       SendByte(cl);
        ; Setup parameters for call to function SendByte
        MOV       A,R6
        MOV       R1,A
        LCALL     `??SendByte::?relay`; Banked call to: SendByte
//  826       SendByte(ch);
        ; Setup parameters for call to function SendByte
        MOV       A,R7
        MOV       R1,A
        LCALL     `??SendByte::?relay`; Banked call to: SendByte
//  827       SendByte(cl);
        ; Setup parameters for call to function SendByte
        MOV       A,R6
        MOV       R1,A
        LCALL     `??SendByte::?relay`; Banked call to: SendByte
//  828       SendByte(ch);
        ; Setup parameters for call to function SendByte
        MOV       A,R7
        MOV       R1,A
        LCALL     `??SendByte::?relay`; Banked call to: SendByte
//  829       SendByte(cl);      
        ; Setup parameters for call to function SendByte
        MOV       A,R6
        MOV       R1,A
        LCALL     `??SendByte::?relay`; Banked call to: SendByte
//  830       SendByte(ch);
        ; Setup parameters for call to function SendByte
        MOV       A,R7
        MOV       R1,A
        LCALL     `??SendByte::?relay`; Banked call to: SendByte
//  831       SendByte(cl);
        ; Setup parameters for call to function SendByte
        MOV       A,R6
        MOV       R1,A
        LCALL     `??SendByte::?relay`; Banked call to: SendByte
//  832       SendByte(ch);
        ; Setup parameters for call to function SendByte
        MOV       A,R7
        MOV       R1,A
        LCALL     `??SendByte::?relay`; Banked call to: SendByte
//  833       SendByte(cl);
        ; Setup parameters for call to function SendByte
        MOV       A,R6
        MOV       R1,A
        LCALL     `??SendByte::?relay`; Banked call to: SendByte
//  834       SendByte(ch);
        ; Setup parameters for call to function SendByte
        MOV       A,R7
        MOV       R1,A
        LCALL     `??SendByte::?relay`; Banked call to: SendByte
//  835       SendByte(cl);
        ; Setup parameters for call to function SendByte
        MOV       A,R6
        MOV       R1,A
        LCALL     `??SendByte::?relay`; Banked call to: SendByte
//  836       SendByte(ch);
        ; Setup parameters for call to function SendByte
        MOV       A,R7
        MOV       R1,A
        LCALL     `??SendByte::?relay`; Banked call to: SendByte
//  837       SendByte(cl);
        ; Setup parameters for call to function SendByte
        MOV       A,R6
        MOV       R1,A
        LCALL     `??SendByte::?relay`; Banked call to: SendByte
//  838       SendByte(ch);
        ; Setup parameters for call to function SendByte
        MOV       A,R7
        MOV       R1,A
        LCALL     `??SendByte::?relay`; Banked call to: SendByte
//  839       SendByte(cl);
        ; Setup parameters for call to function SendByte
        MOV       A,R6
        MOV       R1,A
        LCALL     `??SendByte::?relay`; Banked call to: SendByte
//  840       SendByte(ch);
        ; Setup parameters for call to function SendByte
        MOV       A,R7
        MOV       R1,A
        LCALL     `??SendByte::?relay`; Banked call to: SendByte
//  841       SendByte(cl);
        ; Setup parameters for call to function SendByte
        MOV       A,R6
        MOV       R1,A
        LCALL     `??SendByte::?relay`; Banked call to: SendByte
//  842       SendByte(ch);
        ; Setup parameters for call to function SendByte
        MOV       A,R7
        MOV       R1,A
        LCALL     `??SendByte::?relay`; Banked call to: SendByte
//  843       SendByte(cl);
        ; Setup parameters for call to function SendByte
        MOV       A,R6
        MOV       R1,A
        LCALL     `??SendByte::?relay`; Banked call to: SendByte
//  844       SendByte(ch);
        ; Setup parameters for call to function SendByte
        MOV       A,R7
        MOV       R1,A
        LCALL     `??SendByte::?relay`; Banked call to: SendByte
//  845       SendByte(cl);
        ; Setup parameters for call to function SendByte
        MOV       A,R6
        MOV       R1,A
        LCALL     `??SendByte::?relay`; Banked call to: SendByte
//  846       SendByte(ch);
        ; Setup parameters for call to function SendByte
        MOV       A,R7
        MOV       R1,A
        LCALL     `??SendByte::?relay`; Banked call to: SendByte
//  847       SendByte(cl);
        ; Setup parameters for call to function SendByte
        MOV       A,R6
        MOV       R1,A
        LCALL     `??SendByte::?relay`; Banked call to: SendByte
//  848       SendByte(ch);
        ; Setup parameters for call to function SendByte
        MOV       A,R7
        MOV       R1,A
        LCALL     `??SendByte::?relay`; Banked call to: SendByte
//  849       SendByte(cl);
        ; Setup parameters for call to function SendByte
        MOV       A,R6
        MOV       R1,A
        LCALL     `??SendByte::?relay`; Banked call to: SendByte
//  850       SendByte(ch);
        ; Setup parameters for call to function SendByte
        MOV       A,R7
        MOV       R1,A
        LCALL     `??SendByte::?relay`; Banked call to: SendByte
//  851       SendByte(cl);
        ; Setup parameters for call to function SendByte
        MOV       A,R6
        MOV       R1,A
        LCALL     `??SendByte::?relay`; Banked call to: SendByte
//  852       SendByte(ch);
        ; Setup parameters for call to function SendByte
        MOV       A,R7
        MOV       R1,A
        LCALL     `??SendByte::?relay`; Banked call to: SendByte
//  853       SendByte(cl);
        ; Setup parameters for call to function SendByte
        MOV       A,R6
        MOV       R1,A
        LCALL     `??SendByte::?relay`; Banked call to: SendByte
//  854       SendByte(ch);
        ; Setup parameters for call to function SendByte
        MOV       A,R7
        MOV       R1,A
        LCALL     `??SendByte::?relay`; Banked call to: SendByte
//  855       SendByte(cl);
        ; Setup parameters for call to function SendByte
        MOV       A,R6
        MOV       R1,A
        LCALL     `??SendByte::?relay`; Banked call to: SendByte
//  856       SendByte(ch);
        ; Setup parameters for call to function SendByte
        MOV       A,R7
        MOV       R1,A
        LCALL     `??SendByte::?relay`; Banked call to: SendByte
//  857       SendByte(cl);
        ; Setup parameters for call to function SendByte
        MOV       A,R6
        MOV       R1,A
        LCALL     `??SendByte::?relay`; Banked call to: SendByte
//  858       SendByte(ch);
        ; Setup parameters for call to function SendByte
        MOV       A,R7
        MOV       R1,A
        LCALL     `??SendByte::?relay`; Banked call to: SendByte
//  859       SendByte(cl);
        ; Setup parameters for call to function SendByte
        MOV       A,R6
        MOV       R1,A
        LCALL     `??SendByte::?relay`; Banked call to: SendByte
//  860       SendByte(ch);
        ; Setup parameters for call to function SendByte
        MOV       A,R7
        MOV       R1,A
        LCALL     `??SendByte::?relay`; Banked call to: SendByte
//  861       SendByte(cl);
        ; Setup parameters for call to function SendByte
        MOV       A,R6
        MOV       R1,A
        LCALL     `??SendByte::?relay`; Banked call to: SendByte
//  862       SendByte(ch);
        ; Setup parameters for call to function SendByte
        MOV       A,R7
        MOV       R1,A
        LCALL     `??SendByte::?relay`; Banked call to: SendByte
//  863       SendByte(cl);
        ; Setup parameters for call to function SendByte
        MOV       A,R6
        MOV       R1,A
        LCALL     `??SendByte::?relay`; Banked call to: SendByte
//  864       SendByte(ch);
        ; Setup parameters for call to function SendByte
        MOV       A,R7
        MOV       R1,A
        LCALL     `??SendByte::?relay`; Banked call to: SendByte
//  865       SendByte(cl);
        ; Setup parameters for call to function SendByte
        MOV       A,R6
        MOV       R1,A
        LCALL     `??SendByte::?relay`; Banked call to: SendByte
//  866       SendByte(ch);
        ; Setup parameters for call to function SendByte
        MOV       A,R7
        MOV       R1,A
        LCALL     `??SendByte::?relay`; Banked call to: SendByte
//  867       SendByte(cl);
        ; Setup parameters for call to function SendByte
        MOV       A,R6
        MOV       R1,A
        LCALL     `??SendByte::?relay`; Banked call to: SendByte
//  868       SendByte(ch);
        ; Setup parameters for call to function SendByte
        MOV       A,R7
        MOV       R1,A
        LCALL     `??SendByte::?relay`; Banked call to: SendByte
//  869       SendByte(cl);
        ; Setup parameters for call to function SendByte
        MOV       A,R6
        MOV       R1,A
        LCALL     `??SendByte::?relay`; Banked call to: SendByte
//  870       SendByte(ch);
        ; Setup parameters for call to function SendByte
        MOV       A,R7
        MOV       R1,A
        LCALL     `??SendByte::?relay`; Banked call to: SendByte
//  871       SendByte(cl);
        ; Setup parameters for call to function SendByte
        MOV       A,R6
        MOV       R1,A
        LCALL     `??SendByte::?relay`; Banked call to: SendByte
//  872       SendByte(ch);
        ; Setup parameters for call to function SendByte
        MOV       A,R7
        MOV       R1,A
        LCALL     `??SendByte::?relay`; Banked call to: SendByte
//  873       SendByte(cl);
        ; Setup parameters for call to function SendByte
        MOV       A,R6
        MOV       R1,A
        LCALL     `??SendByte::?relay`; Banked call to: SendByte
//  874       SendByte(ch);
        ; Setup parameters for call to function SendByte
        MOV       A,R7
        MOV       R1,A
        LCALL     `??SendByte::?relay`; Banked call to: SendByte
//  875       SendByte(cl);
        ; Setup parameters for call to function SendByte
        MOV       A,R6
        MOV       R1,A
        LCALL     `??SendByte::?relay`; Banked call to: SendByte
//  876       SendByte(ch);
        ; Setup parameters for call to function SendByte
        MOV       A,R7
        MOV       R1,A
        LCALL     `??SendByte::?relay`; Banked call to: SendByte
//  877       SendByte(cl);
        ; Setup parameters for call to function SendByte
        MOV       A,R6
        MOV       R1,A
        LCALL     `??SendByte::?relay`; Banked call to: SendByte
//  878       SendByte(ch);
        ; Setup parameters for call to function SendByte
        MOV       A,R7
        MOV       R1,A
        LCALL     `??SendByte::?relay`; Banked call to: SendByte
//  879       SendByte(cl);
        ; Setup parameters for call to function SendByte
        MOV       A,R6
        MOV       R1,A
        LCALL     `??SendByte::?relay`; Banked call to: SendByte
//  880       SendByte(ch);
        ; Setup parameters for call to function SendByte
        MOV       A,R7
        MOV       R1,A
        LCALL     `??SendByte::?relay`; Banked call to: SendByte
//  881       SendByte(cl);
        ; Setup parameters for call to function SendByte
        MOV       A,R6
        MOV       R1,A
        LCALL     `??SendByte::?relay`; Banked call to: SendByte
//  882       SendByte(ch);
        ; Setup parameters for call to function SendByte
        MOV       A,R7
        MOV       R1,A
        LCALL     `??SendByte::?relay`; Banked call to: SendByte
//  883       SendByte(cl);
        ; Setup parameters for call to function SendByte
        MOV       A,R6
        MOV       R1,A
        LCALL     `??SendByte::?relay`; Banked call to: SendByte
//  884       SendByte(ch);
        ; Setup parameters for call to function SendByte
        MOV       A,R7
        MOV       R1,A
        LCALL     `??SendByte::?relay`; Banked call to: SendByte
//  885       SendByte(cl);
        ; Setup parameters for call to function SendByte
        MOV       A,R6
        MOV       R1,A
        LCALL     `??SendByte::?relay`; Banked call to: SendByte
//  886       SendByte(ch);
        ; Setup parameters for call to function SendByte
        MOV       A,R7
        MOV       R1,A
        LCALL     `??SendByte::?relay`; Banked call to: SendByte
//  887       SendByte(cl);
        ; Setup parameters for call to function SendByte
        MOV       A,R6
        MOV       R1,A
        LCALL     `??SendByte::?relay`; Banked call to: SendByte
//  888       SendByte(ch);
        ; Setup parameters for call to function SendByte
        MOV       A,R7
        MOV       R1,A
        LCALL     `??SendByte::?relay`; Banked call to: SendByte
//  889       SendByte(cl);
        ; Setup parameters for call to function SendByte
        MOV       A,R6
        MOV       R1,A
        LCALL     `??SendByte::?relay`; Banked call to: SendByte
//  890       SendByte(ch);
        ; Setup parameters for call to function SendByte
        MOV       A,R7
        MOV       R1,A
        LCALL     `??SendByte::?relay`; Banked call to: SendByte
//  891       SendByte(cl);
        ; Setup parameters for call to function SendByte
        MOV       A,R6
        MOV       R1,A
        LCALL     `??SendByte::?relay`; Banked call to: SendByte
//  892       SendByte(ch);
        ; Setup parameters for call to function SendByte
        MOV       A,R7
        MOV       R1,A
        LCALL     `??SendByte::?relay`; Banked call to: SendByte
//  893       SendByte(cl);
        ; Setup parameters for call to function SendByte
        MOV       A,R6
        MOV       R1,A
        LCALL     `??SendByte::?relay`; Banked call to: SendByte
//  894     }
        DEC       ?V0
        MOV       A,?V0
        JZ        $+5
        LJMP      ??LCD_clear_1 & 0xFFFF
        DEC       ?V1
        MOV       A,?V1
        JZ        $+5
        LJMP      ??LCD_clear_0 & 0xFFFF
//  895   LCD_DC_SET;
        LJMP      ?Subroutine4 & 0xFFFF
          CFI EndBlock cfiBlock46
        REQUIRE _A_P0
//  896   //LCD_CS_SET;
//  897 }
//  898 
//  899 /****************************************************************************
//  900 * 名    称: LCD_write_EN()
//  901 * 功    能: 在指定位置显示 7 ×14 点阵ASCII字符 
//  902 * 入口参数: X - 显示位置左上角横坐标      Y ―显示位置左上角纵坐标
//  903 *           c ―显示字符                  
//  904 * 出口参数: 无
//  905 ****************************************************************************/

        RSEG BANKED_CODE:HUGECODE:NOROOT(0)
//  906 static void LCD_write_EN(unsigned int X, unsigned int Y, unsigned char c)
LCD_write_EN:
          CFI Block cfiBlock47 Using cfiCommon0
          CFI Function LCD_write_EN
        CODE
//  907 {
        FUNCALL LCD_write_EN, LCD_set_window
        LOCFRAME ISTACK, 0, STACK
        LOCFRAME PSTACK, 0, STACK
        LOCFRAME XSTACK, 16, STACK
        LOCFRAME IOVERLAY, 0, STATIC
        LOCFRAME DOVERLAY, 0, STATIC
        ARGFRAME ISTACK, 0, STACK
        ARGFRAME PSTACK, 0, STACK
        ARGFRAME XSTACK, 16, STACK
        ARGFRAME IOVERLAY, 0, STATIC
        ARGFRAME DOVERLAY, 0, STATIC
        FUNCALL LCD_write_EN, SendByte
        LOCFRAME ISTACK, 0, STACK
        LOCFRAME PSTACK, 0, STACK
        LOCFRAME XSTACK, 12, STACK
        LOCFRAME IOVERLAY, 0, STATIC
        LOCFRAME DOVERLAY, 0, STATIC
        ARGFRAME ISTACK, 0, STACK
        ARGFRAME PSTACK, 0, STACK
        ARGFRAME XSTACK, 12, STACK
        ARGFRAME IOVERLAY, 0, STATIC
        ARGFRAME DOVERLAY, 0, STATIC
        FUNCALL LCD_write_EN, SendByte
        LOCFRAME ISTACK, 0, STACK
        LOCFRAME PSTACK, 0, STACK
        LOCFRAME XSTACK, 12, STACK
        LOCFRAME IOVERLAY, 0, STATIC
        LOCFRAME DOVERLAY, 0, STATIC
        ARGFRAME ISTACK, 0, STACK
        ARGFRAME PSTACK, 0, STACK
        ARGFRAME XSTACK, 12, STACK
        ARGFRAME IOVERLAY, 0, STATIC
        ARGFRAME DOVERLAY, 0, STATIC
        FUNCALL LCD_write_EN, SendByte
        LOCFRAME ISTACK, 0, STACK
        LOCFRAME PSTACK, 0, STACK
        LOCFRAME XSTACK, 12, STACK
        LOCFRAME IOVERLAY, 0, STATIC
        LOCFRAME DOVERLAY, 0, STATIC
        ARGFRAME ISTACK, 0, STACK
        ARGFRAME PSTACK, 0, STACK
        ARGFRAME XSTACK, 12, STACK
        ARGFRAME IOVERLAY, 0, STATIC
        ARGFRAME DOVERLAY, 0, STATIC
        FUNCALL LCD_write_EN, SendByte
        LOCFRAME ISTACK, 0, STACK
        LOCFRAME PSTACK, 0, STACK
        LOCFRAME XSTACK, 12, STACK
        LOCFRAME IOVERLAY, 0, STATIC
        LOCFRAME DOVERLAY, 0, STATIC
        ARGFRAME ISTACK, 0, STACK
        ARGFRAME PSTACK, 0, STACK
        ARGFRAME XSTACK, 12, STACK
        ARGFRAME IOVERLAY, 0, STATIC
        ARGFRAME DOVERLAY, 0, STATIC
        REQUIRE ?V0
        REQUIRE ?V1
        REQUIRE ?V2
        REQUIRE ?V3
        MOV       A,#-0xc
        LCALL     ?BANKED_ENTER_XDATA
          CFI DPH0 load(1, XDATA, add(CFA_XSP16, literal(-1)))
          CFI DPL0 load(1, XDATA, add(CFA_XSP16, literal(-2)))
          CFI ?BRET_EXT load(1, XDATA, add(CFA_XSP16, literal(-3)))
          CFI ?RET_HIGH load(1, XDATA, add(CFA_XSP16, literal(-4)))
          CFI ?RET_LOW load(1, XDATA, add(CFA_XSP16, literal(-5)))
          CFI R7 load(1, XDATA, add(CFA_XSP16, literal(-6)))
          CFI V3 load(1, XDATA, add(CFA_XSP16, literal(-7)))
          CFI V2 load(1, XDATA, add(CFA_XSP16, literal(-8)))
          CFI V1 load(1, XDATA, add(CFA_XSP16, literal(-9)))
          CFI V0 load(1, XDATA, add(CFA_XSP16, literal(-10)))
          CFI VB load(1, XDATA, add(CFA_XSP16, literal(-11)))
          CFI R6 load(1, XDATA, add(CFA_XSP16, literal(-12)))
          CFI CFA_SP SP+0
          CFI CFA_XSP16 add(XSP16, 12)
        ; Saved register size: 12
        ; Auto size: 0
        MOV       ?V1,R1
//  908   unsigned char i,j,temp;
//  909   
//  910   LCD_set_window(X,Y,7,14);
        ; Setup parameters for call to function LCD_set_window
        MOV       ?V2,#0xe
        MOV       ?V3,#0x0
        MOV       R0,#?V2
        LCALL     ?PUSH_XSTACK_I_TWO
          CFI CFA_XSP16 add(XSP16, 14)
        MOV       ?V2,#0x7
        MOV       R0,#?V2
        LCALL     ?PUSH_XSTACK_I_TWO
          CFI CFA_XSP16 add(XSP16, 16)
        LCALL     `??LCD_set_window::?relay`; Banked call to: LCD_set_window
        MOV       A,#0x4
        LCALL     ?DEALLOC_XSTACK8
          CFI CFA_XSP16 add(XSP16, 12)
//  911   //LCD_CS_CLR ;
//  912   LCD_DC_SET ;
        SETB      0x80.0
//  913   for(i=0;i<14;i++)
        MOV       R7,#0x0
//  914   {
//  915     temp = ASCII7x14[c-32][i];
??LCD_write_EN_0:
        MOV       A,?V1
        MOV       B,#0xe
        MUL       AB
        MOV       R2,A
        MOV       R3,B
        MOV       A,R7
        MOV       R0,A
        MOV       A,#(ASCII7x14 + 64) & 0xff
        ADD       A,R0
        MOV       R0,A
        CLR       A
        ADDC      A,#((ASCII7x14 - 448) >> 8) & 0xff
        MOV       R1,A
        MOV       A,R0
        ADD       A,R2
        MOV       DPL,A
        MOV       A,R1
        ADDC      A,R3
        MOV       DPH,A
        CLR       A
        MOVC      A,@A+DPTR
        MOV       R6,A
//  916     for(j=0;j<7;j++)
        MOV       ?V0,#0x7
//  917     {
//  918       if(temp&0x80)
??LCD_write_EN_1:
        MOV       A,R6
        MOV       C,0xE0 /* A   */.7
        JNC       ??LCD_write_EN_2
//  919       {
//  920         SendByte(Color>>8);  
        ; Setup parameters for call to function SendByte
        MOV       DPTR,#Color + 1
        MOVX      A,@DPTR
        MOV       R1,A
        LCALL     `??SendByte::?relay`; Banked call to: SendByte
//  921         SendByte(Color) ;
        ; Setup parameters for call to function SendByte
        MOV       DPTR,#Color
        SJMP      ??LCD_write_EN_3
//  922       }
//  923       else
//  924       {
//  925         SendByte(Color_BK>>8) ;  
??LCD_write_EN_2:
        ; Setup parameters for call to function SendByte
        MOV       DPTR,#Color_BK + 1
        MOVX      A,@DPTR
        MOV       R1,A
        LCALL     `??SendByte::?relay`; Banked call to: SendByte
//  926         SendByte(Color_BK);
        ; Setup parameters for call to function SendByte
        MOV       DPTR,#Color_BK
??LCD_write_EN_3:
        MOVX      A,@DPTR
        MOV       R1,A
        LCALL     `??SendByte::?relay`; Banked call to: SendByte
//  927       }            
//  928       temp <<= 1 ;
        MOV       A,R6
        CLR       C
        RLC       A
        MOV       R6,A
//  929     }
        DEC       ?V0
        MOV       A,?V0
        JNZ       ??LCD_write_EN_1
//  930   }
        INC       R7
        MOV       A,R7
        CLR       C
        SUBB      A,#0xe
        JC        ??LCD_write_EN_0
//  931   //LCD_CS_SET ; andy
//  932   LCD_DC_SET ;
        LJMP      ?Subroutine4 & 0xFFFF
          CFI EndBlock cfiBlock47
        REQUIRE _A_P0
//  933 }
//  934 
//  935 /****************************************************************************
//  936 * 名    称: LCD_write_EN_string()
//  937 * 功    能: 在指定位置显示 7 ×14 点阵ASCII字符串 
//  938 * 入口参数: X - 显示位置左上角横坐标      Y ―显示位置左上角纵坐标
//  939 *           s ―字符串指针                  
//  940 * 出口参数: 无
//  941 ****************************************************************************/

        RSEG BANKED_CODE:HUGECODE:NOROOT(0)
//  942 void LCD_write_EN_string(unsigned char X,unsigned char Y,uint8 *s)
LCD_write_EN_string:
          CFI Block cfiBlock48 Using cfiCommon0
          CFI Function LCD_write_EN_string
        CODE
//  943 {
        FUNCALL LCD_write_EN_string, LCD_write_EN
        LOCFRAME ISTACK, 0, STACK
        LOCFRAME PSTACK, 0, STACK
        LOCFRAME XSTACK, 13, STACK
        LOCFRAME IOVERLAY, 0, STATIC
        LOCFRAME DOVERLAY, 0, STATIC
        ARGFRAME ISTACK, 0, STACK
        ARGFRAME PSTACK, 0, STACK
        ARGFRAME XSTACK, 13, STACK
        ARGFRAME IOVERLAY, 0, STATIC
        ARGFRAME DOVERLAY, 0, STATIC
        REQUIRE ?V0
        REQUIRE ?V1
        REQUIRE ?V2
        REQUIRE ?V3
        REQUIRE ?V4
        MOV       A,#-0xd
        LCALL     ?BANKED_ENTER_XDATA
          CFI DPH0 load(1, XDATA, add(CFA_XSP16, literal(-1)))
          CFI DPL0 load(1, XDATA, add(CFA_XSP16, literal(-2)))
          CFI ?BRET_EXT load(1, XDATA, add(CFA_XSP16, literal(-3)))
          CFI ?RET_HIGH load(1, XDATA, add(CFA_XSP16, literal(-4)))
          CFI ?RET_LOW load(1, XDATA, add(CFA_XSP16, literal(-5)))
          CFI R7 load(1, XDATA, add(CFA_XSP16, literal(-6)))
          CFI V4 load(1, XDATA, add(CFA_XSP16, literal(-7)))
          CFI V3 load(1, XDATA, add(CFA_XSP16, literal(-8)))
          CFI V2 load(1, XDATA, add(CFA_XSP16, literal(-9)))
          CFI V1 load(1, XDATA, add(CFA_XSP16, literal(-10)))
          CFI V0 load(1, XDATA, add(CFA_XSP16, literal(-11)))
          CFI VB load(1, XDATA, add(CFA_XSP16, literal(-12)))
          CFI R6 load(1, XDATA, add(CFA_XSP16, literal(-13)))
          CFI CFA_SP SP+0
          CFI CFA_XSP16 add(XSP16, 13)
        ; Saved register size: 13
        ; Auto size: 0
        MOV       ?V1,R1
        MOV       ?V4,R2
        MOV       A,R4
        MOV       R6,A
        MOV       A,R5
        MOV       R7,A
//  944   unsigned char i=0;
        MOV       ?V0,#0x0
//  945   
//  946   while (*s)
??LCD_write_EN_string_0:
        MOV       DPL,R6
        MOV       DPH,R7
        MOVX      A,@DPTR
        JZ        ??LCD_write_EN_string_1
//  947   {
//  948     LCD_write_EN(X+i*7,Y,*s);
        ; Setup parameters for call to function LCD_write_EN
        MOV       R1,A
        MOV       R4,?V4
        MOV       R5,#0x0
        MOV       A,?V1
        MOV       ?V2,A
        MOV       A,?V0
        MOV       B,#0x7
        MUL       AB
        MOV       R2,A
        MOV       R3,B
        MOV       A,?V2
        ADD       A,R2
        MOV       R2,A
        CLR       A
        ADDC      A,R3
        MOV       R3,A
        LCALL     `??LCD_write_EN::?relay`; Banked call to: LCD_write_EN
//  949     s++;
        MOV       DPL,R6
        MOV       DPH,R7
        INC       DPTR
        MOV       R6,DPL
        MOV       R7,DPH
//  950     i++;
        INC       ?V0
//  951     if(i>=HAL_LCD_MAX_CHARS)return;
        MOV       A,?V0
        CLR       C
        SUBB      A,#0x10
        JC        ??LCD_write_EN_string_0
//  952   }
//  953   return;
??LCD_write_EN_string_1:
        MOV       R7,#0x5
        LJMP      ?BANKED_LEAVE_XDATA
//  954 }
          CFI EndBlock cfiBlock48
//  955 
//  956 /****************************************************************************
//  957 * 名    称: LCD_write_CN()
//  958 * 功    能: 在指定位置显示 14 ×14 点阵汉字字符  
//  959 * 入口参数: X - 显示位置左上角横坐标      Y ―显示位置左上角纵坐标
//  960 *           c ―显示字符指针                  
//  961 * 出口参数: 无
//  962 ****************************************************************************/

        RSEG BANKED_CODE:HUGECODE:NOROOT(0)
//  963 static void LCD_write_CN(unsigned int X, unsigned int Y, unsigned char c)
LCD_write_CN:
          CFI Block cfiBlock49 Using cfiCommon0
          CFI Function LCD_write_CN
        CODE
//  964 {
        FUNCALL LCD_write_CN, LCD_set_window
        LOCFRAME ISTACK, 0, STACK
        LOCFRAME PSTACK, 0, STACK
        LOCFRAME XSTACK, 14, STACK
        LOCFRAME IOVERLAY, 0, STATIC
        LOCFRAME DOVERLAY, 0, STATIC
        ARGFRAME ISTACK, 0, STACK
        ARGFRAME PSTACK, 0, STACK
        ARGFRAME XSTACK, 14, STACK
        ARGFRAME IOVERLAY, 0, STATIC
        ARGFRAME DOVERLAY, 0, STATIC
        FUNCALL LCD_write_CN, SendByte
        LOCFRAME ISTACK, 0, STACK
        LOCFRAME PSTACK, 0, STACK
        LOCFRAME XSTACK, 10, STACK
        LOCFRAME IOVERLAY, 0, STATIC
        LOCFRAME DOVERLAY, 0, STATIC
        ARGFRAME ISTACK, 0, STACK
        ARGFRAME PSTACK, 0, STACK
        ARGFRAME XSTACK, 10, STACK
        ARGFRAME IOVERLAY, 0, STATIC
        ARGFRAME DOVERLAY, 0, STATIC
        FUNCALL LCD_write_CN, SendByte
        LOCFRAME ISTACK, 0, STACK
        LOCFRAME PSTACK, 0, STACK
        LOCFRAME XSTACK, 10, STACK
        LOCFRAME IOVERLAY, 0, STATIC
        LOCFRAME DOVERLAY, 0, STATIC
        ARGFRAME ISTACK, 0, STACK
        ARGFRAME PSTACK, 0, STACK
        ARGFRAME XSTACK, 10, STACK
        ARGFRAME IOVERLAY, 0, STATIC
        ARGFRAME DOVERLAY, 0, STATIC
        FUNCALL LCD_write_CN, SendByte
        LOCFRAME ISTACK, 0, STACK
        LOCFRAME PSTACK, 0, STACK
        LOCFRAME XSTACK, 10, STACK
        LOCFRAME IOVERLAY, 0, STATIC
        LOCFRAME DOVERLAY, 0, STATIC
        ARGFRAME ISTACK, 0, STACK
        ARGFRAME PSTACK, 0, STACK
        ARGFRAME XSTACK, 10, STACK
        ARGFRAME IOVERLAY, 0, STATIC
        ARGFRAME DOVERLAY, 0, STATIC
        FUNCALL LCD_write_CN, SendByte
        LOCFRAME ISTACK, 0, STACK
        LOCFRAME PSTACK, 0, STACK
        LOCFRAME XSTACK, 10, STACK
        LOCFRAME IOVERLAY, 0, STATIC
        LOCFRAME DOVERLAY, 0, STATIC
        ARGFRAME ISTACK, 0, STACK
        ARGFRAME PSTACK, 0, STACK
        ARGFRAME XSTACK, 10, STACK
        ARGFRAME IOVERLAY, 0, STATIC
        ARGFRAME DOVERLAY, 0, STATIC
        FUNCALL LCD_write_CN, SendByte
        LOCFRAME ISTACK, 0, STACK
        LOCFRAME PSTACK, 0, STACK
        LOCFRAME XSTACK, 10, STACK
        LOCFRAME IOVERLAY, 0, STATIC
        LOCFRAME DOVERLAY, 0, STATIC
        ARGFRAME ISTACK, 0, STACK
        ARGFRAME PSTACK, 0, STACK
        ARGFRAME XSTACK, 10, STACK
        ARGFRAME IOVERLAY, 0, STATIC
        ARGFRAME DOVERLAY, 0, STATIC
        FUNCALL LCD_write_CN, SendByte
        LOCFRAME ISTACK, 0, STACK
        LOCFRAME PSTACK, 0, STACK
        LOCFRAME XSTACK, 10, STACK
        LOCFRAME IOVERLAY, 0, STATIC
        LOCFRAME DOVERLAY, 0, STATIC
        ARGFRAME ISTACK, 0, STACK
        ARGFRAME PSTACK, 0, STACK
        ARGFRAME XSTACK, 10, STACK
        ARGFRAME IOVERLAY, 0, STATIC
        ARGFRAME DOVERLAY, 0, STATIC
        FUNCALL LCD_write_CN, SendByte
        LOCFRAME ISTACK, 0, STACK
        LOCFRAME PSTACK, 0, STACK
        LOCFRAME XSTACK, 10, STACK
        LOCFRAME IOVERLAY, 0, STATIC
        LOCFRAME DOVERLAY, 0, STATIC
        ARGFRAME ISTACK, 0, STACK
        ARGFRAME PSTACK, 0, STACK
        ARGFRAME XSTACK, 10, STACK
        ARGFRAME IOVERLAY, 0, STATIC
        ARGFRAME DOVERLAY, 0, STATIC
        FUNCALL LCD_write_CN, SendByte
        LOCFRAME ISTACK, 0, STACK
        LOCFRAME PSTACK, 0, STACK
        LOCFRAME XSTACK, 10, STACK
        LOCFRAME IOVERLAY, 0, STATIC
        LOCFRAME DOVERLAY, 0, STATIC
        ARGFRAME ISTACK, 0, STACK
        ARGFRAME PSTACK, 0, STACK
        ARGFRAME XSTACK, 10, STACK
        ARGFRAME IOVERLAY, 0, STATIC
        ARGFRAME DOVERLAY, 0, STATIC
        REQUIRE ?V0
        REQUIRE ?V1
        MOV       A,#-0xa
        LCALL     ?BANKED_ENTER_XDATA
          CFI DPH0 load(1, XDATA, add(CFA_XSP16, literal(-1)))
          CFI DPL0 load(1, XDATA, add(CFA_XSP16, literal(-2)))
          CFI ?BRET_EXT load(1, XDATA, add(CFA_XSP16, literal(-3)))
          CFI ?RET_HIGH load(1, XDATA, add(CFA_XSP16, literal(-4)))
          CFI ?RET_LOW load(1, XDATA, add(CFA_XSP16, literal(-5)))
          CFI R7 load(1, XDATA, add(CFA_XSP16, literal(-6)))
          CFI V1 load(1, XDATA, add(CFA_XSP16, literal(-7)))
          CFI V0 load(1, XDATA, add(CFA_XSP16, literal(-8)))
          CFI VB load(1, XDATA, add(CFA_XSP16, literal(-9)))
          CFI R6 load(1, XDATA, add(CFA_XSP16, literal(-10)))
          CFI CFA_SP SP+0
          CFI CFA_XSP16 add(XSP16, 10)
        ; Saved register size: 10
        ; Auto size: 0
        MOV       A,R1
        MOV       R7,A
//  965   unsigned char i,j,temp;
//  966   
//  967   LCD_set_window(X,Y,14,14);  //按字符点阵大小设置显示窗口
        ; Setup parameters for call to function LCD_set_window
        MOV       ?V0,#0xe
        MOV       ?V1,#0x0
        MOV       R0,#?V0
        LCALL     ?PUSH_XSTACK_I_TWO
          CFI CFA_XSP16 add(XSP16, 12)
        MOV       R0,#?V0
        LCALL     ?PUSH_XSTACK_I_TWO
          CFI CFA_XSP16 add(XSP16, 14)
        LCALL     `??LCD_set_window::?relay`; Banked call to: LCD_set_window
        MOV       A,#0x4
        LCALL     ?DEALLOC_XSTACK8
          CFI CFA_XSP16 add(XSP16, 10)
//  968   //LCD_CS_CLR;               //液晶SPI使能andy
//  969   LCD_DC_SET;                 //发送数据信号使能
        SETB      0x80.0
//  970   for(i=0;i<28;i++)           // 14x14字符点阵数据大小为2x14=28字节
        MOV       ?V0,#0x0
//  971   {
//  972     temp = CN14x14[c][i] ;    //读字模数组
??LCD_write_CN_0:
        LCALL     ?Subroutine6 & 0xFFFF
//  973     for(j=0;j<8;j++)          // 按位显示
??CrossCallReturnLabel_0:
        MOV       ?V1,#0x8
//  974     {
//  975       if(temp&0x80)           //如果位值为1，显示字符色
??LCD_write_CN_1:
        MOV       A,R6
        MOV       C,0xE0 /* A   */.7
        JNC       ??LCD_write_CN_2
//  976       {
//  977         SendByte(Color>>8);  
        ; Setup parameters for call to function SendByte
        MOV       DPTR,#Color + 1
        MOVX      A,@DPTR
        MOV       R1,A
        LCALL     `??SendByte::?relay`; Banked call to: SendByte
//  978         SendByte(Color) ;
        ; Setup parameters for call to function SendByte
        MOV       DPTR,#Color
        SJMP      ??LCD_write_CN_3
//  979       }
//  980       else                    //如果位值为0，显示背景色
//  981       {
//  982         SendByte(Color_BK>>8) ;  
??LCD_write_CN_2:
        ; Setup parameters for call to function SendByte
        MOV       DPTR,#Color_BK + 1
        MOVX      A,@DPTR
        MOV       R1,A
        LCALL     `??SendByte::?relay`; Banked call to: SendByte
//  983         SendByte(Color_BK);
        ; Setup parameters for call to function SendByte
        MOV       DPTR,#Color_BK
??LCD_write_CN_3:
        MOVX      A,@DPTR
        MOV       R1,A
        LCALL     `??SendByte::?relay`; Banked call to: SendByte
//  984       }            
//  985       temp <<= 1 ;
        MOV       A,R6
        CLR       C
        RLC       A
        MOV       R6,A
//  986     }
        DEC       ?V1
        MOV       A,?V1
        JNZ       ??LCD_write_CN_1
//  987     i++ ;                     //指向下一字节
        INC       ?V0
//  988     temp = CN14x14[c][i];
        LCALL     ?Subroutine6 & 0xFFFF
//  989     for(j=0;j<6;j++)          // 按位显示，点阵横向为14像素，
??CrossCallReturnLabel_1:
        MOV       ?V1,#0x6
//  990     {                         // 所以每行第2字节最后2位抛弃
//  991       if(temp&0x80)           // 如果位值为1，显示字符色
??LCD_write_CN_4:
        MOV       A,R6
        MOV       C,0xE0 /* A   */.7
        JNC       ??LCD_write_CN_5
//  992       {
//  993         SendByte(Color>>8);  
        ; Setup parameters for call to function SendByte
        MOV       DPTR,#Color + 1
        MOVX      A,@DPTR
        MOV       R1,A
        LCALL     `??SendByte::?relay`; Banked call to: SendByte
//  994         SendByte(Color) ;
        ; Setup parameters for call to function SendByte
        MOV       DPTR,#Color
        SJMP      ??LCD_write_CN_6
//  995       }
//  996       else                    // 如果位值为0，显示背景色
//  997       {
//  998         SendByte(Color_BK>>8) ;  
??LCD_write_CN_5:
        ; Setup parameters for call to function SendByte
        MOV       DPTR,#Color_BK + 1
        MOVX      A,@DPTR
        MOV       R1,A
        LCALL     `??SendByte::?relay`; Banked call to: SendByte
//  999         SendByte(Color_BK);
        ; Setup parameters for call to function SendByte
        MOV       DPTR,#Color_BK
??LCD_write_CN_6:
        MOVX      A,@DPTR
        MOV       R1,A
        LCALL     `??SendByte::?relay`; Banked call to: SendByte
// 1000       }            
// 1001       temp <<= 1 ;
        MOV       A,R6
        CLR       C
        RLC       A
        MOV       R6,A
// 1002     }
        DEC       ?V1
        MOV       A,?V1
        JNZ       ??LCD_write_CN_4
// 1003   }
        INC       ?V0
        MOV       A,?V0
        CLR       C
        SUBB      A,#0x1c
        JC        ??LCD_write_CN_0
// 1004   //LCD_CS_SET;               //液晶SPI禁止
// 1005   LCD_DC_SET;                 //数据控制信号禁止
        SETB      0x80.0
// 1006 }
        MOV       R7,#0x2
        LJMP      ?BANKED_LEAVE_XDATA
          CFI EndBlock cfiBlock49
        REQUIRE _A_P0

        RSEG BANKED_CODE:HUGECODE:NOROOT(0)
?Subroutine6:
          CFI Block cfiCond50 Using cfiCommon0
          CFI Function LCD_write_CN
          CFI Conditional ??CrossCallReturnLabel_0
          CFI R6 load(1, XDATA, add(CFA_XSP16, literal(-10)))
          CFI VB load(1, XDATA, add(CFA_XSP16, literal(-9)))
          CFI V0 load(1, XDATA, add(CFA_XSP16, literal(-8)))
          CFI V1 load(1, XDATA, add(CFA_XSP16, literal(-7)))
          CFI R7 load(1, XDATA, add(CFA_XSP16, literal(-6)))
          CFI ?RET_LOW load(1, XDATA, add(CFA_XSP16, literal(-5)))
          CFI ?RET_HIGH load(1, XDATA, add(CFA_XSP16, literal(-4)))
          CFI ?BRET_EXT load(1, XDATA, add(CFA_XSP16, literal(-3)))
          CFI DPL0 load(1, XDATA, add(CFA_XSP16, literal(-2)))
          CFI DPH0 load(1, XDATA, add(CFA_XSP16, literal(-1)))
          CFI CFA_SP SP+-2
          CFI CFA_XSP16 add(XSP16, 10)
          CFI Block cfiCond51 Using cfiCommon0
          CFI (cfiCond51) Function LCD_write_CN
          CFI (cfiCond51) Conditional ??CrossCallReturnLabel_1
          CFI (cfiCond51) R6 load(1, XDATA, add(CFA_XSP16, literal(-10)))
          CFI (cfiCond51) VB load(1, XDATA, add(CFA_XSP16, literal(-9)))
          CFI (cfiCond51) V0 load(1, XDATA, add(CFA_XSP16, literal(-8)))
          CFI (cfiCond51) V1 load(1, XDATA, add(CFA_XSP16, literal(-7)))
          CFI (cfiCond51) R7 load(1, XDATA, add(CFA_XSP16, literal(-6)))
          CFI (cfiCond51) ?RET_LOW load(1, XDATA, add(CFA_XSP16, literal(-5)))
          CFI (cfiCond51) ?RET_HIGH load(1, XDATA, add(CFA_XSP16, literal(-4)))
          CFI (cfiCond51) ?BRET_EXT load(1, XDATA, add(CFA_XSP16, literal(-3)))
          CFI (cfiCond51) DPL0 load(1, XDATA, add(CFA_XSP16, literal(-2)))
          CFI (cfiCond51) DPH0 load(1, XDATA, add(CFA_XSP16, literal(-1)))
          CFI (cfiCond51) CFA_SP SP+-2
          CFI (cfiCond51) CFA_XSP16 add(XSP16, 10)
          CFI Block cfiPicker52 Using cfiCommon1
          CFI (cfiPicker52) NoFunction
          CFI (cfiPicker52) Picker
        MOV       R2,?V0
        MOV       A,R7
        MOV       B,#0x1c
        MUL       AB
        MOV       R0,A
        MOV       R1,B
        MOV       A,#CN14x14 & 0xff
        ADD       A,R0
        MOV       R0,A
        MOV       A,#(CN14x14 >> 8) & 0xff
        ADDC      A,R1
        MOV       R1,A
        MOV       A,R0
        ADD       A,R2
        MOV       DPL,A
        CLR       A
        ADDC      A,R1
        MOV       DPH,A
        MOVX      A,@DPTR
        MOV       R6,A
        RET
          CFI EndBlock cfiCond50
          CFI EndBlock cfiCond51
          CFI EndBlock cfiPicker52
// 1007 
// 1008 /****************************************************************************
// 1009 * 名    称: LCD_write_CN_string()
// 1010 * 功    能: 在指定位置显示 14 ×14 点阵中文字符串   
// 1011 * 入口参数: X - 显示位置左上角横坐标      Y ―显示位置左上角纵坐标
// 1012 *           s ―字符串指针                  
// 1013 * 出口参数: 无
// 1014 ****************************************************************************/

        RSEG BANKED_CODE:HUGECODE:NOROOT(0)
// 1015 void LCD_write_CN_string(unsigned char X,unsigned char Y,uint8 *s)
LCD_write_CN_string:
          CFI Block cfiBlock53 Using cfiCommon0
          CFI Function LCD_write_CN_string
        CODE
// 1016 {
        FUNCALL LCD_write_CN_string, LCD_write_CN
        LOCFRAME ISTACK, 0, STACK
        LOCFRAME PSTACK, 0, STACK
        LOCFRAME XSTACK, 14, STACK
        LOCFRAME IOVERLAY, 0, STATIC
        LOCFRAME DOVERLAY, 0, STATIC
        ARGFRAME ISTACK, 0, STACK
        ARGFRAME PSTACK, 0, STACK
        ARGFRAME XSTACK, 14, STACK
        ARGFRAME IOVERLAY, 0, STATIC
        ARGFRAME DOVERLAY, 0, STATIC
        FUNCALL LCD_write_CN_string, DrawRectFill
        LOCFRAME ISTACK, 0, STACK
        LOCFRAME PSTACK, 0, STACK
        LOCFRAME XSTACK, 20, STACK
        LOCFRAME IOVERLAY, 0, STATIC
        LOCFRAME DOVERLAY, 0, STATIC
        ARGFRAME ISTACK, 0, STACK
        ARGFRAME PSTACK, 0, STACK
        ARGFRAME XSTACK, 20, STACK
        ARGFRAME IOVERLAY, 0, STATIC
        ARGFRAME DOVERLAY, 0, STATIC
        REQUIRE ?V0
        REQUIRE ?V1
        REQUIRE ?V2
        REQUIRE ?V3
        REQUIRE ?V4
        REQUIRE ?V5
        MOV       A,#-0xe
        LCALL     ?BANKED_ENTER_XDATA
          CFI DPH0 load(1, XDATA, add(CFA_XSP16, literal(-1)))
          CFI DPL0 load(1, XDATA, add(CFA_XSP16, literal(-2)))
          CFI ?BRET_EXT load(1, XDATA, add(CFA_XSP16, literal(-3)))
          CFI ?RET_HIGH load(1, XDATA, add(CFA_XSP16, literal(-4)))
          CFI ?RET_LOW load(1, XDATA, add(CFA_XSP16, literal(-5)))
          CFI R7 load(1, XDATA, add(CFA_XSP16, literal(-6)))
          CFI V5 load(1, XDATA, add(CFA_XSP16, literal(-7)))
          CFI V4 load(1, XDATA, add(CFA_XSP16, literal(-8)))
          CFI V3 load(1, XDATA, add(CFA_XSP16, literal(-9)))
          CFI V2 load(1, XDATA, add(CFA_XSP16, literal(-10)))
          CFI V1 load(1, XDATA, add(CFA_XSP16, literal(-11)))
          CFI V0 load(1, XDATA, add(CFA_XSP16, literal(-12)))
          CFI VB load(1, XDATA, add(CFA_XSP16, literal(-13)))
          CFI R6 load(1, XDATA, add(CFA_XSP16, literal(-14)))
          CFI CFA_SP SP+0
          CFI CFA_XSP16 add(XSP16, 14)
        ; Saved register size: 14
        ; Auto size: 0
        MOV       ?V1,R1
        MOV       ?V2,R2
        MOV       A,R4
        MOV       R6,A
        MOV       A,R5
        MOV       R7,A
// 1017   unsigned char i=0;
        MOV       ?V0,#0x0
// 1018   static unsigned char j=0;
// 1019   
// 1020   while (*s)
??LCD_write_CN_string_0:
        MOV       DPL,R6
        MOV       DPH,R7
        MOVX      A,@DPTR
        JNZ       $+5
        LJMP      ??LCD_write_CN_string_1 & 0xFFFF
// 1021   {
// 1022     for(j=0;j<ALL_CNS;j++)                  //搜索点阵字模
        MOV       DPTR,#??j
        CLR       A
        MOVX      @DPTR,A
// 1023     { 
// 1024       if(  *s    ==CN14x14_Index[j*2]            
// 1025          &&*(s+1)==CN14x14_Index[j*2+1])    //汉字内码存在于字模索引数组中
??LCD_write_CN_string_2:
        MOV       DPL,R6
        MOV       DPH,R7
        MOVX      A,@DPTR
        MOV       R2,A
        MOV       DPTR,#??j
        MOVX      A,@DPTR
        ADD       A,0xE0 /* A   */
        MOV       R0,A
        CLR       A
        RLC       A
        MOV       R1,A
        MOV       A,#CN14x14_Index & 0xff
        ADD       A,R0
        MOV       DPL,A
        MOV       A,#(CN14x14_Index >> 8) & 0xff
        ADDC      A,R1
        MOV       DPH,A
        CLR       A
        MOVC      A,@A+DPTR
        XRL       A,R2
        JNZ       ??LCD_write_CN_string_3
        MOV       DPL,R6
        MOV       DPH,R7
        INC       DPTR
        MOVX      A,@DPTR
        MOV       R2,A
        MOV       A,#(CN14x14_Index + 1) & 0xff
        ADD       A,R0
        MOV       DPL,A
        MOV       A,#((CN14x14_Index + 1) >> 8) & 0xff
        ADDC      A,R1
        MOV       DPH,A
        CLR       A
        MOVC      A,@A+DPTR
        XRL       A,R2
        JNZ       ??LCD_write_CN_string_3
// 1026       {
// 1027         LCD_write_CN(X+i*14,Y,j) ;          //显示汉字
        ; Setup parameters for call to function LCD_write_CN
        MOV       DPTR,#??j
        MOVX      A,@DPTR
        MOV       R1,A
        MOV       R4,?V2
        MOV       R5,#0x0
        MOV       A,?V1
        MOV       ?V4,A
        MOV       A,?V0
        MOV       B,#0xe
        MUL       AB
        MOV       R2,A
        MOV       R3,B
        MOV       A,?V4
        ADD       A,R2
        MOV       R2,A
        CLR       A
        ADDC      A,R3
        MOV       R3,A
        LCALL     `??LCD_write_CN::?relay`; Banked call to: LCD_write_CN
// 1028         break; 
        SJMP      ??LCD_write_CN_string_4
// 1029       }
// 1030     }
??LCD_write_CN_string_3:
        MOV       DPTR,#??j
        MOVX      A,@DPTR
        INC       A
        MOVX      @DPTR,A
        CLR       C
        SUBB      A,#-0x80
        JC        ??LCD_write_CN_string_2
// 1031     if(j>=ALL_CNS)                          //无此字的点阵字模
??LCD_write_CN_string_4:
        MOV       DPTR,#??j
        MOVX      A,@DPTR
        CLR       C
        SUBB      A,#-0x80
        JC        ??LCD_write_CN_string_5
// 1032     {
// 1033       DrawRectFill(X+i*14,Y,14,14,Color_BK);//显示空格
        ; Setup parameters for call to function DrawRectFill
        MOV       DPTR,#Color_BK
        LCALL     ?PUSH_XSTACK8_X_TWO
          CFI CFA_XSP16 add(XSP16, 16)
        MOV       ?V4,#0xe
        MOV       ?V5,#0x0
        MOV       R0,#?V4
        LCALL     ?PUSH_XSTACK_I_TWO
          CFI CFA_XSP16 add(XSP16, 18)
        MOV       R0,#?V4
        LCALL     ?PUSH_XSTACK_I_TWO
          CFI CFA_XSP16 add(XSP16, 20)
        MOV       R4,?V2
        MOV       R5,#0x0
        MOV       A,?V0
        MOV       B,#0xe
        MUL       AB
        MOV       R0,A
        MOV       ?V3,B
        MOV       R1,?V3
        MOV       A,?V1
        ADD       A,R0
        MOV       R2,A
        CLR       A
        ADDC      A,R1
        MOV       R3,A
        LCALL     `??DrawRectFill::?relay`; Banked call to: DrawRectFill
        MOV       A,#0x6
        LCALL     ?DEALLOC_XSTACK8
          CFI CFA_XSP16 add(XSP16, 14)
// 1034     }
// 1035     s++; s++ ;                              //字符指针移位
??LCD_write_CN_string_5:
        MOV       A,R6
        ADD       A,#0x2
        MOV       R6,A
        JNC       ??LCD_write_CN_string_6
        INC       R7
// 1036     i++;
??LCD_write_CN_string_6:
        INC       ?V0
// 1037     if(i>=HAL_LCD_MAX_CHARS/2)  
        MOV       A,?V0
        CLR       C
        SUBB      A,#0x8
        JNC       $+5
        LJMP      ??LCD_write_CN_string_0 & 0xFFFF
// 1038       return;                               //超过最大显示字符数，返回
// 1039   }
// 1040   return ;
??LCD_write_CN_string_1:
        LJMP      ?Subroutine1 & 0xFFFF
// 1041 }
          CFI EndBlock cfiBlock53

        RSEG XDATA_Z:XDATA:NOROOT(0)
        DATA8
??j:
        DS 1
        REQUIRE __INIT_XDATA_Z
// 1042 
// 1043 /****************************************************************************
// 1044 * 名    称: ShowImage()
// 1045 * 功    能: 显示图片   
// 1046 * 入口参数: p - 图片点阵数据  取模方式 水平扫描 从左到右 低位在前           
// 1047 * 出口参数: 无
// 1048 ****************************************************************************/

        RSEG BANKED_CODE:HUGECODE:NOROOT(0)
// 1049 void ShowImage(const unsigned char *p) 
ShowImage:
          CFI Block cfiBlock54 Using cfiCommon0
          CFI Function ShowImage
        CODE
// 1050 {
        FUNCALL ShowImage, LCD_set_window
        LOCFRAME ISTACK, 0, STACK
        LOCFRAME PSTACK, 0, STACK
        LOCFRAME XSTACK, 16, STACK
        LOCFRAME IOVERLAY, 0, STATIC
        LOCFRAME DOVERLAY, 0, STATIC
        ARGFRAME ISTACK, 0, STACK
        ARGFRAME PSTACK, 0, STACK
        ARGFRAME XSTACK, 16, STACK
        ARGFRAME IOVERLAY, 0, STATIC
        ARGFRAME DOVERLAY, 0, STATIC
        FUNCALL ShowImage, LCD_WriteData_16Bit
        LOCFRAME ISTACK, 0, STACK
        LOCFRAME PSTACK, 0, STACK
        LOCFRAME XSTACK, 12, STACK
        LOCFRAME IOVERLAY, 0, STATIC
        LOCFRAME DOVERLAY, 0, STATIC
        ARGFRAME ISTACK, 0, STACK
        ARGFRAME PSTACK, 0, STACK
        ARGFRAME XSTACK, 12, STACK
        ARGFRAME IOVERLAY, 0, STATIC
        ARGFRAME DOVERLAY, 0, STATIC
        REQUIRE ?V0
        REQUIRE ?V1
        REQUIRE ?V2
        REQUIRE ?V3
        MOV       A,#-0xc
        LCALL     ?BANKED_ENTER_XDATA
          CFI DPH0 load(1, XDATA, add(CFA_XSP16, literal(-1)))
          CFI DPL0 load(1, XDATA, add(CFA_XSP16, literal(-2)))
          CFI ?BRET_EXT load(1, XDATA, add(CFA_XSP16, literal(-3)))
          CFI ?RET_HIGH load(1, XDATA, add(CFA_XSP16, literal(-4)))
          CFI ?RET_LOW load(1, XDATA, add(CFA_XSP16, literal(-5)))
          CFI R7 load(1, XDATA, add(CFA_XSP16, literal(-6)))
          CFI V3 load(1, XDATA, add(CFA_XSP16, literal(-7)))
          CFI V2 load(1, XDATA, add(CFA_XSP16, literal(-8)))
          CFI V1 load(1, XDATA, add(CFA_XSP16, literal(-9)))
          CFI V0 load(1, XDATA, add(CFA_XSP16, literal(-10)))
          CFI VB load(1, XDATA, add(CFA_XSP16, literal(-11)))
          CFI R6 load(1, XDATA, add(CFA_XSP16, literal(-12)))
          CFI CFA_SP SP+0
          CFI CFA_XSP16 add(XSP16, 12)
        ; Saved register size: 12
        ; Auto size: 0
        MOV       ?V0,R2
        MOV       ?V1,R3
// 1051   int i; 
// 1052   unsigned char picH,picL;
// 1053   
// 1054   LCD_set_window(24,5,80,40); //坐标设置
        ; Setup parameters for call to function LCD_set_window
        MOV       ?V2,#0x28
        MOV       ?V3,#0x0
        MOV       R0,#?V2
        LCALL     ?PUSH_XSTACK_I_TWO
          CFI CFA_XSP16 add(XSP16, 14)
        MOV       ?V2,#0x50
        MOV       R0,#?V2
        LCALL     ?PUSH_XSTACK_I_TWO
          CFI CFA_XSP16 add(XSP16, 16)
        MOV       R4,#0x5
        MOV       R5,#0x0
        MOV       R2,#0x18
        MOV       R3,#0x0
        LCALL     `??LCD_set_window::?relay`; Banked call to: LCD_set_window
        MOV       A,#0x4
        LCALL     ?DEALLOC_XSTACK8
          CFI CFA_XSP16 add(XSP16, 12)
// 1055   for(i=0;i<80*40;i++)
        MOV       R6,#0x0
        MOV       R7,#0x0
// 1056   {	
// 1057     picL=*(p+i*2);	//数据低位在前
// 1058     picH=*(p+i*2+1);				
// 1059     LCD_WriteData_16Bit(picH<<8|picL);  						
??ShowImage_0:
        MOV       A,R6
        MOV       R0,A
        MOV       A,R7
        MOV       R1,A
        MOV       A,R0
        ADD       A,R0
        MOV       R0,A
        MOV       A,R1
        RLC       A
        MOV       R1,A
        MOV       A,?V0
        ADD       A,R0
        MOV       R0,A
        MOV       A,?V1
        ADDC      A,R1
        MOV       R1,A
        ; Setup parameters for call to function LCD_WriteData_16Bit
        MOV       DPL,R0
        MOV       DPH,R1
        INC       DPTR
        MOVX      A,@DPTR
        MOV       R3,A
        MOV       DPL,R0
        MOV       DPH,R1
        MOVX      A,@DPTR
        MOV       R2,A
        LCALL     `??LCD_WriteData_16Bit::?relay`; Banked call to: LCD_WriteData_16Bit
// 1060   }	
        INC       R6
        MOV       A,R6
        JNZ       ??ShowImage_1
        INC       R7
??ShowImage_1:
        CLR       C
        SUBB      A,#-0x80
        MOV       A,R7
        SUBB      A,#0xc
        MOV       C,0xD0 /* PSW */.2
        XRL       A,PSW
        RLC       A
        JC        ??ShowImage_0
// 1061 }
        LJMP      ??Subroutine13_0 & 0xFFFF
          CFI EndBlock cfiBlock54
// 1062 
// 1063 //初始化LCD

        RSEG BANKED_CODE:HUGECODE:NOROOT(0)
// 1064 void HalLcd_HW_Init(void)
HalLcd_HW_Init:
          CFI Block cfiBlock55 Using cfiCommon0
          CFI Function HalLcd_HW_Init
        CODE
// 1065 {
        FUNCALL HalLcd_HW_Init, Lcd_Reset
        LOCFRAME ISTACK, 2, STACK
        LOCFRAME PSTACK, 0, STACK
        LOCFRAME XSTACK, 0, STACK
        LOCFRAME IOVERLAY, 0, STATIC
        LOCFRAME DOVERLAY, 0, STATIC
        ARGFRAME ISTACK, 2, STACK
        ARGFRAME PSTACK, 0, STACK
        ARGFRAME XSTACK, 0, STACK
        ARGFRAME IOVERLAY, 0, STATIC
        ARGFRAME DOVERLAY, 0, STATIC
        FUNCALL HalLcd_HW_Init, LCD_write_byte
        LOCFRAME ISTACK, 2, STACK
        LOCFRAME PSTACK, 0, STACK
        LOCFRAME XSTACK, 0, STACK
        LOCFRAME IOVERLAY, 0, STATIC
        LOCFRAME DOVERLAY, 0, STATIC
        ARGFRAME ISTACK, 2, STACK
        ARGFRAME PSTACK, 0, STACK
        ARGFRAME XSTACK, 0, STACK
        ARGFRAME IOVERLAY, 0, STATIC
        ARGFRAME DOVERLAY, 0, STATIC
        FUNCALL HalLcd_HW_Init, DelayMS
        LOCFRAME ISTACK, 2, STACK
        LOCFRAME PSTACK, 0, STACK
        LOCFRAME XSTACK, 0, STACK
        LOCFRAME IOVERLAY, 0, STATIC
        LOCFRAME DOVERLAY, 0, STATIC
        ARGFRAME ISTACK, 2, STACK
        ARGFRAME PSTACK, 0, STACK
        ARGFRAME XSTACK, 0, STACK
        ARGFRAME IOVERLAY, 0, STATIC
        ARGFRAME DOVERLAY, 0, STATIC
        FUNCALL HalLcd_HW_Init, LCD_write_byte
        LOCFRAME ISTACK, 2, STACK
        LOCFRAME PSTACK, 0, STACK
        LOCFRAME XSTACK, 0, STACK
        LOCFRAME IOVERLAY, 0, STATIC
        LOCFRAME DOVERLAY, 0, STATIC
        ARGFRAME ISTACK, 2, STACK
        ARGFRAME PSTACK, 0, STACK
        ARGFRAME XSTACK, 0, STACK
        ARGFRAME IOVERLAY, 0, STATIC
        ARGFRAME DOVERLAY, 0, STATIC
        FUNCALL HalLcd_HW_Init, LCD_write_byte
        LOCFRAME ISTACK, 2, STACK
        LOCFRAME PSTACK, 0, STACK
        LOCFRAME XSTACK, 0, STACK
        LOCFRAME IOVERLAY, 0, STATIC
        LOCFRAME DOVERLAY, 0, STATIC
        ARGFRAME ISTACK, 2, STACK
        ARGFRAME PSTACK, 0, STACK
        ARGFRAME XSTACK, 0, STACK
        ARGFRAME IOVERLAY, 0, STATIC
        ARGFRAME DOVERLAY, 0, STATIC
        FUNCALL HalLcd_HW_Init, LCD_write_byte
        LOCFRAME ISTACK, 2, STACK
        LOCFRAME PSTACK, 0, STACK
        LOCFRAME XSTACK, 0, STACK
        LOCFRAME IOVERLAY, 0, STATIC
        LOCFRAME DOVERLAY, 0, STATIC
        ARGFRAME ISTACK, 2, STACK
        ARGFRAME PSTACK, 0, STACK
        ARGFRAME XSTACK, 0, STACK
        ARGFRAME IOVERLAY, 0, STATIC
        ARGFRAME DOVERLAY, 0, STATIC
        FUNCALL HalLcd_HW_Init, LCD_write_byte
        LOCFRAME ISTACK, 2, STACK
        LOCFRAME PSTACK, 0, STACK
        LOCFRAME XSTACK, 0, STACK
        LOCFRAME IOVERLAY, 0, STATIC
        LOCFRAME DOVERLAY, 0, STATIC
        ARGFRAME ISTACK, 2, STACK
        ARGFRAME PSTACK, 0, STACK
        ARGFRAME XSTACK, 0, STACK
        ARGFRAME IOVERLAY, 0, STATIC
        ARGFRAME DOVERLAY, 0, STATIC
        FUNCALL HalLcd_HW_Init, LCD_write_byte
        LOCFRAME ISTACK, 2, STACK
        LOCFRAME PSTACK, 0, STACK
        LOCFRAME XSTACK, 0, STACK
        LOCFRAME IOVERLAY, 0, STATIC
        LOCFRAME DOVERLAY, 0, STATIC
        ARGFRAME ISTACK, 2, STACK
        ARGFRAME PSTACK, 0, STACK
        ARGFRAME XSTACK, 0, STACK
        ARGFRAME IOVERLAY, 0, STATIC
        ARGFRAME DOVERLAY, 0, STATIC
        FUNCALL HalLcd_HW_Init, LCD_write_byte
        LOCFRAME ISTACK, 2, STACK
        LOCFRAME PSTACK, 0, STACK
        LOCFRAME XSTACK, 0, STACK
        LOCFRAME IOVERLAY, 0, STATIC
        LOCFRAME DOVERLAY, 0, STATIC
        ARGFRAME ISTACK, 2, STACK
        ARGFRAME PSTACK, 0, STACK
        ARGFRAME XSTACK, 0, STACK
        ARGFRAME IOVERLAY, 0, STATIC
        ARGFRAME DOVERLAY, 0, STATIC
        FUNCALL HalLcd_HW_Init, LCD_write_byte
        LOCFRAME ISTACK, 2, STACK
        LOCFRAME PSTACK, 0, STACK
        LOCFRAME XSTACK, 0, STACK
        LOCFRAME IOVERLAY, 0, STATIC
        LOCFRAME DOVERLAY, 0, STATIC
        ARGFRAME ISTACK, 2, STACK
        ARGFRAME PSTACK, 0, STACK
        ARGFRAME XSTACK, 0, STACK
        ARGFRAME IOVERLAY, 0, STATIC
        ARGFRAME DOVERLAY, 0, STATIC
        FUNCALL HalLcd_HW_Init, LCD_write_byte
        LOCFRAME ISTACK, 2, STACK
        LOCFRAME PSTACK, 0, STACK
        LOCFRAME XSTACK, 0, STACK
        LOCFRAME IOVERLAY, 0, STATIC
        LOCFRAME DOVERLAY, 0, STATIC
        ARGFRAME ISTACK, 2, STACK
        ARGFRAME PSTACK, 0, STACK
        ARGFRAME XSTACK, 0, STACK
        ARGFRAME IOVERLAY, 0, STATIC
        ARGFRAME DOVERLAY, 0, STATIC
        FUNCALL HalLcd_HW_Init, LCD_write_byte
        LOCFRAME ISTACK, 2, STACK
        LOCFRAME PSTACK, 0, STACK
        LOCFRAME XSTACK, 0, STACK
        LOCFRAME IOVERLAY, 0, STATIC
        LOCFRAME DOVERLAY, 0, STATIC
        ARGFRAME ISTACK, 2, STACK
        ARGFRAME PSTACK, 0, STACK
        ARGFRAME XSTACK, 0, STACK
        ARGFRAME IOVERLAY, 0, STATIC
        ARGFRAME DOVERLAY, 0, STATIC
        FUNCALL HalLcd_HW_Init, LCD_write_byte
        LOCFRAME ISTACK, 2, STACK
        LOCFRAME PSTACK, 0, STACK
        LOCFRAME XSTACK, 0, STACK
        LOCFRAME IOVERLAY, 0, STATIC
        LOCFRAME DOVERLAY, 0, STATIC
        ARGFRAME ISTACK, 2, STACK
        ARGFRAME PSTACK, 0, STACK
        ARGFRAME XSTACK, 0, STACK
        ARGFRAME IOVERLAY, 0, STATIC
        ARGFRAME DOVERLAY, 0, STATIC
        FUNCALL HalLcd_HW_Init, LCD_write_byte
        LOCFRAME ISTACK, 2, STACK
        LOCFRAME PSTACK, 0, STACK
        LOCFRAME XSTACK, 0, STACK
        LOCFRAME IOVERLAY, 0, STATIC
        LOCFRAME DOVERLAY, 0, STATIC
        ARGFRAME ISTACK, 2, STACK
        ARGFRAME PSTACK, 0, STACK
        ARGFRAME XSTACK, 0, STACK
        ARGFRAME IOVERLAY, 0, STATIC
        ARGFRAME DOVERLAY, 0, STATIC
        FUNCALL HalLcd_HW_Init, LCD_write_byte
        LOCFRAME ISTACK, 2, STACK
        LOCFRAME PSTACK, 0, STACK
        LOCFRAME XSTACK, 0, STACK
        LOCFRAME IOVERLAY, 0, STATIC
        LOCFRAME DOVERLAY, 0, STATIC
        ARGFRAME ISTACK, 2, STACK
        ARGFRAME PSTACK, 0, STACK
        ARGFRAME XSTACK, 0, STACK
        ARGFRAME IOVERLAY, 0, STATIC
        ARGFRAME DOVERLAY, 0, STATIC
        FUNCALL HalLcd_HW_Init, LCD_write_byte
        LOCFRAME ISTACK, 2, STACK
        LOCFRAME PSTACK, 0, STACK
        LOCFRAME XSTACK, 0, STACK
        LOCFRAME IOVERLAY, 0, STATIC
        LOCFRAME DOVERLAY, 0, STATIC
        ARGFRAME ISTACK, 2, STACK
        ARGFRAME PSTACK, 0, STACK
        ARGFRAME XSTACK, 0, STACK
        ARGFRAME IOVERLAY, 0, STATIC
        ARGFRAME DOVERLAY, 0, STATIC
        FUNCALL HalLcd_HW_Init, LCD_write_byte
        LOCFRAME ISTACK, 2, STACK
        LOCFRAME PSTACK, 0, STACK
        LOCFRAME XSTACK, 0, STACK
        LOCFRAME IOVERLAY, 0, STATIC
        LOCFRAME DOVERLAY, 0, STATIC
        ARGFRAME ISTACK, 2, STACK
        ARGFRAME PSTACK, 0, STACK
        ARGFRAME XSTACK, 0, STACK
        ARGFRAME IOVERLAY, 0, STATIC
        ARGFRAME DOVERLAY, 0, STATIC
        FUNCALL HalLcd_HW_Init, LCD_write_byte
        LOCFRAME ISTACK, 2, STACK
        LOCFRAME PSTACK, 0, STACK
        LOCFRAME XSTACK, 0, STACK
        LOCFRAME IOVERLAY, 0, STATIC
        LOCFRAME DOVERLAY, 0, STATIC
        ARGFRAME ISTACK, 2, STACK
        ARGFRAME PSTACK, 0, STACK
        ARGFRAME XSTACK, 0, STACK
        ARGFRAME IOVERLAY, 0, STATIC
        ARGFRAME DOVERLAY, 0, STATIC
        FUNCALL HalLcd_HW_Init, LCD_write_byte
        LOCFRAME ISTACK, 2, STACK
        LOCFRAME PSTACK, 0, STACK
        LOCFRAME XSTACK, 0, STACK
        LOCFRAME IOVERLAY, 0, STATIC
        LOCFRAME DOVERLAY, 0, STATIC
        ARGFRAME ISTACK, 2, STACK
        ARGFRAME PSTACK, 0, STACK
        ARGFRAME XSTACK, 0, STACK
        ARGFRAME IOVERLAY, 0, STATIC
        ARGFRAME DOVERLAY, 0, STATIC
        FUNCALL HalLcd_HW_Init, LCD_write_byte
        LOCFRAME ISTACK, 2, STACK
        LOCFRAME PSTACK, 0, STACK
        LOCFRAME XSTACK, 0, STACK
        LOCFRAME IOVERLAY, 0, STATIC
        LOCFRAME DOVERLAY, 0, STATIC
        ARGFRAME ISTACK, 2, STACK
        ARGFRAME PSTACK, 0, STACK
        ARGFRAME XSTACK, 0, STACK
        ARGFRAME IOVERLAY, 0, STATIC
        ARGFRAME DOVERLAY, 0, STATIC
        FUNCALL HalLcd_HW_Init, LCD_write_byte
        LOCFRAME ISTACK, 2, STACK
        LOCFRAME PSTACK, 0, STACK
        LOCFRAME XSTACK, 0, STACK
        LOCFRAME IOVERLAY, 0, STATIC
        LOCFRAME DOVERLAY, 0, STATIC
        ARGFRAME ISTACK, 2, STACK
        ARGFRAME PSTACK, 0, STACK
        ARGFRAME XSTACK, 0, STACK
        ARGFRAME IOVERLAY, 0, STATIC
        ARGFRAME DOVERLAY, 0, STATIC
        FUNCALL HalLcd_HW_Init, LCD_write_byte
        LOCFRAME ISTACK, 2, STACK
        LOCFRAME PSTACK, 0, STACK
        LOCFRAME XSTACK, 0, STACK
        LOCFRAME IOVERLAY, 0, STATIC
        LOCFRAME DOVERLAY, 0, STATIC
        ARGFRAME ISTACK, 2, STACK
        ARGFRAME PSTACK, 0, STACK
        ARGFRAME XSTACK, 0, STACK
        ARGFRAME IOVERLAY, 0, STATIC
        ARGFRAME DOVERLAY, 0, STATIC
        FUNCALL HalLcd_HW_Init, LCD_write_byte
        LOCFRAME ISTACK, 2, STACK
        LOCFRAME PSTACK, 0, STACK
        LOCFRAME XSTACK, 0, STACK
        LOCFRAME IOVERLAY, 0, STATIC
        LOCFRAME DOVERLAY, 0, STATIC
        ARGFRAME ISTACK, 2, STACK
        ARGFRAME PSTACK, 0, STACK
        ARGFRAME XSTACK, 0, STACK
        ARGFRAME IOVERLAY, 0, STATIC
        ARGFRAME DOVERLAY, 0, STATIC
        FUNCALL HalLcd_HW_Init, LCD_write_byte
        LOCFRAME ISTACK, 2, STACK
        LOCFRAME PSTACK, 0, STACK
        LOCFRAME XSTACK, 0, STACK
        LOCFRAME IOVERLAY, 0, STATIC
        LOCFRAME DOVERLAY, 0, STATIC
        ARGFRAME ISTACK, 2, STACK
        ARGFRAME PSTACK, 0, STACK
        ARGFRAME XSTACK, 0, STACK
        ARGFRAME IOVERLAY, 0, STATIC
        ARGFRAME DOVERLAY, 0, STATIC
        FUNCALL HalLcd_HW_Init, LCD_write_byte
        LOCFRAME ISTACK, 2, STACK
        LOCFRAME PSTACK, 0, STACK
        LOCFRAME XSTACK, 0, STACK
        LOCFRAME IOVERLAY, 0, STATIC
        LOCFRAME DOVERLAY, 0, STATIC
        ARGFRAME ISTACK, 2, STACK
        ARGFRAME PSTACK, 0, STACK
        ARGFRAME XSTACK, 0, STACK
        ARGFRAME IOVERLAY, 0, STATIC
        ARGFRAME DOVERLAY, 0, STATIC
        FUNCALL HalLcd_HW_Init, LCD_write_byte
        LOCFRAME ISTACK, 2, STACK
        LOCFRAME PSTACK, 0, STACK
        LOCFRAME XSTACK, 0, STACK
        LOCFRAME IOVERLAY, 0, STATIC
        LOCFRAME DOVERLAY, 0, STATIC
        ARGFRAME ISTACK, 2, STACK
        ARGFRAME PSTACK, 0, STACK
        ARGFRAME XSTACK, 0, STACK
        ARGFRAME IOVERLAY, 0, STATIC
        ARGFRAME DOVERLAY, 0, STATIC
        FUNCALL HalLcd_HW_Init, LCD_write_byte
        LOCFRAME ISTACK, 2, STACK
        LOCFRAME PSTACK, 0, STACK
        LOCFRAME XSTACK, 0, STACK
        LOCFRAME IOVERLAY, 0, STATIC
        LOCFRAME DOVERLAY, 0, STATIC
        ARGFRAME ISTACK, 2, STACK
        ARGFRAME PSTACK, 0, STACK
        ARGFRAME XSTACK, 0, STACK
        ARGFRAME IOVERLAY, 0, STATIC
        ARGFRAME DOVERLAY, 0, STATIC
        FUNCALL HalLcd_HW_Init, LCD_write_byte
        LOCFRAME ISTACK, 2, STACK
        LOCFRAME PSTACK, 0, STACK
        LOCFRAME XSTACK, 0, STACK
        LOCFRAME IOVERLAY, 0, STATIC
        LOCFRAME DOVERLAY, 0, STATIC
        ARGFRAME ISTACK, 2, STACK
        ARGFRAME PSTACK, 0, STACK
        ARGFRAME XSTACK, 0, STACK
        ARGFRAME IOVERLAY, 0, STATIC
        ARGFRAME DOVERLAY, 0, STATIC
        FUNCALL HalLcd_HW_Init, LCD_write_byte
        LOCFRAME ISTACK, 2, STACK
        LOCFRAME PSTACK, 0, STACK
        LOCFRAME XSTACK, 0, STACK
        LOCFRAME IOVERLAY, 0, STATIC
        LOCFRAME DOVERLAY, 0, STATIC
        ARGFRAME ISTACK, 2, STACK
        ARGFRAME PSTACK, 0, STACK
        ARGFRAME XSTACK, 0, STACK
        ARGFRAME IOVERLAY, 0, STATIC
        ARGFRAME DOVERLAY, 0, STATIC
        FUNCALL HalLcd_HW_Init, LCD_write_byte
        LOCFRAME ISTACK, 2, STACK
        LOCFRAME PSTACK, 0, STACK
        LOCFRAME XSTACK, 0, STACK
        LOCFRAME IOVERLAY, 0, STATIC
        LOCFRAME DOVERLAY, 0, STATIC
        ARGFRAME ISTACK, 2, STACK
        ARGFRAME PSTACK, 0, STACK
        ARGFRAME XSTACK, 0, STACK
        ARGFRAME IOVERLAY, 0, STATIC
        ARGFRAME DOVERLAY, 0, STATIC
        FUNCALL HalLcd_HW_Init, LCD_write_byte
        LOCFRAME ISTACK, 2, STACK
        LOCFRAME PSTACK, 0, STACK
        LOCFRAME XSTACK, 0, STACK
        LOCFRAME IOVERLAY, 0, STATIC
        LOCFRAME DOVERLAY, 0, STATIC
        ARGFRAME ISTACK, 2, STACK
        ARGFRAME PSTACK, 0, STACK
        ARGFRAME XSTACK, 0, STACK
        ARGFRAME IOVERLAY, 0, STATIC
        ARGFRAME DOVERLAY, 0, STATIC
        FUNCALL HalLcd_HW_Init, LCD_write_byte
        LOCFRAME ISTACK, 2, STACK
        LOCFRAME PSTACK, 0, STACK
        LOCFRAME XSTACK, 0, STACK
        LOCFRAME IOVERLAY, 0, STATIC
        LOCFRAME DOVERLAY, 0, STATIC
        ARGFRAME ISTACK, 2, STACK
        ARGFRAME PSTACK, 0, STACK
        ARGFRAME XSTACK, 0, STACK
        ARGFRAME IOVERLAY, 0, STATIC
        ARGFRAME DOVERLAY, 0, STATIC
        FUNCALL HalLcd_HW_Init, LCD_write_byte
        LOCFRAME ISTACK, 2, STACK
        LOCFRAME PSTACK, 0, STACK
        LOCFRAME XSTACK, 0, STACK
        LOCFRAME IOVERLAY, 0, STATIC
        LOCFRAME DOVERLAY, 0, STATIC
        ARGFRAME ISTACK, 2, STACK
        ARGFRAME PSTACK, 0, STACK
        ARGFRAME XSTACK, 0, STACK
        ARGFRAME IOVERLAY, 0, STATIC
        ARGFRAME DOVERLAY, 0, STATIC
        FUNCALL HalLcd_HW_Init, LCD_write_byte
        LOCFRAME ISTACK, 2, STACK
        LOCFRAME PSTACK, 0, STACK
        LOCFRAME XSTACK, 0, STACK
        LOCFRAME IOVERLAY, 0, STATIC
        LOCFRAME DOVERLAY, 0, STATIC
        ARGFRAME ISTACK, 2, STACK
        ARGFRAME PSTACK, 0, STACK
        ARGFRAME XSTACK, 0, STACK
        ARGFRAME IOVERLAY, 0, STATIC
        ARGFRAME DOVERLAY, 0, STATIC
        FUNCALL HalLcd_HW_Init, LCD_write_byte
        LOCFRAME ISTACK, 2, STACK
        LOCFRAME PSTACK, 0, STACK
        LOCFRAME XSTACK, 0, STACK
        LOCFRAME IOVERLAY, 0, STATIC
        LOCFRAME DOVERLAY, 0, STATIC
        ARGFRAME ISTACK, 2, STACK
        ARGFRAME PSTACK, 0, STACK
        ARGFRAME XSTACK, 0, STACK
        ARGFRAME IOVERLAY, 0, STATIC
        ARGFRAME DOVERLAY, 0, STATIC
        FUNCALL HalLcd_HW_Init, LCD_write_byte
        LOCFRAME ISTACK, 2, STACK
        LOCFRAME PSTACK, 0, STACK
        LOCFRAME XSTACK, 0, STACK
        LOCFRAME IOVERLAY, 0, STATIC
        LOCFRAME DOVERLAY, 0, STATIC
        ARGFRAME ISTACK, 2, STACK
        ARGFRAME PSTACK, 0, STACK
        ARGFRAME XSTACK, 0, STACK
        ARGFRAME IOVERLAY, 0, STATIC
        ARGFRAME DOVERLAY, 0, STATIC
        FUNCALL HalLcd_HW_Init, LCD_write_byte
        LOCFRAME ISTACK, 2, STACK
        LOCFRAME PSTACK, 0, STACK
        LOCFRAME XSTACK, 0, STACK
        LOCFRAME IOVERLAY, 0, STATIC
        LOCFRAME DOVERLAY, 0, STATIC
        ARGFRAME ISTACK, 2, STACK
        ARGFRAME PSTACK, 0, STACK
        ARGFRAME XSTACK, 0, STACK
        ARGFRAME IOVERLAY, 0, STATIC
        ARGFRAME DOVERLAY, 0, STATIC
        FUNCALL HalLcd_HW_Init, LCD_write_byte
        LOCFRAME ISTACK, 2, STACK
        LOCFRAME PSTACK, 0, STACK
        LOCFRAME XSTACK, 0, STACK
        LOCFRAME IOVERLAY, 0, STATIC
        LOCFRAME DOVERLAY, 0, STATIC
        ARGFRAME ISTACK, 2, STACK
        ARGFRAME PSTACK, 0, STACK
        ARGFRAME XSTACK, 0, STACK
        ARGFRAME IOVERLAY, 0, STATIC
        ARGFRAME DOVERLAY, 0, STATIC
        FUNCALL HalLcd_HW_Init, LCD_write_byte
        LOCFRAME ISTACK, 2, STACK
        LOCFRAME PSTACK, 0, STACK
        LOCFRAME XSTACK, 0, STACK
        LOCFRAME IOVERLAY, 0, STATIC
        LOCFRAME DOVERLAY, 0, STATIC
        ARGFRAME ISTACK, 2, STACK
        ARGFRAME PSTACK, 0, STACK
        ARGFRAME XSTACK, 0, STACK
        ARGFRAME IOVERLAY, 0, STATIC
        ARGFRAME DOVERLAY, 0, STATIC
        FUNCALL HalLcd_HW_Init, LCD_write_byte
        LOCFRAME ISTACK, 2, STACK
        LOCFRAME PSTACK, 0, STACK
        LOCFRAME XSTACK, 0, STACK
        LOCFRAME IOVERLAY, 0, STATIC
        LOCFRAME DOVERLAY, 0, STATIC
        ARGFRAME ISTACK, 2, STACK
        ARGFRAME PSTACK, 0, STACK
        ARGFRAME XSTACK, 0, STACK
        ARGFRAME IOVERLAY, 0, STATIC
        ARGFRAME DOVERLAY, 0, STATIC
        FUNCALL HalLcd_HW_Init, LCD_write_byte
        LOCFRAME ISTACK, 2, STACK
        LOCFRAME PSTACK, 0, STACK
        LOCFRAME XSTACK, 0, STACK
        LOCFRAME IOVERLAY, 0, STATIC
        LOCFRAME DOVERLAY, 0, STATIC
        ARGFRAME ISTACK, 2, STACK
        ARGFRAME PSTACK, 0, STACK
        ARGFRAME XSTACK, 0, STACK
        ARGFRAME IOVERLAY, 0, STATIC
        ARGFRAME DOVERLAY, 0, STATIC
        FUNCALL HalLcd_HW_Init, LCD_write_byte
        LOCFRAME ISTACK, 2, STACK
        LOCFRAME PSTACK, 0, STACK
        LOCFRAME XSTACK, 0, STACK
        LOCFRAME IOVERLAY, 0, STATIC
        LOCFRAME DOVERLAY, 0, STATIC
        ARGFRAME ISTACK, 2, STACK
        ARGFRAME PSTACK, 0, STACK
        ARGFRAME XSTACK, 0, STACK
        ARGFRAME IOVERLAY, 0, STATIC
        ARGFRAME DOVERLAY, 0, STATIC
        FUNCALL HalLcd_HW_Init, LCD_write_byte
        LOCFRAME ISTACK, 2, STACK
        LOCFRAME PSTACK, 0, STACK
        LOCFRAME XSTACK, 0, STACK
        LOCFRAME IOVERLAY, 0, STATIC
        LOCFRAME DOVERLAY, 0, STATIC
        ARGFRAME ISTACK, 2, STACK
        ARGFRAME PSTACK, 0, STACK
        ARGFRAME XSTACK, 0, STACK
        ARGFRAME IOVERLAY, 0, STATIC
        ARGFRAME DOVERLAY, 0, STATIC
        FUNCALL HalLcd_HW_Init, LCD_write_byte
        LOCFRAME ISTACK, 2, STACK
        LOCFRAME PSTACK, 0, STACK
        LOCFRAME XSTACK, 0, STACK
        LOCFRAME IOVERLAY, 0, STATIC
        LOCFRAME DOVERLAY, 0, STATIC
        ARGFRAME ISTACK, 2, STACK
        ARGFRAME PSTACK, 0, STACK
        ARGFRAME XSTACK, 0, STACK
        ARGFRAME IOVERLAY, 0, STATIC
        ARGFRAME DOVERLAY, 0, STATIC
        FUNCALL HalLcd_HW_Init, LCD_write_byte
        LOCFRAME ISTACK, 2, STACK
        LOCFRAME PSTACK, 0, STACK
        LOCFRAME XSTACK, 0, STACK
        LOCFRAME IOVERLAY, 0, STATIC
        LOCFRAME DOVERLAY, 0, STATIC
        ARGFRAME ISTACK, 2, STACK
        ARGFRAME PSTACK, 0, STACK
        ARGFRAME XSTACK, 0, STACK
        ARGFRAME IOVERLAY, 0, STATIC
        ARGFRAME DOVERLAY, 0, STATIC
        FUNCALL HalLcd_HW_Init, LCD_write_byte
        LOCFRAME ISTACK, 2, STACK
        LOCFRAME PSTACK, 0, STACK
        LOCFRAME XSTACK, 0, STACK
        LOCFRAME IOVERLAY, 0, STATIC
        LOCFRAME DOVERLAY, 0, STATIC
        ARGFRAME ISTACK, 2, STACK
        ARGFRAME PSTACK, 0, STACK
        ARGFRAME XSTACK, 0, STACK
        ARGFRAME IOVERLAY, 0, STATIC
        ARGFRAME DOVERLAY, 0, STATIC
        FUNCALL HalLcd_HW_Init, LCD_write_byte
        LOCFRAME ISTACK, 2, STACK
        LOCFRAME PSTACK, 0, STACK
        LOCFRAME XSTACK, 0, STACK
        LOCFRAME IOVERLAY, 0, STATIC
        LOCFRAME DOVERLAY, 0, STATIC
        ARGFRAME ISTACK, 2, STACK
        ARGFRAME PSTACK, 0, STACK
        ARGFRAME XSTACK, 0, STACK
        ARGFRAME IOVERLAY, 0, STATIC
        ARGFRAME DOVERLAY, 0, STATIC
        FUNCALL HalLcd_HW_Init, LCD_write_byte
        LOCFRAME ISTACK, 2, STACK
        LOCFRAME PSTACK, 0, STACK
        LOCFRAME XSTACK, 0, STACK
        LOCFRAME IOVERLAY, 0, STATIC
        LOCFRAME DOVERLAY, 0, STATIC
        ARGFRAME ISTACK, 2, STACK
        ARGFRAME PSTACK, 0, STACK
        ARGFRAME XSTACK, 0, STACK
        ARGFRAME IOVERLAY, 0, STATIC
        ARGFRAME DOVERLAY, 0, STATIC
        FUNCALL HalLcd_HW_Init, LCD_write_byte
        LOCFRAME ISTACK, 2, STACK
        LOCFRAME PSTACK, 0, STACK
        LOCFRAME XSTACK, 0, STACK
        LOCFRAME IOVERLAY, 0, STATIC
        LOCFRAME DOVERLAY, 0, STATIC
        ARGFRAME ISTACK, 2, STACK
        ARGFRAME PSTACK, 0, STACK
        ARGFRAME XSTACK, 0, STACK
        ARGFRAME IOVERLAY, 0, STATIC
        ARGFRAME DOVERLAY, 0, STATIC
        FUNCALL HalLcd_HW_Init, LCD_write_byte
        LOCFRAME ISTACK, 2, STACK
        LOCFRAME PSTACK, 0, STACK
        LOCFRAME XSTACK, 0, STACK
        LOCFRAME IOVERLAY, 0, STATIC
        LOCFRAME DOVERLAY, 0, STATIC
        ARGFRAME ISTACK, 2, STACK
        ARGFRAME PSTACK, 0, STACK
        ARGFRAME XSTACK, 0, STACK
        ARGFRAME IOVERLAY, 0, STATIC
        ARGFRAME DOVERLAY, 0, STATIC
        FUNCALL HalLcd_HW_Init, LCD_write_byte
        LOCFRAME ISTACK, 2, STACK
        LOCFRAME PSTACK, 0, STACK
        LOCFRAME XSTACK, 0, STACK
        LOCFRAME IOVERLAY, 0, STATIC
        LOCFRAME DOVERLAY, 0, STATIC
        ARGFRAME ISTACK, 2, STACK
        ARGFRAME PSTACK, 0, STACK
        ARGFRAME XSTACK, 0, STACK
        ARGFRAME IOVERLAY, 0, STATIC
        ARGFRAME DOVERLAY, 0, STATIC
        FUNCALL HalLcd_HW_Init, LCD_write_byte
        LOCFRAME ISTACK, 2, STACK
        LOCFRAME PSTACK, 0, STACK
        LOCFRAME XSTACK, 0, STACK
        LOCFRAME IOVERLAY, 0, STATIC
        LOCFRAME DOVERLAY, 0, STATIC
        ARGFRAME ISTACK, 2, STACK
        ARGFRAME PSTACK, 0, STACK
        ARGFRAME XSTACK, 0, STACK
        ARGFRAME IOVERLAY, 0, STATIC
        ARGFRAME DOVERLAY, 0, STATIC
        FUNCALL HalLcd_HW_Init, LCD_write_byte
        LOCFRAME ISTACK, 2, STACK
        LOCFRAME PSTACK, 0, STACK
        LOCFRAME XSTACK, 0, STACK
        LOCFRAME IOVERLAY, 0, STATIC
        LOCFRAME DOVERLAY, 0, STATIC
        ARGFRAME ISTACK, 2, STACK
        ARGFRAME PSTACK, 0, STACK
        ARGFRAME XSTACK, 0, STACK
        ARGFRAME IOVERLAY, 0, STATIC
        ARGFRAME DOVERLAY, 0, STATIC
        FUNCALL HalLcd_HW_Init, LCD_write_byte
        LOCFRAME ISTACK, 2, STACK
        LOCFRAME PSTACK, 0, STACK
        LOCFRAME XSTACK, 0, STACK
        LOCFRAME IOVERLAY, 0, STATIC
        LOCFRAME DOVERLAY, 0, STATIC
        ARGFRAME ISTACK, 2, STACK
        ARGFRAME PSTACK, 0, STACK
        ARGFRAME XSTACK, 0, STACK
        ARGFRAME IOVERLAY, 0, STATIC
        ARGFRAME DOVERLAY, 0, STATIC
        FUNCALL HalLcd_HW_Init, LCD_write_byte
        LOCFRAME ISTACK, 2, STACK
        LOCFRAME PSTACK, 0, STACK
        LOCFRAME XSTACK, 0, STACK
        LOCFRAME IOVERLAY, 0, STATIC
        LOCFRAME DOVERLAY, 0, STATIC
        ARGFRAME ISTACK, 2, STACK
        ARGFRAME PSTACK, 0, STACK
        ARGFRAME XSTACK, 0, STACK
        ARGFRAME IOVERLAY, 0, STATIC
        ARGFRAME DOVERLAY, 0, STATIC
        FUNCALL HalLcd_HW_Init, LCD_write_byte
        LOCFRAME ISTACK, 2, STACK
        LOCFRAME PSTACK, 0, STACK
        LOCFRAME XSTACK, 0, STACK
        LOCFRAME IOVERLAY, 0, STATIC
        LOCFRAME DOVERLAY, 0, STATIC
        ARGFRAME ISTACK, 2, STACK
        ARGFRAME PSTACK, 0, STACK
        ARGFRAME XSTACK, 0, STACK
        ARGFRAME IOVERLAY, 0, STATIC
        ARGFRAME DOVERLAY, 0, STATIC
        FUNCALL HalLcd_HW_Init, LCD_write_byte
        LOCFRAME ISTACK, 2, STACK
        LOCFRAME PSTACK, 0, STACK
        LOCFRAME XSTACK, 0, STACK
        LOCFRAME IOVERLAY, 0, STATIC
        LOCFRAME DOVERLAY, 0, STATIC
        ARGFRAME ISTACK, 2, STACK
        ARGFRAME PSTACK, 0, STACK
        ARGFRAME XSTACK, 0, STACK
        ARGFRAME IOVERLAY, 0, STATIC
        ARGFRAME DOVERLAY, 0, STATIC
        FUNCALL HalLcd_HW_Init, LCD_write_byte
        LOCFRAME ISTACK, 2, STACK
        LOCFRAME PSTACK, 0, STACK
        LOCFRAME XSTACK, 0, STACK
        LOCFRAME IOVERLAY, 0, STATIC
        LOCFRAME DOVERLAY, 0, STATIC
        ARGFRAME ISTACK, 2, STACK
        ARGFRAME PSTACK, 0, STACK
        ARGFRAME XSTACK, 0, STACK
        ARGFRAME IOVERLAY, 0, STATIC
        ARGFRAME DOVERLAY, 0, STATIC
        FUNCALL HalLcd_HW_Init, LCD_write_byte
        LOCFRAME ISTACK, 2, STACK
        LOCFRAME PSTACK, 0, STACK
        LOCFRAME XSTACK, 0, STACK
        LOCFRAME IOVERLAY, 0, STATIC
        LOCFRAME DOVERLAY, 0, STATIC
        ARGFRAME ISTACK, 2, STACK
        ARGFRAME PSTACK, 0, STACK
        ARGFRAME XSTACK, 0, STACK
        ARGFRAME IOVERLAY, 0, STATIC
        ARGFRAME DOVERLAY, 0, STATIC
        FUNCALL HalLcd_HW_Init, LCD_write_byte
        LOCFRAME ISTACK, 2, STACK
        LOCFRAME PSTACK, 0, STACK
        LOCFRAME XSTACK, 0, STACK
        LOCFRAME IOVERLAY, 0, STATIC
        LOCFRAME DOVERLAY, 0, STATIC
        ARGFRAME ISTACK, 2, STACK
        ARGFRAME PSTACK, 0, STACK
        ARGFRAME XSTACK, 0, STACK
        ARGFRAME IOVERLAY, 0, STATIC
        ARGFRAME DOVERLAY, 0, STATIC
        FUNCALL HalLcd_HW_Init, LCD_write_byte
        LOCFRAME ISTACK, 2, STACK
        LOCFRAME PSTACK, 0, STACK
        LOCFRAME XSTACK, 0, STACK
        LOCFRAME IOVERLAY, 0, STATIC
        LOCFRAME DOVERLAY, 0, STATIC
        ARGFRAME ISTACK, 2, STACK
        ARGFRAME PSTACK, 0, STACK
        ARGFRAME XSTACK, 0, STACK
        ARGFRAME IOVERLAY, 0, STATIC
        ARGFRAME DOVERLAY, 0, STATIC
        FUNCALL HalLcd_HW_Init, LCD_write_byte
        LOCFRAME ISTACK, 2, STACK
        LOCFRAME PSTACK, 0, STACK
        LOCFRAME XSTACK, 0, STACK
        LOCFRAME IOVERLAY, 0, STATIC
        LOCFRAME DOVERLAY, 0, STATIC
        ARGFRAME ISTACK, 2, STACK
        ARGFRAME PSTACK, 0, STACK
        ARGFRAME XSTACK, 0, STACK
        ARGFRAME IOVERLAY, 0, STATIC
        ARGFRAME DOVERLAY, 0, STATIC
        FUNCALL HalLcd_HW_Init, LCD_write_byte
        LOCFRAME ISTACK, 2, STACK
        LOCFRAME PSTACK, 0, STACK
        LOCFRAME XSTACK, 0, STACK
        LOCFRAME IOVERLAY, 0, STATIC
        LOCFRAME DOVERLAY, 0, STATIC
        ARGFRAME ISTACK, 2, STACK
        ARGFRAME PSTACK, 0, STACK
        ARGFRAME XSTACK, 0, STACK
        ARGFRAME IOVERLAY, 0, STATIC
        ARGFRAME DOVERLAY, 0, STATIC
        FUNCALL HalLcd_HW_Init, LCD_write_byte
        LOCFRAME ISTACK, 2, STACK
        LOCFRAME PSTACK, 0, STACK
        LOCFRAME XSTACK, 0, STACK
        LOCFRAME IOVERLAY, 0, STATIC
        LOCFRAME DOVERLAY, 0, STATIC
        ARGFRAME ISTACK, 2, STACK
        ARGFRAME PSTACK, 0, STACK
        ARGFRAME XSTACK, 0, STACK
        ARGFRAME IOVERLAY, 0, STATIC
        ARGFRAME DOVERLAY, 0, STATIC
        FUNCALL HalLcd_HW_Init, LCD_write_byte
        LOCFRAME ISTACK, 2, STACK
        LOCFRAME PSTACK, 0, STACK
        LOCFRAME XSTACK, 0, STACK
        LOCFRAME IOVERLAY, 0, STATIC
        LOCFRAME DOVERLAY, 0, STATIC
        ARGFRAME ISTACK, 2, STACK
        ARGFRAME PSTACK, 0, STACK
        ARGFRAME XSTACK, 0, STACK
        ARGFRAME IOVERLAY, 0, STATIC
        ARGFRAME DOVERLAY, 0, STATIC
        FUNCALL HalLcd_HW_Init, LCD_write_byte
        LOCFRAME ISTACK, 2, STACK
        LOCFRAME PSTACK, 0, STACK
        LOCFRAME XSTACK, 0, STACK
        LOCFRAME IOVERLAY, 0, STATIC
        LOCFRAME DOVERLAY, 0, STATIC
        ARGFRAME ISTACK, 2, STACK
        ARGFRAME PSTACK, 0, STACK
        ARGFRAME XSTACK, 0, STACK
        ARGFRAME IOVERLAY, 0, STATIC
        ARGFRAME DOVERLAY, 0, STATIC
        FUNCALL HalLcd_HW_Init, LCD_write_byte
        LOCFRAME ISTACK, 2, STACK
        LOCFRAME PSTACK, 0, STACK
        LOCFRAME XSTACK, 0, STACK
        LOCFRAME IOVERLAY, 0, STATIC
        LOCFRAME DOVERLAY, 0, STATIC
        ARGFRAME ISTACK, 2, STACK
        ARGFRAME PSTACK, 0, STACK
        ARGFRAME XSTACK, 0, STACK
        ARGFRAME IOVERLAY, 0, STATIC
        ARGFRAME DOVERLAY, 0, STATIC
        FUNCALL HalLcd_HW_Init, LCD_write_byte
        LOCFRAME ISTACK, 2, STACK
        LOCFRAME PSTACK, 0, STACK
        LOCFRAME XSTACK, 0, STACK
        LOCFRAME IOVERLAY, 0, STATIC
        LOCFRAME DOVERLAY, 0, STATIC
        ARGFRAME ISTACK, 2, STACK
        ARGFRAME PSTACK, 0, STACK
        ARGFRAME XSTACK, 0, STACK
        ARGFRAME IOVERLAY, 0, STATIC
        ARGFRAME DOVERLAY, 0, STATIC
        FUNCALL HalLcd_HW_Init, LCD_write_byte
        LOCFRAME ISTACK, 2, STACK
        LOCFRAME PSTACK, 0, STACK
        LOCFRAME XSTACK, 0, STACK
        LOCFRAME IOVERLAY, 0, STATIC
        LOCFRAME DOVERLAY, 0, STATIC
        ARGFRAME ISTACK, 2, STACK
        ARGFRAME PSTACK, 0, STACK
        ARGFRAME XSTACK, 0, STACK
        ARGFRAME IOVERLAY, 0, STATIC
        ARGFRAME DOVERLAY, 0, STATIC
        FUNCALL HalLcd_HW_Init, LCD_write_byte
        LOCFRAME ISTACK, 2, STACK
        LOCFRAME PSTACK, 0, STACK
        LOCFRAME XSTACK, 0, STACK
        LOCFRAME IOVERLAY, 0, STATIC
        LOCFRAME DOVERLAY, 0, STATIC
        ARGFRAME ISTACK, 2, STACK
        ARGFRAME PSTACK, 0, STACK
        ARGFRAME XSTACK, 0, STACK
        ARGFRAME IOVERLAY, 0, STATIC
        ARGFRAME DOVERLAY, 0, STATIC
        FUNCALL HalLcd_HW_Init, LCD_write_byte
        LOCFRAME ISTACK, 2, STACK
        LOCFRAME PSTACK, 0, STACK
        LOCFRAME XSTACK, 0, STACK
        LOCFRAME IOVERLAY, 0, STATIC
        LOCFRAME DOVERLAY, 0, STATIC
        ARGFRAME ISTACK, 2, STACK
        ARGFRAME PSTACK, 0, STACK
        ARGFRAME XSTACK, 0, STACK
        ARGFRAME IOVERLAY, 0, STATIC
        ARGFRAME DOVERLAY, 0, STATIC
        FUNCALL HalLcd_HW_Init, LCD_write_byte
        LOCFRAME ISTACK, 2, STACK
        LOCFRAME PSTACK, 0, STACK
        LOCFRAME XSTACK, 0, STACK
        LOCFRAME IOVERLAY, 0, STATIC
        LOCFRAME DOVERLAY, 0, STATIC
        ARGFRAME ISTACK, 2, STACK
        ARGFRAME PSTACK, 0, STACK
        ARGFRAME XSTACK, 0, STACK
        ARGFRAME IOVERLAY, 0, STATIC
        ARGFRAME DOVERLAY, 0, STATIC
        FUNCALL HalLcd_HW_Init, LCD_write_byte
        LOCFRAME ISTACK, 2, STACK
        LOCFRAME PSTACK, 0, STACK
        LOCFRAME XSTACK, 0, STACK
        LOCFRAME IOVERLAY, 0, STATIC
        LOCFRAME DOVERLAY, 0, STATIC
        ARGFRAME ISTACK, 2, STACK
        ARGFRAME PSTACK, 0, STACK
        ARGFRAME XSTACK, 0, STACK
        ARGFRAME IOVERLAY, 0, STATIC
        ARGFRAME DOVERLAY, 0, STATIC
        FUNCALL HalLcd_HW_Init, LCD_write_byte
        LOCFRAME ISTACK, 2, STACK
        LOCFRAME PSTACK, 0, STACK
        LOCFRAME XSTACK, 0, STACK
        LOCFRAME IOVERLAY, 0, STATIC
        LOCFRAME DOVERLAY, 0, STATIC
        ARGFRAME ISTACK, 2, STACK
        ARGFRAME PSTACK, 0, STACK
        ARGFRAME XSTACK, 0, STACK
        ARGFRAME IOVERLAY, 0, STATIC
        ARGFRAME DOVERLAY, 0, STATIC
        FUNCALL HalLcd_HW_Init, LCD_write_byte
        LOCFRAME ISTACK, 2, STACK
        LOCFRAME PSTACK, 0, STACK
        LOCFRAME XSTACK, 0, STACK
        LOCFRAME IOVERLAY, 0, STATIC
        LOCFRAME DOVERLAY, 0, STATIC
        ARGFRAME ISTACK, 2, STACK
        ARGFRAME PSTACK, 0, STACK
        ARGFRAME XSTACK, 0, STACK
        ARGFRAME IOVERLAY, 0, STATIC
        ARGFRAME DOVERLAY, 0, STATIC
        FUNCALL HalLcd_HW_Init, LCD_write_byte
        LOCFRAME ISTACK, 2, STACK
        LOCFRAME PSTACK, 0, STACK
        LOCFRAME XSTACK, 0, STACK
        LOCFRAME IOVERLAY, 0, STATIC
        LOCFRAME DOVERLAY, 0, STATIC
        ARGFRAME ISTACK, 2, STACK
        ARGFRAME PSTACK, 0, STACK
        ARGFRAME XSTACK, 0, STACK
        ARGFRAME IOVERLAY, 0, STATIC
        ARGFRAME DOVERLAY, 0, STATIC
        FUNCALL HalLcd_HW_Init, LCD_write_byte
        LOCFRAME ISTACK, 2, STACK
        LOCFRAME PSTACK, 0, STACK
        LOCFRAME XSTACK, 0, STACK
        LOCFRAME IOVERLAY, 0, STATIC
        LOCFRAME DOVERLAY, 0, STATIC
        ARGFRAME ISTACK, 2, STACK
        ARGFRAME PSTACK, 0, STACK
        ARGFRAME XSTACK, 0, STACK
        ARGFRAME IOVERLAY, 0, STATIC
        ARGFRAME DOVERLAY, 0, STATIC
        FUNCALL HalLcd_HW_Init, LCD_write_byte
        LOCFRAME ISTACK, 2, STACK
        LOCFRAME PSTACK, 0, STACK
        LOCFRAME XSTACK, 0, STACK
        LOCFRAME IOVERLAY, 0, STATIC
        LOCFRAME DOVERLAY, 0, STATIC
        ARGFRAME ISTACK, 2, STACK
        ARGFRAME PSTACK, 0, STACK
        ARGFRAME XSTACK, 0, STACK
        ARGFRAME IOVERLAY, 0, STATIC
        ARGFRAME DOVERLAY, 0, STATIC
        FUNCALL HalLcd_HW_Init, LCD_write_byte
        LOCFRAME ISTACK, 2, STACK
        LOCFRAME PSTACK, 0, STACK
        LOCFRAME XSTACK, 0, STACK
        LOCFRAME IOVERLAY, 0, STATIC
        LOCFRAME DOVERLAY, 0, STATIC
        ARGFRAME ISTACK, 2, STACK
        ARGFRAME PSTACK, 0, STACK
        ARGFRAME XSTACK, 0, STACK
        ARGFRAME IOVERLAY, 0, STATIC
        ARGFRAME DOVERLAY, 0, STATIC
        FUNCALL HalLcd_HW_Init, LCD_write_byte
        LOCFRAME ISTACK, 2, STACK
        LOCFRAME PSTACK, 0, STACK
        LOCFRAME XSTACK, 0, STACK
        LOCFRAME IOVERLAY, 0, STATIC
        LOCFRAME DOVERLAY, 0, STATIC
        ARGFRAME ISTACK, 2, STACK
        ARGFRAME PSTACK, 0, STACK
        ARGFRAME XSTACK, 0, STACK
        ARGFRAME IOVERLAY, 0, STATIC
        ARGFRAME DOVERLAY, 0, STATIC
        FUNCALL HalLcd_HW_Init, LCD_write_byte
        LOCFRAME ISTACK, 2, STACK
        LOCFRAME PSTACK, 0, STACK
        LOCFRAME XSTACK, 0, STACK
        LOCFRAME IOVERLAY, 0, STATIC
        LOCFRAME DOVERLAY, 0, STATIC
        ARGFRAME ISTACK, 2, STACK
        ARGFRAME PSTACK, 0, STACK
        ARGFRAME XSTACK, 0, STACK
        ARGFRAME IOVERLAY, 0, STATIC
        ARGFRAME DOVERLAY, 0, STATIC
        FUNCALL HalLcd_HW_Init, LCD_write_byte
        LOCFRAME ISTACK, 2, STACK
        LOCFRAME PSTACK, 0, STACK
        LOCFRAME XSTACK, 0, STACK
        LOCFRAME IOVERLAY, 0, STATIC
        LOCFRAME DOVERLAY, 0, STATIC
        ARGFRAME ISTACK, 2, STACK
        ARGFRAME PSTACK, 0, STACK
        ARGFRAME XSTACK, 0, STACK
        ARGFRAME IOVERLAY, 0, STATIC
        ARGFRAME DOVERLAY, 0, STATIC
        FUNCALL HalLcd_HW_Init, LCD_write_byte
        LOCFRAME ISTACK, 2, STACK
        LOCFRAME PSTACK, 0, STACK
        LOCFRAME XSTACK, 0, STACK
        LOCFRAME IOVERLAY, 0, STATIC
        LOCFRAME DOVERLAY, 0, STATIC
        ARGFRAME ISTACK, 2, STACK
        ARGFRAME PSTACK, 0, STACK
        ARGFRAME XSTACK, 0, STACK
        ARGFRAME IOVERLAY, 0, STATIC
        ARGFRAME DOVERLAY, 0, STATIC
        FUNCALL HalLcd_HW_Init, LCD_write_byte
        LOCFRAME ISTACK, 2, STACK
        LOCFRAME PSTACK, 0, STACK
        LOCFRAME XSTACK, 0, STACK
        LOCFRAME IOVERLAY, 0, STATIC
        LOCFRAME DOVERLAY, 0, STATIC
        ARGFRAME ISTACK, 2, STACK
        ARGFRAME PSTACK, 0, STACK
        ARGFRAME XSTACK, 0, STACK
        ARGFRAME IOVERLAY, 0, STATIC
        ARGFRAME DOVERLAY, 0, STATIC
        FUNCALL HalLcd_HW_Init, LCD_write_byte
        LOCFRAME ISTACK, 2, STACK
        LOCFRAME PSTACK, 0, STACK
        LOCFRAME XSTACK, 0, STACK
        LOCFRAME IOVERLAY, 0, STATIC
        LOCFRAME DOVERLAY, 0, STATIC
        ARGFRAME ISTACK, 2, STACK
        ARGFRAME PSTACK, 0, STACK
        ARGFRAME XSTACK, 0, STACK
        ARGFRAME IOVERLAY, 0, STATIC
        ARGFRAME DOVERLAY, 0, STATIC
        FUNCALL HalLcd_HW_Init, LCD_write_byte
        LOCFRAME ISTACK, 2, STACK
        LOCFRAME PSTACK, 0, STACK
        LOCFRAME XSTACK, 0, STACK
        LOCFRAME IOVERLAY, 0, STATIC
        LOCFRAME DOVERLAY, 0, STATIC
        ARGFRAME ISTACK, 2, STACK
        ARGFRAME PSTACK, 0, STACK
        ARGFRAME XSTACK, 0, STACK
        ARGFRAME IOVERLAY, 0, STATIC
        ARGFRAME DOVERLAY, 0, STATIC
        FUNCALL HalLcd_HW_Init, LCD_write_byte
        LOCFRAME ISTACK, 2, STACK
        LOCFRAME PSTACK, 0, STACK
        LOCFRAME XSTACK, 0, STACK
        LOCFRAME IOVERLAY, 0, STATIC
        LOCFRAME DOVERLAY, 0, STATIC
        ARGFRAME ISTACK, 2, STACK
        ARGFRAME PSTACK, 0, STACK
        ARGFRAME XSTACK, 0, STACK
        ARGFRAME IOVERLAY, 0, STATIC
        ARGFRAME DOVERLAY, 0, STATIC
        FUNCALL HalLcd_HW_Init, LCD_write_byte
        LOCFRAME ISTACK, 2, STACK
        LOCFRAME PSTACK, 0, STACK
        LOCFRAME XSTACK, 0, STACK
        LOCFRAME IOVERLAY, 0, STATIC
        LOCFRAME DOVERLAY, 0, STATIC
        ARGFRAME ISTACK, 2, STACK
        ARGFRAME PSTACK, 0, STACK
        ARGFRAME XSTACK, 0, STACK
        ARGFRAME IOVERLAY, 0, STATIC
        ARGFRAME DOVERLAY, 0, STATIC
        FUNCALL HalLcd_HW_Init, LCD_write_byte
        LOCFRAME ISTACK, 2, STACK
        LOCFRAME PSTACK, 0, STACK
        LOCFRAME XSTACK, 0, STACK
        LOCFRAME IOVERLAY, 0, STATIC
        LOCFRAME DOVERLAY, 0, STATIC
        ARGFRAME ISTACK, 2, STACK
        ARGFRAME PSTACK, 0, STACK
        ARGFRAME XSTACK, 0, STACK
        ARGFRAME IOVERLAY, 0, STATIC
        ARGFRAME DOVERLAY, 0, STATIC
        FUNCALL HalLcd_HW_Init, LCD_write_byte
        LOCFRAME ISTACK, 2, STACK
        LOCFRAME PSTACK, 0, STACK
        LOCFRAME XSTACK, 0, STACK
        LOCFRAME IOVERLAY, 0, STATIC
        LOCFRAME DOVERLAY, 0, STATIC
        ARGFRAME ISTACK, 2, STACK
        ARGFRAME PSTACK, 0, STACK
        ARGFRAME XSTACK, 0, STACK
        ARGFRAME IOVERLAY, 0, STATIC
        ARGFRAME DOVERLAY, 0, STATIC
        FUNCALL HalLcd_HW_Init, LCD_clear
        LOCFRAME ISTACK, 2, STACK
        LOCFRAME PSTACK, 0, STACK
        LOCFRAME XSTACK, 0, STACK
        LOCFRAME IOVERLAY, 0, STATIC
        LOCFRAME DOVERLAY, 0, STATIC
        ARGFRAME ISTACK, 2, STACK
        ARGFRAME PSTACK, 0, STACK
        ARGFRAME XSTACK, 0, STACK
        ARGFRAME IOVERLAY, 0, STATIC
        ARGFRAME DOVERLAY, 0, STATIC
        PUSH      DPL
          CFI DPL0 Frame(CFA_SP, 4)
          CFI CFA_SP SP+-4
        PUSH      DPH
          CFI DPH0 Frame(CFA_SP, 5)
          CFI CFA_SP SP+-5
        ; Saved register size: 2
        ; Auto size: 0
// 1066   P0SEL &= 0xFE; //设置P00为普通IO口，
        ANL       0xf3,#0xfe
// 1067   P0DIR |= 0x01; //设置P00为输出
        ORL       0xfd,#0x1
// 1068   P1SEL &= 0x73; //设置P12，P13,P17为普通IO口
        ANL       0xf4,#0x73
// 1069   P1DIR |= 0x8c; //设置P12，P13,P17为输出 
        ORL       0xfe,#0x8c
// 1070 
// 1071   Lcd_Reset();
        ; Setup parameters for call to function Lcd_Reset
        LCALL     `??Lcd_Reset::?relay`; Banked call to: Lcd_Reset
// 1072   
// 1073 #ifdef HARDWARE_SPI                                         
// 1074   P1DIR &= 0x9F;
// 1075   SPI_Init();   //初始化SPI端口  
// 1076 #endif
// 1077  
// 1078   LCD_write_byte(0x11,LCD_COMMAND); //退出睡眠模式
        ; Setup parameters for call to function LCD_write_byte
        MOV       R2,#0x0
        MOV       R1,#0x11
        LCALL     `??LCD_write_byte::?relay`; Banked call to: LCD_write_byte
// 1079   DelayMS(1); 
        ; Setup parameters for call to function DelayMS
        MOV       R2,#0x1
        MOV       R3,#0x0
        LCALL     `??DelayMS::?relay`; Banked call to: DelayMS
// 1080 
// 1081   ///ST7735R Frame Rate
// 1082   LCD_write_byte(0xB1,LCD_COMMAND); 
        ; Setup parameters for call to function LCD_write_byte
        MOV       R2,#0x0
        MOV       R1,#-0x4f
        LCALL     `??LCD_write_byte::?relay`; Banked call to: LCD_write_byte
// 1083   LCD_write_byte(0x01,LCD_DATA); 
        ; Setup parameters for call to function LCD_write_byte
        MOV       R2,#0x1
        MOV       R1,#0x1
        LCALL     `??LCD_write_byte::?relay`; Banked call to: LCD_write_byte
// 1084   LCD_write_byte(0x2C,LCD_DATA); 
        ; Setup parameters for call to function LCD_write_byte
        MOV       R2,#0x1
        MOV       R1,#0x2c
        LCALL     `??LCD_write_byte::?relay`; Banked call to: LCD_write_byte
// 1085   LCD_write_byte(0x2D,LCD_DATA); 
        ; Setup parameters for call to function LCD_write_byte
        MOV       R2,#0x1
        MOV       R1,#0x2d
        LCALL     `??LCD_write_byte::?relay`; Banked call to: LCD_write_byte
// 1086   LCD_write_byte(0xB2,LCD_COMMAND); 
        ; Setup parameters for call to function LCD_write_byte
        MOV       R2,#0x0
        MOV       R1,#-0x4e
        LCALL     `??LCD_write_byte::?relay`; Banked call to: LCD_write_byte
// 1087   LCD_write_byte(0x01,LCD_DATA); 
        ; Setup parameters for call to function LCD_write_byte
        MOV       R2,#0x1
        MOV       R1,#0x1
        LCALL     `??LCD_write_byte::?relay`; Banked call to: LCD_write_byte
// 1088   LCD_write_byte(0x2C,LCD_DATA); 
        ; Setup parameters for call to function LCD_write_byte
        MOV       R2,#0x1
        MOV       R1,#0x2c
        LCALL     `??LCD_write_byte::?relay`; Banked call to: LCD_write_byte
// 1089   LCD_write_byte(0x2D,LCD_DATA); 
        ; Setup parameters for call to function LCD_write_byte
        MOV       R2,#0x1
        MOV       R1,#0x2d
        LCALL     `??LCD_write_byte::?relay`; Banked call to: LCD_write_byte
// 1090   LCD_write_byte(0xB3,LCD_COMMAND); 
        ; Setup parameters for call to function LCD_write_byte
        MOV       R2,#0x0
        MOV       R1,#-0x4d
        LCALL     `??LCD_write_byte::?relay`; Banked call to: LCD_write_byte
// 1091   LCD_write_byte(0x01,LCD_DATA); 
        ; Setup parameters for call to function LCD_write_byte
        MOV       R2,#0x1
        MOV       R1,#0x1
        LCALL     `??LCD_write_byte::?relay`; Banked call to: LCD_write_byte
// 1092   LCD_write_byte(0x2C,LCD_DATA); 
        ; Setup parameters for call to function LCD_write_byte
        MOV       R2,#0x1
        MOV       R1,#0x2c
        LCALL     `??LCD_write_byte::?relay`; Banked call to: LCD_write_byte
// 1093   LCD_write_byte(0x2D,LCD_DATA); 
        ; Setup parameters for call to function LCD_write_byte
        MOV       R2,#0x1
        MOV       R1,#0x2d
        LCALL     `??LCD_write_byte::?relay`; Banked call to: LCD_write_byte
// 1094   LCD_write_byte(0x01,LCD_DATA); 
        ; Setup parameters for call to function LCD_write_byte
        MOV       R2,#0x1
        MOV       R1,#0x1
        LCALL     `??LCD_write_byte::?relay`; Banked call to: LCD_write_byte
// 1095   LCD_write_byte(0x2C,LCD_DATA); 
        ; Setup parameters for call to function LCD_write_byte
        MOV       R2,#0x1
        MOV       R1,#0x2c
        LCALL     `??LCD_write_byte::?relay`; Banked call to: LCD_write_byte
// 1096   LCD_write_byte(0x2D,LCD_DATA); 
        ; Setup parameters for call to function LCD_write_byte
        MOV       R2,#0x1
        MOV       R1,#0x2d
        LCALL     `??LCD_write_byte::?relay`; Banked call to: LCD_write_byte
// 1097 
// 1098   LCD_write_byte(0xB4,LCD_COMMAND);//列对调
        ; Setup parameters for call to function LCD_write_byte
        MOV       R2,#0x0
        MOV       R1,#-0x4c
        LCALL     `??LCD_write_byte::?relay`; Banked call to: LCD_write_byte
// 1099   LCD_write_byte(0x07,LCD_DATA); 
        ; Setup parameters for call to function LCD_write_byte
        MOV       R2,#0x1
        MOV       R1,#0x7
        LCALL     `??LCD_write_byte::?relay`; Banked call to: LCD_write_byte
// 1100   //ST7735R加电序列
// 1101   LCD_write_byte(0xC0,LCD_COMMAND); 
        ; Setup parameters for call to function LCD_write_byte
        MOV       R2,#0x0
        MOV       R1,#-0x40
        LCALL     `??LCD_write_byte::?relay`; Banked call to: LCD_write_byte
// 1102   LCD_write_byte(0xA2,LCD_DATA); 
        ; Setup parameters for call to function LCD_write_byte
        MOV       R2,#0x1
        MOV       R1,#-0x5e
        LCALL     `??LCD_write_byte::?relay`; Banked call to: LCD_write_byte
// 1103   LCD_write_byte(0x02,LCD_DATA); 
        ; Setup parameters for call to function LCD_write_byte
        MOV       R2,#0x1
        MOV       R1,#0x2
        LCALL     `??LCD_write_byte::?relay`; Banked call to: LCD_write_byte
// 1104   LCD_write_byte(0x84,LCD_DATA); 
        ; Setup parameters for call to function LCD_write_byte
        MOV       R2,#0x1
        MOV       R1,#-0x7c
        LCALL     `??LCD_write_byte::?relay`; Banked call to: LCD_write_byte
// 1105   LCD_write_byte(0xC1,LCD_COMMAND); 
        ; Setup parameters for call to function LCD_write_byte
        MOV       R2,#0x0
        MOV       R1,#-0x3f
        LCALL     `??LCD_write_byte::?relay`; Banked call to: LCD_write_byte
// 1106   LCD_write_byte(0xC5,LCD_DATA); 
        ; Setup parameters for call to function LCD_write_byte
        MOV       R2,#0x1
        MOV       R1,#-0x3b
        LCALL     `??LCD_write_byte::?relay`; Banked call to: LCD_write_byte
// 1107   LCD_write_byte(0xC2,LCD_COMMAND); 
        ; Setup parameters for call to function LCD_write_byte
        MOV       R2,#0x0
        MOV       R1,#-0x3e
        LCALL     `??LCD_write_byte::?relay`; Banked call to: LCD_write_byte
// 1108   LCD_write_byte(0x0A,LCD_DATA); 
        ; Setup parameters for call to function LCD_write_byte
        MOV       R2,#0x1
        MOV       R1,#0xa
        LCALL     `??LCD_write_byte::?relay`; Banked call to: LCD_write_byte
// 1109   LCD_write_byte(0x00,LCD_DATA); 
        ; Setup parameters for call to function LCD_write_byte
        MOV       R2,#0x1
        MOV       R1,#0x0
        LCALL     `??LCD_write_byte::?relay`; Banked call to: LCD_write_byte
// 1110   LCD_write_byte(0xC3,LCD_COMMAND); 
        ; Setup parameters for call to function LCD_write_byte
        MOV       R2,#0x0
        MOV       R1,#-0x3d
        LCALL     `??LCD_write_byte::?relay`; Banked call to: LCD_write_byte
// 1111   LCD_write_byte(0x8A,LCD_DATA); 
        ; Setup parameters for call to function LCD_write_byte
        MOV       R2,#0x1
        MOV       R1,#-0x76
        LCALL     `??LCD_write_byte::?relay`; Banked call to: LCD_write_byte
// 1112   LCD_write_byte(0x2A,LCD_DATA); 
        ; Setup parameters for call to function LCD_write_byte
        MOV       R2,#0x1
        MOV       R1,#0x2a
        LCALL     `??LCD_write_byte::?relay`; Banked call to: LCD_write_byte
// 1113   LCD_write_byte(0xC4,LCD_COMMAND); 
        ; Setup parameters for call to function LCD_write_byte
        MOV       R2,#0x0
        MOV       R1,#-0x3c
        LCALL     `??LCD_write_byte::?relay`; Banked call to: LCD_write_byte
// 1114   LCD_write_byte(0x8A,LCD_DATA); 
        ; Setup parameters for call to function LCD_write_byte
        MOV       R2,#0x1
        MOV       R1,#-0x76
        LCALL     `??LCD_write_byte::?relay`; Banked call to: LCD_write_byte
// 1115   LCD_write_byte(0xEE,LCD_DATA); 
        ; Setup parameters for call to function LCD_write_byte
        MOV       R2,#0x1
        MOV       R1,#-0x12
        LCALL     `??LCD_write_byte::?relay`; Banked call to: LCD_write_byte
// 1116 
// 1117   LCD_write_byte(0xC5,LCD_COMMAND); //加VCOM 
        ; Setup parameters for call to function LCD_write_byte
        MOV       R2,#0x0
        MOV       R1,#-0x3b
        LCALL     `??LCD_write_byte::?relay`; Banked call to: LCD_write_byte
// 1118   LCD_write_byte(0x0E,LCD_DATA); 
        ; Setup parameters for call to function LCD_write_byte
        MOV       R2,#0x1
        MOV       R1,#0xe
        LCALL     `??LCD_write_byte::?relay`; Banked call to: LCD_write_byte
// 1119 
// 1120   LCD_write_byte(0x36,LCD_COMMAND); //RGB模式 
        ; Setup parameters for call to function LCD_write_byte
        MOV       R2,#0x0
        MOV       R1,#0x36
        LCALL     `??LCD_write_byte::?relay`; Banked call to: LCD_write_byte
// 1121   LCD_write_byte(0xC8,LCD_DATA); 
        ; Setup parameters for call to function LCD_write_byte
        MOV       R2,#0x1
        MOV       R1,#-0x38
        LCALL     `??LCD_write_byte::?relay`; Banked call to: LCD_write_byte
// 1122   
// 1123   // ST7735R Gamma 校正序列
// 1124   LCD_write_byte(0xe0,LCD_COMMAND); 
        ; Setup parameters for call to function LCD_write_byte
        MOV       R2,#0x0
        MOV       R1,#-0x20
        LCALL     `??LCD_write_byte::?relay`; Banked call to: LCD_write_byte
// 1125   LCD_write_byte(0x0f,LCD_DATA); 
        ; Setup parameters for call to function LCD_write_byte
        MOV       R2,#0x1
        MOV       R1,#0xf
        LCALL     `??LCD_write_byte::?relay`; Banked call to: LCD_write_byte
// 1126   LCD_write_byte(0x1a,LCD_DATA); 
        ; Setup parameters for call to function LCD_write_byte
        MOV       R2,#0x1
        MOV       R1,#0x1a
        LCALL     `??LCD_write_byte::?relay`; Banked call to: LCD_write_byte
// 1127   LCD_write_byte(0x0f,LCD_DATA); 
        ; Setup parameters for call to function LCD_write_byte
        MOV       R2,#0x1
        MOV       R1,#0xf
        LCALL     `??LCD_write_byte::?relay`; Banked call to: LCD_write_byte
// 1128   LCD_write_byte(0x18,LCD_DATA); 
        ; Setup parameters for call to function LCD_write_byte
        MOV       R2,#0x1
        MOV       R1,#0x18
        LCALL     `??LCD_write_byte::?relay`; Banked call to: LCD_write_byte
// 1129   LCD_write_byte(0x2f,LCD_DATA); 
        ; Setup parameters for call to function LCD_write_byte
        MOV       R2,#0x1
        MOV       R1,#0x2f
        LCALL     `??LCD_write_byte::?relay`; Banked call to: LCD_write_byte
// 1130   LCD_write_byte(0x28,LCD_DATA); 
        ; Setup parameters for call to function LCD_write_byte
        MOV       R2,#0x1
        MOV       R1,#0x28
        LCALL     `??LCD_write_byte::?relay`; Banked call to: LCD_write_byte
// 1131   LCD_write_byte(0x20,LCD_DATA); 
        ; Setup parameters for call to function LCD_write_byte
        MOV       R2,#0x1
        MOV       R1,#0x20
        LCALL     `??LCD_write_byte::?relay`; Banked call to: LCD_write_byte
// 1132   LCD_write_byte(0x22,LCD_DATA); 
        ; Setup parameters for call to function LCD_write_byte
        MOV       R2,#0x1
        MOV       R1,#0x22
        LCALL     `??LCD_write_byte::?relay`; Banked call to: LCD_write_byte
// 1133   LCD_write_byte(0x1f,LCD_DATA); 
        ; Setup parameters for call to function LCD_write_byte
        MOV       R2,#0x1
        MOV       R1,#0x1f
        LCALL     `??LCD_write_byte::?relay`; Banked call to: LCD_write_byte
// 1134   LCD_write_byte(0x1b,LCD_DATA); 
        ; Setup parameters for call to function LCD_write_byte
        MOV       R2,#0x1
        MOV       R1,#0x1b
        LCALL     `??LCD_write_byte::?relay`; Banked call to: LCD_write_byte
// 1135   LCD_write_byte(0x23,LCD_DATA); 
        ; Setup parameters for call to function LCD_write_byte
        MOV       R2,#0x1
        MOV       R1,#0x23
        LCALL     `??LCD_write_byte::?relay`; Banked call to: LCD_write_byte
// 1136   LCD_write_byte(0x37,LCD_DATA); 
        ; Setup parameters for call to function LCD_write_byte
        MOV       R2,#0x1
        MOV       R1,#0x37
        LCALL     `??LCD_write_byte::?relay`; Banked call to: LCD_write_byte
// 1137   LCD_write_byte(0x00,LCD_DATA); 
        ; Setup parameters for call to function LCD_write_byte
        MOV       R2,#0x1
        MOV       R1,#0x0
        LCALL     `??LCD_write_byte::?relay`; Banked call to: LCD_write_byte
// 1138 
// 1139   LCD_write_byte(0x07,LCD_DATA); 
        ; Setup parameters for call to function LCD_write_byte
        MOV       R2,#0x1
        MOV       R1,#0x7
        LCALL     `??LCD_write_byte::?relay`; Banked call to: LCD_write_byte
// 1140   LCD_write_byte(0x02,LCD_DATA); 
        ; Setup parameters for call to function LCD_write_byte
        MOV       R2,#0x1
        MOV       R1,#0x2
        LCALL     `??LCD_write_byte::?relay`; Banked call to: LCD_write_byte
// 1141   LCD_write_byte(0x10,LCD_DATA); 
        ; Setup parameters for call to function LCD_write_byte
        MOV       R2,#0x1
        MOV       R1,#0x10
        LCALL     `??LCD_write_byte::?relay`; Banked call to: LCD_write_byte
// 1142   LCD_write_byte(0xe1,LCD_COMMAND); 
        ; Setup parameters for call to function LCD_write_byte
        MOV       R2,#0x0
        MOV       R1,#-0x1f
        LCALL     `??LCD_write_byte::?relay`; Banked call to: LCD_write_byte
// 1143   LCD_write_byte(0x0f,LCD_DATA); 
        ; Setup parameters for call to function LCD_write_byte
        MOV       R2,#0x1
        MOV       R1,#0xf
        LCALL     `??LCD_write_byte::?relay`; Banked call to: LCD_write_byte
// 1144   LCD_write_byte(0x1b,LCD_DATA); 
        ; Setup parameters for call to function LCD_write_byte
        MOV       R2,#0x1
        MOV       R1,#0x1b
        LCALL     `??LCD_write_byte::?relay`; Banked call to: LCD_write_byte
// 1145   LCD_write_byte(0x0f,LCD_DATA); 
        ; Setup parameters for call to function LCD_write_byte
        MOV       R2,#0x1
        MOV       R1,#0xf
        LCALL     `??LCD_write_byte::?relay`; Banked call to: LCD_write_byte
// 1146   LCD_write_byte(0x17,LCD_DATA); 
        ; Setup parameters for call to function LCD_write_byte
        MOV       R2,#0x1
        MOV       R1,#0x17
        LCALL     `??LCD_write_byte::?relay`; Banked call to: LCD_write_byte
// 1147   LCD_write_byte(0x33,LCD_DATA); 
        ; Setup parameters for call to function LCD_write_byte
        MOV       R2,#0x1
        MOV       R1,#0x33
        LCALL     `??LCD_write_byte::?relay`; Banked call to: LCD_write_byte
// 1148   LCD_write_byte(0x2c,LCD_DATA); 
        ; Setup parameters for call to function LCD_write_byte
        MOV       R2,#0x1
        MOV       R1,#0x2c
        LCALL     `??LCD_write_byte::?relay`; Banked call to: LCD_write_byte
// 1149   LCD_write_byte(0x29,LCD_DATA); 
        ; Setup parameters for call to function LCD_write_byte
        MOV       R2,#0x1
        MOV       R1,#0x29
        LCALL     `??LCD_write_byte::?relay`; Banked call to: LCD_write_byte
// 1150   LCD_write_byte(0x2e,LCD_DATA); 
        ; Setup parameters for call to function LCD_write_byte
        MOV       R2,#0x1
        MOV       R1,#0x2e
        LCALL     `??LCD_write_byte::?relay`; Banked call to: LCD_write_byte
// 1151   LCD_write_byte(0x30,LCD_DATA); 
        ; Setup parameters for call to function LCD_write_byte
        MOV       R2,#0x1
        MOV       R1,#0x30
        LCALL     `??LCD_write_byte::?relay`; Banked call to: LCD_write_byte
// 1152   LCD_write_byte(0x30,LCD_DATA); 
        ; Setup parameters for call to function LCD_write_byte
        MOV       R2,#0x1
        MOV       R1,#0x30
        LCALL     `??LCD_write_byte::?relay`; Banked call to: LCD_write_byte
// 1153   LCD_write_byte(0x39,LCD_DATA); 
        ; Setup parameters for call to function LCD_write_byte
        MOV       R2,#0x1
        MOV       R1,#0x39
        LCALL     `??LCD_write_byte::?relay`; Banked call to: LCD_write_byte
// 1154   LCD_write_byte(0x3f,LCD_DATA); 
        ; Setup parameters for call to function LCD_write_byte
        MOV       R2,#0x1
        MOV       R1,#0x3f
        LCALL     `??LCD_write_byte::?relay`; Banked call to: LCD_write_byte
// 1155   LCD_write_byte(0x00,LCD_DATA); 
        ; Setup parameters for call to function LCD_write_byte
        MOV       R2,#0x1
        MOV       R1,#0x0
        LCALL     `??LCD_write_byte::?relay`; Banked call to: LCD_write_byte
// 1156   LCD_write_byte(0x07,LCD_DATA); 
        ; Setup parameters for call to function LCD_write_byte
        MOV       R2,#0x1
        MOV       R1,#0x7
        LCALL     `??LCD_write_byte::?relay`; Banked call to: LCD_write_byte
// 1157   LCD_write_byte(0x03,LCD_DATA); 
        ; Setup parameters for call to function LCD_write_byte
        MOV       R2,#0x1
        MOV       R1,#0x3
        LCALL     `??LCD_write_byte::?relay`; Banked call to: LCD_write_byte
// 1158   LCD_write_byte(0x10,LCD_DATA);  
        ; Setup parameters for call to function LCD_write_byte
        MOV       R2,#0x1
        MOV       R1,#0x10
        LCALL     `??LCD_write_byte::?relay`; Banked call to: LCD_write_byte
// 1159 
// 1160   LCD_write_byte(0x2a,LCD_COMMAND);
        ; Setup parameters for call to function LCD_write_byte
        MOV       R2,#0x0
        MOV       R1,#0x2a
        LCALL     `??LCD_write_byte::?relay`; Banked call to: LCD_write_byte
// 1161   LCD_write_byte(0x00,LCD_DATA);
        ; Setup parameters for call to function LCD_write_byte
        MOV       R2,#0x1
        MOV       R1,#0x0
        LCALL     `??LCD_write_byte::?relay`; Banked call to: LCD_write_byte
// 1162   LCD_write_byte(0x00,LCD_DATA);
        ; Setup parameters for call to function LCD_write_byte
        MOV       R2,#0x1
        MOV       R1,#0x0
        LCALL     `??LCD_write_byte::?relay`; Banked call to: LCD_write_byte
// 1163   LCD_write_byte(0x00,LCD_DATA);
        ; Setup parameters for call to function LCD_write_byte
        MOV       R2,#0x1
        MOV       R1,#0x0
        LCALL     `??LCD_write_byte::?relay`; Banked call to: LCD_write_byte
// 1164   LCD_write_byte(0x7f,LCD_DATA);
        ; Setup parameters for call to function LCD_write_byte
        MOV       R2,#0x1
        MOV       R1,#0x7f
        LCALL     `??LCD_write_byte::?relay`; Banked call to: LCD_write_byte
// 1165   LCD_write_byte(0x2b,LCD_COMMAND);
        ; Setup parameters for call to function LCD_write_byte
        MOV       R2,#0x0
        MOV       R1,#0x2b
        LCALL     `??LCD_write_byte::?relay`; Banked call to: LCD_write_byte
// 1166   LCD_write_byte(0x00,LCD_DATA);
        ; Setup parameters for call to function LCD_write_byte
        MOV       R2,#0x1
        MOV       R1,#0x0
        LCALL     `??LCD_write_byte::?relay`; Banked call to: LCD_write_byte
// 1167   LCD_write_byte(0x00,LCD_DATA);
        ; Setup parameters for call to function LCD_write_byte
        MOV       R2,#0x1
        MOV       R1,#0x0
        LCALL     `??LCD_write_byte::?relay`; Banked call to: LCD_write_byte
// 1168   LCD_write_byte(0x00,LCD_DATA);
        ; Setup parameters for call to function LCD_write_byte
        MOV       R2,#0x1
        MOV       R1,#0x0
        LCALL     `??LCD_write_byte::?relay`; Banked call to: LCD_write_byte
// 1169   LCD_write_byte(0x9f,LCD_DATA);
        ; Setup parameters for call to function LCD_write_byte
        MOV       R2,#0x1
        MOV       R1,#-0x61
        LCALL     `??LCD_write_byte::?relay`; Banked call to: LCD_write_byte
// 1170 
// 1171   LCD_write_byte(0xF0,LCD_COMMAND); //使能测试命令  
        ; Setup parameters for call to function LCD_write_byte
        MOV       R2,#0x0
        MOV       R1,#-0x10
        LCALL     `??LCD_write_byte::?relay`; Banked call to: LCD_write_byte
// 1172   LCD_write_byte(0x01,LCD_DATA); 
        ; Setup parameters for call to function LCD_write_byte
        MOV       R2,#0x1
        MOV       R1,#0x1
        LCALL     `??LCD_write_byte::?relay`; Banked call to: LCD_write_byte
// 1173   LCD_write_byte(0xF6,LCD_COMMAND); //关闭ram省电模式 
        ; Setup parameters for call to function LCD_write_byte
        MOV       R2,#0x0
        MOV       R1,#-0xa
        LCALL     `??LCD_write_byte::?relay`; Banked call to: LCD_write_byte
// 1174   LCD_write_byte(0x00,LCD_DATA); 
        ; Setup parameters for call to function LCD_write_byte
        MOV       R2,#0x1
        MOV       R1,#0x0
        LCALL     `??LCD_write_byte::?relay`; Banked call to: LCD_write_byte
// 1175 
// 1176   LCD_write_byte(0x3A,LCD_COMMAND); //色深16bit 
        ; Setup parameters for call to function LCD_write_byte
        MOV       R2,#0x0
        MOV       R1,#0x3a
        LCALL     `??LCD_write_byte::?relay`; Banked call to: LCD_write_byte
// 1177   LCD_write_byte(0x05,LCD_DATA); 
        ; Setup parameters for call to function LCD_write_byte
        MOV       R2,#0x1
        MOV       R1,#0x5
        LCALL     `??LCD_write_byte::?relay`; Banked call to: LCD_write_byte
// 1178   
// 1179   LCD_write_byte(0x29,LCD_COMMAND); //开显示  
        ; Setup parameters for call to function LCD_write_byte
        MOV       R2,#0x0
        MOV       R1,#0x29
        LCALL     `??LCD_write_byte::?relay`; Banked call to: LCD_write_byte
// 1180   LCD_clear(GREEN);                 //清屏 
        ; Setup parameters for call to function LCD_clear
        MOV       R2,#-0x20
        MOV       R3,#0x7
        LCALL     `??LCD_clear::?relay`; Banked call to: LCD_clear
// 1181 }
        LJMP      ?Subroutine0 & 0xFFFF
          CFI EndBlock cfiBlock55
        REQUIRE P0SEL
        REQUIRE P0DIR
        REQUIRE P1SEL
        REQUIRE P1DIR

        RSEG XDATA_ID:CODE:NOROOT(0)
`?<Initializer for Color>`:
        DATA16
        DW 31

        RSEG XDATA_ID:CODE:NOROOT(0)
`?<Initializer for Color_BK>`:
        DATA16
        DW 2016

        RSEG BANK_RELAYS:CODE:REORDER:NOROOT(0)
`??HalLcdInit::?relay`:
        CODE
        LCALL   ?BDISPATCH
        DATA24
        DC24    HalLcdInit

        RSEG BANK_RELAYS:CODE:REORDER:NOROOT(0)
`??HalLcdWriteValue::?relay`:
        CODE
        LCALL   ?BDISPATCH
        DATA24
        DC24    HalLcdWriteValue

        RSEG BANK_RELAYS:CODE:REORDER:NOROOT(0)
`??HalLcdWriteScreen::?relay`:
        CODE
        LCALL   ?BDISPATCH
        DATA24
        DC24    HalLcdWriteScreen

        RSEG BANK_RELAYS:CODE:REORDER:NOROOT(0)
`??HalLcdWriteStringValue::?relay`:
        CODE
        LCALL   ?BDISPATCH
        DATA24
        DC24    HalLcdWriteStringValue

        RSEG BANK_RELAYS:CODE:REORDER:NOROOT(0)
`??HalLcdWriteStringValueValue::?relay`:
        CODE
        LCALL   ?BDISPATCH
        DATA24
        DC24    HalLcdWriteStringValueValue

        RSEG BANK_RELAYS:CODE:REORDER:NOROOT(0)
`??DelayMS::?relay`:
        CODE
        LCALL   ?BDISPATCH
        DATA24
        DC24    DelayMS

        RSEG BANK_RELAYS:CODE:REORDER:NOROOT(0)
`??HalLcdWriteString::?relay`:
        CODE
        LCALL   ?BDISPATCH
        DATA24
        DC24    HalLcdWriteString

        RSEG BANK_RELAYS:CODE:REORDER:NOROOT(0)
`??SendByte::?relay`:
        CODE
        LCALL   ?BDISPATCH
        DATA24
        DC24    SendByte

        RSEG BANK_RELAYS:CODE:REORDER:NOROOT(0)
`??SPI_WriteData::?relay`:
        CODE
        LCALL   ?BDISPATCH
        DATA24
        DC24    SPI_WriteData

        RSEG BANK_RELAYS:CODE:REORDER:NOROOT(0)
`??LCD_WrCmd::?relay`:
        CODE
        LCALL   ?BDISPATCH
        DATA24
        DC24    LCD_WrCmd

        RSEG BANK_RELAYS:CODE:REORDER:NOROOT(0)
`??LCD_WrDat::?relay`:
        CODE
        LCALL   ?BDISPATCH
        DATA24
        DC24    LCD_WrDat

        RSEG BANK_RELAYS:CODE:REORDER:NOROOT(0)
`??LCD_WriteData_16Bit::?relay`:
        CODE
        LCALL   ?BDISPATCH
        DATA24
        DC24    LCD_WriteData_16Bit

        RSEG BANK_RELAYS:CODE:REORDER:NOROOT(0)
`??LCD_write_byte::?relay`:
        CODE
        LCALL   ?BDISPATCH
        DATA24
        DC24    LCD_write_byte

        RSEG BANK_RELAYS:CODE:REORDER:NOROOT(0)
`??Lcd_Reset::?relay`:
        CODE
        LCALL   ?BDISPATCH
        DATA24
        DC24    Lcd_Reset

        RSEG BANK_RELAYS:CODE:REORDER:NOROOT(0)
`??LCD_set_window::?relay`:
        CODE
        LCALL   ?BDISPATCH
        DATA24
        DC24    LCD_set_window

        RSEG BANK_RELAYS:CODE:REORDER:NOROOT(0)
`??DrawPixel::?relay`:
        CODE
        LCALL   ?BDISPATCH
        DATA24
        DC24    DrawPixel

        RSEG BANK_RELAYS:CODE:REORDER:NOROOT(0)
`??DrawVerticalLine::?relay`:
        CODE
        LCALL   ?BDISPATCH
        DATA24
        DC24    DrawVerticalLine

        RSEG BANK_RELAYS:CODE:REORDER:NOROOT(0)
`??DrawHorizonLine::?relay`:
        CODE
        LCALL   ?BDISPATCH
        DATA24
        DC24    DrawHorizonLine

        RSEG BANK_RELAYS:CODE:REORDER:NOROOT(0)
`??DrawRect::?relay`:
        CODE
        LCALL   ?BDISPATCH
        DATA24
        DC24    DrawRect

        RSEG BANK_RELAYS:CODE:REORDER:NOROOT(0)
`??DrawRectFill::?relay`:
        CODE
        LCALL   ?BDISPATCH
        DATA24
        DC24    DrawRectFill

        RSEG BANK_RELAYS:CODE:REORDER:NOROOT(0)
`??LCD_clear::?relay`:
        CODE
        LCALL   ?BDISPATCH
        DATA24
        DC24    LCD_clear

        RSEG BANK_RELAYS:CODE:REORDER:NOROOT(0)
`??LCD_write_EN::?relay`:
        CODE
        LCALL   ?BDISPATCH
        DATA24
        DC24    LCD_write_EN

        RSEG BANK_RELAYS:CODE:REORDER:NOROOT(0)
`??LCD_write_EN_string::?relay`:
        CODE
        LCALL   ?BDISPATCH
        DATA24
        DC24    LCD_write_EN_string

        RSEG BANK_RELAYS:CODE:REORDER:NOROOT(0)
`??LCD_write_CN::?relay`:
        CODE
        LCALL   ?BDISPATCH
        DATA24
        DC24    LCD_write_CN

        RSEG BANK_RELAYS:CODE:REORDER:NOROOT(0)
`??LCD_write_CN_string::?relay`:
        CODE
        LCALL   ?BDISPATCH
        DATA24
        DC24    LCD_write_CN_string

        RSEG BANK_RELAYS:CODE:REORDER:NOROOT(0)
`??ShowImage::?relay`:
        CODE
        LCALL   ?BDISPATCH
        DATA24
        DC24    ShowImage

        RSEG BANK_RELAYS:CODE:REORDER:NOROOT(0)
`??HalLcd_HW_Init::?relay`:
        CODE
        LCALL   ?BDISPATCH
        DATA24
        DC24    HalLcd_HW_Init

        END
// 1182 #endif
// 
// 3 600 bytes in segment BANKED_CODE
//   162 bytes in segment BANK_RELAYS
// 1 369 bytes in segment CODE_C
//     6 bytes in segment SFR_AN
//     4 bytes in segment XDATA_I
//     4 bytes in segment XDATA_ID
// 1 120 bytes in segment XDATA_ROM_C
//     1 byte  in segment XDATA_Z
// 
// 1 535 bytes of CODE     memory
// 1 120 bytes of CONST    memory
//     0 bytes of DATA     memory (+ 6 bytes shared)
// 3 600 bytes of HUGECODE memory
//     5 bytes of XDATA    memory
//
//Errors: none
//Warnings: none
