###############################################################################
#
# IAR C/C++ Compiler V10.10.1.4655 for 8051               23/May/2018  02:39:08
# Copyright 2004-2017 IAR Systems AB.
# Standalone license - IAR Embedded Workbench for 8051
#
#    Core               =  plain
#    Code model         =  banked
#    Data model         =  large
#    Calling convention =  xdata reentrant
#    Constant location  =  data_rom
#    Dptr setup         =  1,16
#                          
#    Source file        =  
#        C:\Users\Traceur\Desktop\SmartLamp\Components\hal\target\CC2530EB\hal_lcd.c
#    Command line       =  
#        -f C:\Users\Traceur\AppData\Local\Temp\EW392E.tmp
#        (C:\Users\Traceur\Desktop\SmartLamp\Components\hal\target\CC2530EB\hal_lcd.c
#        -D ZIGBEEPRO -D ZTOOL_P1 -D xMT_TASK -D xMT_SYS_FUNC -D xMT_ZDO_FUNC
#        -D LCD_SUPPORTED=DEBUG -lC
#        C:\Users\Traceur\Desktop\SmartLamp\Projects\zstack\Samples\LampCtrl\CC2530DB\CoordinatorEB\List
#        -lA
#        C:\Users\Traceur\Desktop\SmartLamp\Projects\zstack\Samples\LampCtrl\CC2530DB\CoordinatorEB\List
#        --diag_suppress Pe001,Pa010 -o
#        C:\Users\Traceur\Desktop\SmartLamp\Projects\zstack\Samples\LampCtrl\CC2530DB\CoordinatorEB\Obj
#        -e --debug --core=plain --dptr=16,1 --data_model=large
#        --code_model=banked --calling_convention=xdata_reentrant
#        --place_constants=data_rom --nr_virtual_regs 16 -f
#        C:\Users\Traceur\Desktop\SmartLamp\Projects\zstack\Samples\LampCtrl\CC2530DB\..\..\..\Tools\CC2530DB\f8wCoord.cfg
#        (-DCPU32MHZ -DROOT=__near_func -DMAC_CFG_APP_PENDING_QUEUE=TRUE
#        -DMAC_CFG_TX_DATA_MAX=5 -DMAC_CFG_TX_MAX=8 -DMAC_CFG_RX_MAX=5
#        -DZDO_COORDINATOR -DRTR_NWK) -f
#        C:\Users\Traceur\Desktop\SmartLamp\Projects\zstack\Samples\LampCtrl\CC2530DB\..\..\..\Tools\CC2530DB\f8wConfig.cfg
#        (-DZIGBEEPRO -DSECURE=0 -DZG_SECURE_DYNAMIC=0 -DREFLECTOR
#        -DDEFAULT_CHANLIST=0x00000800 -DZDAPP_CONFIG_PAN_ID=0xFFF1
#        -DNWK_START_DELAY=100 -DEXTENDED_JOINING_RANDOM_MASK=0x007F
#        -DBEACON_REQUEST_DELAY=100 -DBEACON_REQ_DELAY_MASK=0x00FF
#        -DLINK_STATUS_JITTER_MASK=0x007F -DROUTE_EXPIRY_TIME=30
#        -DAPSC_ACK_WAIT_DURATION_POLLED=3000 -DNWK_INDIRECT_MSG_TIMEOUT=7
#        -DMAX_RREQ_ENTRIES=8 -DAPSC_MAX_FRAME_RETRIES=3
#        -DNWK_MAX_DATA_RETRIES=2 -DMAX_POLL_FAILURE_RETRIES=2 -DMAX_BCAST=9
#        -DAPS_MAX_GROUPS=16 -DMAX_RTG_ENTRIES=40 -DNWK_MAX_BINDING_ENTRIES=4
#        -DMAX_BINDING_CLUSTER_IDS=4 "-DDEFAULT_KEY={0x01, 0x03, 0x05, 0x07,
#        0x09, 0x0B, 0x0D, 0x0F, 0x00, 0x02, 0x04, 0x06, 0x08, 0x0A, 0x0C,
#        0x0D}" -DMAC_MAX_FRAME_SIZE=116 -DZDNWKMGR_MIN_TRANSMISSIONS=20
#        "-DCONST=const __code" -DGENERIC=__generic -DRFD_RCVC_ALWAYS_ON=FALSE
#        -DPOLL_RATE=1000 -DQUEUED_POLL_RATE=100 -DRESPONSE_POLL_RATE=100
#        -DREJOIN_POLL_RATE=440) -I
#        C:\Users\Traceur\Desktop\SmartLamp\Projects\zstack\Samples\LampCtrl\CC2530DB\
#        -I
#        C:\Users\Traceur\Desktop\SmartLamp\Projects\zstack\Samples\LampCtrl\CC2530DB\..\Source\
#        -I
#        C:\Users\Traceur\Desktop\SmartLamp\Projects\zstack\Samples\LampCtrl\CC2530DB\..\..\..\ZMain\TI2530DB\
#        -I
#        C:\Users\Traceur\Desktop\SmartLamp\Projects\zstack\Samples\LampCtrl\CC2530DB\..\..\..\..\..\Components\hal\include\
#        -I
#        C:\Users\Traceur\Desktop\SmartLamp\Projects\zstack\Samples\LampCtrl\CC2530DB\..\..\..\..\..\Components\hal\target\CC2530EB\
#        -I
#        C:\Users\Traceur\Desktop\SmartLamp\Projects\zstack\Samples\LampCtrl\CC2530DB\..\..\..\..\..\Components\mac\include\
#        -I
#        C:\Users\Traceur\Desktop\SmartLamp\Projects\zstack\Samples\LampCtrl\CC2530DB\..\..\..\..\..\Components\mac\high_level\
#        -I
#        C:\Users\Traceur\Desktop\SmartLamp\Projects\zstack\Samples\LampCtrl\CC2530DB\..\..\..\..\..\Components\mac\low_level\srf04\
#        -I
#        C:\Users\Traceur\Desktop\SmartLamp\Projects\zstack\Samples\LampCtrl\CC2530DB\..\..\..\..\..\Components\mac\low_level\srf04\single_chip\
#        -I
#        C:\Users\Traceur\Desktop\SmartLamp\Projects\zstack\Samples\LampCtrl\CC2530DB\..\..\..\..\..\Components\mt\
#        -I
#        C:\Users\Traceur\Desktop\SmartLamp\Projects\zstack\Samples\LampCtrl\CC2530DB\..\..\..\..\..\Components\osal\include\
#        -I
#        C:\Users\Traceur\Desktop\SmartLamp\Projects\zstack\Samples\LampCtrl\CC2530DB\..\..\..\..\..\Components\services\saddr\
#        -I
#        C:\Users\Traceur\Desktop\SmartLamp\Projects\zstack\Samples\LampCtrl\CC2530DB\..\..\..\..\..\Components\services\sdata\
#        -I
#        C:\Users\Traceur\Desktop\SmartLamp\Projects\zstack\Samples\LampCtrl\CC2530DB\..\..\..\..\..\Components\stack\af\
#        -I
#        C:\Users\Traceur\Desktop\SmartLamp\Projects\zstack\Samples\LampCtrl\CC2530DB\..\..\..\..\..\Components\stack\nwk\
#        -I
#        C:\Users\Traceur\Desktop\SmartLamp\Projects\zstack\Samples\LampCtrl\CC2530DB\..\..\..\..\..\Components\stack\sapi\
#        -I
#        C:\Users\Traceur\Desktop\SmartLamp\Projects\zstack\Samples\LampCtrl\CC2530DB\..\..\..\..\..\Components\stack\sec\
#        -I
#        C:\Users\Traceur\Desktop\SmartLamp\Projects\zstack\Samples\LampCtrl\CC2530DB\..\..\..\..\..\Components\stack\sys\
#        -I
#        C:\Users\Traceur\Desktop\SmartLamp\Projects\zstack\Samples\LampCtrl\CC2530DB\..\..\..\..\..\Components\stack\zdo\
#        -I
#        C:\Users\Traceur\Desktop\SmartLamp\Projects\zstack\Samples\LampCtrl\CC2530DB\..\..\..\..\..\Components\zmac\
#        -I
#        C:\Users\Traceur\Desktop\SmartLamp\Projects\zstack\Samples\LampCtrl\CC2530DB\..\..\..\..\..\Components\zmac\f8w\
#        -Ohz --require_prototypes --no_code_motion)
#    Locale             =  Chinese (Simplified)_China.936
#    List file          =  
#        C:\Users\Traceur\Desktop\SmartLamp\Projects\zstack\Samples\LampCtrl\CC2530DB\CoordinatorEB\List\hal_lcd.lst
#    Object file        =  
#        C:\Users\Traceur\Desktop\SmartLamp\Projects\zstack\Samples\LampCtrl\CC2530DB\CoordinatorEB\Obj\hal_lcd.r51
#
###############################################################################

C:\Users\Traceur\Desktop\SmartLamp\Components\hal\target\CC2530EB\hal_lcd.c
      1          /****************************************************************************
      2          * Filename: hal_lcd.c
      3          * Author:      Andy  https://aldsz.taobao.com
      4          * Date:        2015-06-16
      5          * Version:     1.0
      6          * Description: OLED driver
      7          ****************************************************************************/
      8          #include "hal_types.h"
      9          #include "hal_lcd.h"

   \                                 In  segment SFR_AN, at 0x80
   \   union <unnamed> volatile __sfr _A_P0
   \                     _A_P0:
   \   000000                DS 1

   \                                 In  segment SFR_AN, at 0x90
   \   union <unnamed> volatile __sfr _A_P1
   \                     _A_P1:
   \   000000                DS 1

   \                                 In  segment SFR_AN, at 0xf3
   \   unsigned char volatile __sfr P0SEL
   \                     P0SEL:
   \   000000                DS 1

   \                                 In  segment SFR_AN, at 0xf4
   \   unsigned char volatile __sfr P1SEL
   \                     P1SEL:
   \   000000                DS 1

   \                                 In  segment SFR_AN, at 0xfd
   \   unsigned char volatile __sfr P0DIR
   \                     P0DIR:
   \   000000                DS 1

   \                                 In  segment SFR_AN, at 0xfe
   \   unsigned char volatile __sfr P1DIR
   \                     P1DIR:
   \   000000                DS 1
     10          #include "OSAL.h"
     11          #include "OnBoard.h"
     12          #include "hal_assert.h"
     13          #include <string.h>
     14          
     15          #if defined (ZTOOL_P1) || defined (ZTOOL_P2)
     16            #include "DebugTrace.h"
     17          #endif
     18          
     19          
     20          //------------------------------------------------------------------------------
     21          #define LCD_COMMAND 0x00
     22          #define LCD_DATA    0x01
     23          
     24          #define LCD_MAX_BUF 25
     25          
     26          #define SOFTWARE_SPI
     27          //#define HARDWARE_SPI //采用硬件SPI通讯
     28          
     29          #define COL_SPACE   2  //字符间距
     30          #define ROW_SPACE   4  //行间距
     31          #define ALL_CNS     128
     32          #define X_MAX_PIXEL 128
     33          #define Y_MAX_PIXEL 128
     34          
     35          // SPI TFT LCD端口定义
     36          #define LCD_DC           P0_0  // 数据/命令选择
     37          #define LCD_SDA          P1_3  // 双向数据 
     38          #define LCD_SCL          P1_2  // 时钟   
     39          //#define LCD_CS         P1_2  // 片选, L_S 将片选接地
     40          #define LCD_RST          P1_7  // 控制lcd复位   
     41          
     42          //液晶控制口置1操作语句宏定义
     43          //#define LCD_CS_SET  	(LCD_CS_CLRx01)   
     44          #define	LCD_DC_SET  	(LCD_DC = 0x01)  
     45          #define	LCD_SDA_SET  	(LCD_SDA = 0x01)    
     46          #define	LCD_SCL_SET  	(LCD_SCL = 0x01)   
     47          #define	LCD_RST_SET  	(LCD_RST = 0x01)  
     48          
     49          //液晶控制口置0操作语句宏定义
     50          //#define LCD_CS_CLR  	(LCD_CS_CLRx00)    
     51          #define	LCD_DC_CLR  	(LCD_DC = 0x00)  
     52          #define	LCD_SDA_CLR  	(LCD_SDA = 0x00)     
     53          #define	LCD_SCL_CLR  	(LCD_SCL = 0x00)
     54          #define	LCD_RST_CLR  	(LCD_RST = 0x00)   
     55          
     56          
     57          void SPI_Init(void);
     58          void LCD_clear(unsigned int color);
     59          void LCD_write_EN_string(unsigned char X,unsigned char Y,uint8 *s);
     60          static void LCD_set_window(unsigned int X, unsigned int Y, 
     61                                     unsigned Width,unsigned int Height);
     62          static void LCD_write_EN(unsigned int X, unsigned int Y, unsigned char c);
     63          static void LCD_write_CN(unsigned int X, unsigned int Y, unsigned char c);
     64          

   \                                 In  segment XDATA_I, align 1, keep-with-next
     65          unsigned int  Color    = BLUE; //默认前景颜色
   \                     Color:
   \   000000                DS 2
   \   000002                REQUIRE `?<Initializer for Color>`
   \   000002                REQUIRE __INIT_XDATA_I

   \                                 In  segment XDATA_I, align 1, keep-with-next
     66          unsigned int  Color_BK = GREEN;//默认背景颜色
   \                     Color_BK:
   \   000000                DS 2
   \   000002                REQUIRE `?<Initializer for Color_BK>`
   \   000002                REQUIRE __INIT_XDATA_I
     67          //------------------------------------------------------------------------------
     68          
     69          #define XLevelL            0x00
     70          #define XLevelH            0x10
     71          #define XLevel             ((XLevelH&0x0F)*16+XLevelL)
     72          #define Max_Column         128
     73          #define Max_Row            64
     74          #define Brightness         0xCF 
     75          #define X_WIDTH            128
     76          #define Y_WIDTH            64
     77          
     78          #define LCD_MAX_BUF        25
     79          #define HAL_LCD_MAX_CHARS  16   // Max number of chars on a single LCD line 
     80          
     81          
     82          #if (HAL_LCD == TRUE)
     83          void HalLcd_HW_Init(void);
     84          void HalLcd_HW_WaitUs(uint16 i);
     85          void HalLcd_HW_Clear(void);
     86          void HalLcd_HW_Control(uint8 cmd);
     87          void HalLcd_HW_Write(uint8 data);
     88          void HalLcd_HW_SetContrast(uint8 value);
     89          void HalLcd_HW_WriteChar(uint8 line, uint8 col, char text);
     90          void HalLcd_HW_WriteLine(uint8 line, const char *pText);
     91          
     92          void DelayMS(unsigned int msec);
     93          void LCD_WrDat(unsigned char dat);
     94          void LCD_WrCmd(unsigned char cmd);
     95          void LCD_Set_Pos(unsigned char x, unsigned char y);
     96          void LCD_Fill(unsigned char bmp_dat) ;
     97          void LCD_CLS(void);
     98          
     99          //-----------------------------------------------------------------------------
    100          void DrawRect(unsigned int Xpos, unsigned int Ypos, unsigned int Width, 
    101                        unsigned int Height,unsigned Color);
    102          void DrawRectFill(unsigned int Xpos  , unsigned int Ypos, unsigned int Width, 
    103                            unsigned int Height, unsigned Color);
    104          void  SendByte(unsigned char Data);
    105          void  SPI_WriteData(unsigned char Data);
    106          void LCD_write_byte(unsigned char data, unsigned char command);
    107          void LCD_WriteData_16Bit(unsigned short Data);
    108          void LCD_write_CN_string(unsigned char X,unsigned char Y,uint8 *s);
    109          void ShowImage(const unsigned char *p);
    110          
    111          void DrawPixel(unsigned int x, unsigned int y, unsigned int color);
    112          void DrawVerticalLine(unsigned int x, unsigned int y, 
    113                                unsigned int Length,unsigned int Color);
    114          void DrawHorizonLine(unsigned int x, unsigned int y, 
    115                               unsigned int Length,unsigned int Color);               
    116          void Lcd_Reset(void);
    117          
    118          
    119          //中文14x14点阵字符索引 ALD

   \                                 In  segment CODE_C, align 1
    120          __code const  unsigned char CN14x14_Index[] =
   \                     CN14x14_Index:
   \   000000   C9EEDBDA     DB 0C9H, 0EEH, 0DBH, 0DAH, 0CAH, 0D0H, 0B0H, 0B2H
   \            CAD0B0B2
   \   000008   C1AAB5C2     DB 0C1H, 0AAH, 0B5H, 0C2H, 0BFH, 0C6H, 0BCH, 0BCH
   \            BFC6BCBC
   \   000010   D3C3BBA7     DB 0D3H, 0C3H, 0BBH, 0A7H, 0B5H, 0C7H, 0C2H, 0BCH
   \            B5C7C2BC
   \   000018   D5CABAC5     DB 0D5H, 0CAH, 0BAH, 0C5H, 0C3H, 0DCH, 0C2H, 0EBH
   \            C3DCC2EB
   \   000020   C8B7B6A8     DB 0C8H, 0B7H, 0B6H, 0A8H, 0C8H, 0A1H, 0CFH, 0FBH
   \            C8A1CFFB
   \   000028   D7A8D2B5     DB 0D7H, 0A8H, 0D2H, 0B5H, 0D7H, 0A8H, 0D7H, 0A2H
   \            D7A8D7A2
   \   000030   CEDECFDF     DB 0CEH, 0DEH, 0CFH, 0DFH, 0CDH, 0A8H, 0D1H, 0B6H
   \            CDA8D1B6
   \   000038   B3CFD0C5     DB 0B3H, 0CFH, 0D0H, 0C5H, 0C1H, 0A2H, 0D7H, 0E3H
   \            C1A2D7E3
   \   000040   B4B4D0C2     DB 0B4H, 0B4H, 0D0H, 0C2H, 0D6H, 0C2H, 0D4H, 0B6H
   \            D6C2D4B6
   \   000048   C7BFB4F3     DB 0C7H, 0BFH, 0B4H, 0F3H, 0D4H, 0ADH, 0A3H, 0BAH
   \            D4ADA3BA
   \   000050   00           DB 0
    121          {
    122            "深圳市安联德科技用户登录帐号密码确定取消专业专注无线通讯诚信立足创新致远强大原："
    123          };
    124          
    125          //中文14x14点阵字符 ald

   \                                 In  segment XDATA_ROM_C, align 1
    126           const unsigned char CN14x14[][28] =
   \                     CN14x14:
   \   000000   00           DB 0
   \   000001   00           DB 0
   \   000002   4F           DB 79
   \   000003   F8           DB 248
   \   000004   28           DB 40
   \   000005   08           DB 8
   \   000006   02           DB 2
   \   000007   20           DB 32
   \   000008   84           DB 132
   \   000009   10           DB 16
   \   00000A   48           DB 72
   \   00000B   88           DB 136
   \   00000C   00           DB 0
   \   00000D   80           DB 128
   \   00000E   2F           DB 47
   \   00000F   F8           DB 248
   \   000010   21           DB 33
   \   000011   C0           DB 192
   \   000012   42           DB 66
   \   000013   A0           DB 160
   \   000014   42           DB 66
   \   000015   A0           DB 160
   \   000016   84           DB 132
   \   000017   90           DB 144
   \   000018   88           DB 136
   \   000019   88           DB 136
   \   00001A   00           DB 0
   \   00001B   80           DB 128
   \   00001C   22           DB 34
   \   00001D   08           DB 8
   \   00001E   22           DB 34
   \   00001F   48           DB 72
   \   000020   22           DB 34
   \   000021   48           DB 72
   \   000022   22           DB 34
   \   000023   48           DB 72
   \   000024   FA           DB 250
   \   000025   48           DB 72
   \   000026   22           DB 34
   \   000027   48           DB 72
   \   000028   22           DB 34
   \   000029   48           DB 72
   \   00002A   22           DB 34
   \   00002B   48           DB 72
   \   00002C   22           DB 34
   \   00002D   48           DB 72
   \   00002E   3A           DB 58
   \   00002F   48           DB 72
   \   000030   E2           DB 226
   \   000031   48           DB 72
   \   000032   02           DB 2
   \   000033   48           DB 72
   \   000034   02           DB 2
   \   000035   08           DB 8
   \   000036   04           DB 4
   \   000037   08           DB 8
   \   000038   04           DB 4
   \   000039   00           DB 0
   \   00003A   02           DB 2
   \   00003B   00           DB 0
   \   00003C   FF           DB 255
   \   00003D   F8           DB 248
   \   00003E   02           DB 2
   \   00003F   00           DB 0
   \   000040   02           DB 2
   \   000041   00           DB 0
   \   000042   7F           DB 127
   \   000043   F0           DB 240
   \   000044   42           DB 66
   \   000045   10           DB 16
   \   000046   42           DB 66
   \   000047   10           DB 16
   \   000048   42           DB 66
   \   000049   10           DB 16
   \   00004A   42           DB 66
   \   00004B   10           DB 16
   \   00004C   42           DB 66
   \   00004D   10           DB 16
   \   00004E   42           DB 66
   \   00004F   70           DB 112
   \   000050   02           DB 2
   \   000051   00           DB 0
   \   000052   02           DB 2
   \   000053   00           DB 0
   \   000054   04           DB 4
   \   000055   00           DB 0
   \   000056   02           DB 2
   \   000057   00           DB 0
   \   000058   FF           DB 255
   \   000059   F8           DB 248
   \   00005A   80           DB 128
   \   00005B   08           DB 8
   \   00005C   84           DB 132
   \   00005D   08           DB 8
   \   00005E   04           DB 4
   \   00005F   00           DB 0
   \   000060   FF           DB 255
   \   000061   F8           DB 248
   \   000062   08           DB 8
   \   000063   40           DB 64
   \   000064   10           DB 16
   \   000065   40           DB 64
   \   000066   3C           DB 60
   \   000067   80           DB 128
   \   000068   03           DB 3
   \   000069   00           DB 0
   \   00006A   04           DB 4
   \   00006B   C0           DB 192
   \   00006C   18           DB 24
   \   00006D   20           DB 32
   \   00006E   E0           DB 224
   \   00006F   10           DB 16
   \   000070   01           DB 1
   \   000071   10           DB 16
   \   000072   FC           DB 252
   \   000073   A0           DB 160
   \   000074   48           DB 72
   \   000075   00           DB 0
   \   000076   49           DB 73
   \   000077   F0           DB 240
   \   000078   78           DB 120
   \   000079   40           DB 64
   \   00007A   48           DB 72
   \   00007B   40           DB 64
   \   00007C   48           DB 72
   \   00007D   40           DB 64
   \   00007E   7B           DB 123
   \   00007F   F8           DB 248
   \   000080   48           DB 72
   \   000081   40           DB 64
   \   000082   48           DB 72
   \   000083   40           DB 64
   \   000084   5C           DB 92
   \   000085   A0           DB 160
   \   000086   E8           DB 232
   \   000087   A0           DB 160
   \   000088   09           DB 9
   \   000089   10           DB 16
   \   00008A   0A           DB 10
   \   00008B   08           DB 8
   \   00008C   10           DB 16
   \   00008D   80           DB 128
   \   00008E   27           DB 39
   \   00008F   F8           DB 248
   \   000090   40           DB 64
   \   000091   80           DB 128
   \   000092   97           DB 151
   \   000093   F0           DB 240
   \   000094   15           DB 21
   \   000095   50           DB 80
   \   000096   25           DB 37
   \   000097   50           DB 80
   \   000098   67           DB 103
   \   000099   F0           DB 240
   \   00009A   A0           DB 160
   \   00009B   00           DB 0
   \   00009C   27           DB 39
   \   00009D   F0           DB 240
   \   00009E   21           DB 33
   \   00009F   00           DB 0
   \   0000A0   20           DB 32
   \   0000A1   90           DB 144
   \   0000A2   2A           DB 42
   \   0000A3   88           DB 136
   \   0000A4   2A           DB 42
   \   0000A5   28           DB 40
   \   0000A6   31           DB 49
   \   0000A7   E0           DB 224
   \   0000A8   00           DB 0
   \   0000A9   20           DB 32
   \   0000AA   0D           DB 13
   \   0000AB   20           DB 32
   \   0000AC   70           DB 112
   \   0000AD   A0           DB 160
   \   0000AE   10           DB 16
   \   0000AF   A0           DB 160
   \   0000B0   12           DB 18
   \   0000B1   20           DB 32
   \   0000B2   FD           DB 253
   \   0000B3   20           DB 32
   \   0000B4   11           DB 17
   \   0000B5   20           DB 32
   \   0000B6   30           DB 48
   \   0000B7   38           DB 56
   \   0000B8   3B           DB 59
   \   0000B9   E0           DB 224
   \   0000BA   54           DB 84
   \   0000BB   20           DB 32
   \   0000BC   90           DB 144
   \   0000BD   20           DB 32
   \   0000BE   10           DB 16
   \   0000BF   20           DB 32
   \   0000C0   10           DB 16
   \   0000C1   20           DB 32
   \   0000C2   10           DB 16
   \   0000C3   20           DB 32
   \   0000C4   20           DB 32
   \   0000C5   80           DB 128
   \   0000C6   20           DB 32
   \   0000C7   80           DB 128
   \   0000C8   20           DB 32
   \   0000C9   80           DB 128
   \   0000CA   F7           DB 247
   \   0000CB   F0           DB 240
   \   0000CC   20           DB 32
   \   0000CD   80           DB 128
   \   0000CE   20           DB 32
   \   0000CF   80           DB 128
   \   0000D0   27           DB 39
   \   0000D1   E0           DB 224
   \   0000D2   32           DB 50
   \   0000D3   20           DB 32
   \   0000D4   E2           DB 226
   \   0000D5   20           DB 32
   \   0000D6   21           DB 33
   \   0000D7   40           DB 64
   \   0000D8   20           DB 32
   \   0000D9   80           DB 128
   \   0000DA   21           DB 33
   \   0000DB   40           DB 64
   \   0000DC   22           DB 34
   \   0000DD   20           DB 32
   \   0000DE   EC           DB 236
   \   0000DF   18           DB 24
   \   0000E0   00           DB 0
   \   0000E1   00           DB 0
   \   0000E2   3F           DB 63
   \   0000E3   F8           DB 248
   \   0000E4   21           DB 33
   \   0000E5   08           DB 8
   \   0000E6   21           DB 33
   \   0000E7   08           DB 8
   \   0000E8   21           DB 33
   \   0000E9   08           DB 8
   \   0000EA   3F           DB 63
   \   0000EB   F8           DB 248
   \   0000EC   21           DB 33
   \   0000ED   08           DB 8
   \   0000EE   21           DB 33
   \   0000EF   08           DB 8
   \   0000F0   3F           DB 63
   \   0000F1   F8           DB 248
   \   0000F2   21           DB 33
   \   0000F3   08           DB 8
   \   0000F4   21           DB 33
   \   0000F5   08           DB 8
   \   0000F6   41           DB 65
   \   0000F7   08           DB 8
   \   0000F8   41           DB 65
   \   0000F9   08           DB 8
   \   0000FA   80           DB 128
   \   0000FB   38           DB 56
   \   0000FC   02           DB 2
   \   0000FD   00           DB 0
   \   0000FE   01           DB 1
   \   0000FF   00           DB 0
   \   000100   3F           DB 63
   \   000101   F8           DB 248
   \   000102   20           DB 32
   \   000103   08           DB 8
   \   000104   20           DB 32
   \   000105   08           DB 8
   \   000106   20           DB 32
   \   000107   08           DB 8
   \   000108   3F           DB 63
   \   000109   F8           DB 248
   \   00010A   20           DB 32
   \   00010B   08           DB 8
   \   00010C   20           DB 32
   \   00010D   00           DB 0
   \   00010E   20           DB 32
   \   00010F   00           DB 0
   \   000110   20           DB 32
   \   000111   00           DB 0
   \   000112   40           DB 64
   \   000113   00           DB 0
   \   000114   40           DB 64
   \   000115   00           DB 0
   \   000116   80           DB 128
   \   000117   00           DB 0
   \   000118   01           DB 1
   \   000119   20           DB 32
   \   00011A   7D           DB 125
   \   00011B   40           DB 64
   \   00011C   04           DB 4
   \   00011D   90           DB 144
   \   00011E   28           DB 40
   \   00011F   A0           DB 160
   \   000120   10           DB 16
   \   000121   40           DB 64
   \   000122   2F           DB 47
   \   000123   A0           DB 160
   \   000124   40           DB 64
   \   000125   18           DB 24
   \   000126   9F           DB 159
   \   000127   C0           DB 192
   \   000128   10           DB 16
   \   000129   40           DB 64
   \   00012A   10           DB 16
   \   00012B   40           DB 64
   \   00012C   1F           DB 31
   \   00012D   C0           DB 192
   \   00012E   10           DB 16
   \   00012F   40           DB 64
   \   000130   08           DB 8
   \   000131   80           DB 128
   \   000132   FF           DB 255
   \   000133   F8           DB 248
   \   000134   00           DB 0
   \   000135   00           DB 0
   \   000136   7F           DB 127
   \   000137   E0           DB 224
   \   000138   00           DB 0
   \   000139   20           DB 32
   \   00013A   3F           DB 63
   \   00013B   E0           DB 224
   \   00013C   00           DB 0
   \   00013D   20           DB 32
   \   00013E   FF           DB 255
   \   00013F   F8           DB 248
   \   000140   02           DB 2
   \   000141   00           DB 0
   \   000142   22           DB 34
   \   000143   20           DB 32
   \   000144   13           DB 19
   \   000145   40           DB 64
   \   000146   0A           DB 10
   \   000147   80           DB 128
   \   000148   12           DB 18
   \   000149   40           DB 64
   \   00014A   22           DB 34
   \   00014B   20           DB 32
   \   00014C   C2           DB 194
   \   00014D   18           DB 24
   \   00014E   0E           DB 14
   \   00014F   00           DB 0
   \   000150   21           DB 33
   \   000151   00           DB 0
   \   000152   21           DB 33
   \   000153   10           DB 16
   \   000154   21           DB 33
   \   000155   10           DB 16
   \   000156   F9           DB 249
   \   000157   20           DB 32
   \   000158   A9           DB 169
   \   000159   40           DB 64
   \   00015A   A9           DB 169
   \   00015B   00           DB 0
   \   00015C   AB           DB 171
   \   00015D   F8           DB 248
   \   00015E   A9           DB 169
   \   00015F   40           DB 64
   \   000160   A9           DB 169
   \   000161   40           DB 64
   \   000162   A9           DB 169
   \   000163   20           DB 32
   \   000164   B9           DB 185
   \   000165   20           DB 32
   \   000166   21           DB 33
   \   000167   50           DB 80
   \   000168   21           DB 33
   \   000169   88           DB 136
   \   00016A   21           DB 33
   \   00016B   00           DB 0
   \   00016C   3F           DB 63
   \   00016D   E0           DB 224
   \   00016E   20           DB 32
   \   00016F   20           DB 32
   \   000170   20           DB 32
   \   000171   20           DB 32
   \   000172   3F           DB 63
   \   000173   E0           DB 224
   \   000174   00           DB 0
   \   000175   00           DB 0
   \   000176   00           DB 0
   \   000177   00           DB 0
   \   000178   FF           DB 255
   \   000179   F8           DB 248
   \   00017A   08           DB 8
   \   00017B   00           DB 0
   \   00017C   10           DB 16
   \   00017D   00           DB 0
   \   00017E   3F           DB 63
   \   00017F   E0           DB 224
   \   000180   00           DB 0
   \   000181   20           DB 32
   \   000182   00           DB 0
   \   000183   20           DB 32
   \   000184   00           DB 0
   \   000185   20           DB 32
   \   000186   00           DB 0
   \   000187   C0           DB 192
   \   000188   02           DB 2
   \   000189   00           DB 0
   \   00018A   FF           DB 255
   \   00018B   F8           DB 248
   \   00018C   80           DB 128
   \   00018D   08           DB 8
   \   00018E   04           DB 4
   \   00018F   40           DB 64
   \   000190   52           DB 82
   \   000191   90           DB 144
   \   000192   51           DB 81
   \   000193   08           DB 8
   \   000194   92           DB 146
   \   000195   28           DB 40
   \   000196   0F           DB 15
   \   000197   E0           DB 224
   \   000198   30           DB 48
   \   000199   00           DB 0
   \   00019A   C2           DB 194
   \   00019B   00           DB 0
   \   00019C   22           DB 34
   \   00019D   20           DB 32
   \   00019E   22           DB 34
   \   00019F   20           DB 32
   \   0001A0   3F           DB 63
   \   0001A1   E0           DB 224
   \   0001A2   00           DB 0
   \   0001A3   20           DB 32
   \   0001A4   00           DB 0
   \   0001A5   00           DB 0
   \   0001A6   07           DB 7
   \   0001A7   E0           DB 224
   \   0001A8   F8           DB 248
   \   0001A9   20           DB 32
   \   0001AA   22           DB 34
   \   0001AB   20           DB 32
   \   0001AC   22           DB 34
   \   0001AD   20           DB 32
   \   0001AE   42           DB 66
   \   0001AF   20           DB 32
   \   0001B0   7B           DB 123
   \   0001B1   F8           DB 248
   \   0001B2   C8           DB 200
   \   0001B3   08           DB 8
   \   0001B4   48           DB 72
   \   0001B5   08           DB 8
   \   0001B6   4F           DB 79
   \   0001B7   E8           DB 232
   \   0001B8   48           DB 72
   \   0001B9   08           DB 8
   \   0001BA   78           DB 120
   \   0001BB   08           DB 8
   \   0001BC   48           DB 72
   \   0001BD   08           DB 8
   \   0001BE   00           DB 0
   \   0001BF   30           DB 48
   \   0001C0   01           DB 1
   \   0001C1   00           DB 0
   \   0001C2   01           DB 1
   \   0001C3   F0           DB 240
   \   0001C4   FA           DB 250
   \   0001C5   10           DB 16
   \   0001C6   24           DB 36
   \   0001C7   20           DB 32
   \   0001C8   23           DB 35
   \   0001C9   F8           DB 248
   \   0001CA   42           DB 66
   \   0001CB   48           DB 72
   \   0001CC   7A           DB 122
   \   0001CD   48           DB 72
   \   0001CE   CB           DB 203
   \   0001CF   F8           DB 248
   \   0001D0   4A           DB 74
   \   0001D1   48           DB 72
   \   0001D2   4A           DB 74
   \   0001D3   48           DB 72
   \   0001D4   4B           DB 75
   \   0001D5   F8           DB 248
   \   0001D6   7A           DB 122
   \   0001D7   48           DB 72
   \   0001D8   42           DB 66
   \   0001D9   48           DB 72
   \   0001DA   04           DB 4
   \   0001DB   18           DB 24
   \   0001DC   04           DB 4
   \   0001DD   00           DB 0
   \   0001DE   02           DB 2
   \   0001DF   00           DB 0
   \   0001E0   FF           DB 255
   \   0001E1   F8           DB 248
   \   0001E2   80           DB 128
   \   0001E3   08           DB 8
   \   0001E4   00           DB 0
   \   0001E5   00           DB 0
   \   0001E6   3F           DB 63
   \   0001E7   E0           DB 224
   \   0001E8   02           DB 2
   \   0001E9   00           DB 0
   \   0001EA   02           DB 2
   \   0001EB   00           DB 0
   \   0001EC   22           DB 34
   \   0001ED   00           DB 0
   \   0001EE   23           DB 35
   \   0001EF   E0           DB 224
   \   0001F0   22           DB 34
   \   0001F1   00           DB 0
   \   0001F2   22           DB 34
   \   0001F3   00           DB 0
   \   0001F4   52           DB 82
   \   0001F5   00           DB 0
   \   0001F6   8F           DB 143
   \   0001F7   F8           DB 248
   \   0001F8   00           DB 0
   \   0001F9   00           DB 0
   \   0001FA   FC           DB 252
   \   0001FB   00           DB 0
   \   0001FC   4B           DB 75
   \   0001FD   F0           DB 240
   \   0001FE   49           DB 73
   \   0001FF   10           DB 16
   \   000200   79           DB 121
   \   000201   10           DB 16
   \   000202   49           DB 73
   \   000203   10           DB 16
   \   000204   49           DB 73
   \   000205   10           DB 16
   \   000206   78           DB 120
   \   000207   A0           DB 160
   \   000208   48           DB 72
   \   000209   A0           DB 160
   \   00020A   4E           DB 78
   \   00020B   40           DB 64
   \   00020C   F8           DB 248
   \   00020D   40           DB 64
   \   00020E   08           DB 8
   \   00020F   A0           DB 160
   \   000210   09           DB 9
   \   000211   10           DB 16
   \   000212   0A           DB 10
   \   000213   08           DB 8
   \   000214   00           DB 0
   \   000215   80           DB 128
   \   000216   44           DB 68
   \   000217   90           DB 144
   \   000218   22           DB 34
   \   000219   A0           DB 160
   \   00021A   10           DB 16
   \   00021B   80           DB 128
   \   00021C   07           DB 7
   \   00021D   F0           DB 240
   \   00021E   84           DB 132
   \   00021F   10           DB 16
   \   000220   44           DB 68
   \   000221   10           DB 16
   \   000222   17           DB 23
   \   000223   F0           DB 240
   \   000224   14           DB 20
   \   000225   10           DB 16
   \   000226   24           DB 36
   \   000227   10           DB 16
   \   000228   27           DB 39
   \   000229   F0           DB 240
   \   00022A   44           DB 68
   \   00022B   10           DB 16
   \   00022C   44           DB 68
   \   00022D   10           DB 16
   \   00022E   04           DB 4
   \   00022F   70           DB 112
   \   000230   02           DB 2
   \   000231   00           DB 0
   \   000232   02           DB 2
   \   000233   00           DB 0
   \   000234   7F           DB 127
   \   000235   F0           DB 240
   \   000236   04           DB 4
   \   000237   00           DB 0
   \   000238   04           DB 4
   \   000239   00           DB 0
   \   00023A   FF           DB 255
   \   00023B   F8           DB 248
   \   00023C   08           DB 8
   \   00023D   00           DB 0
   \   00023E   10           DB 16
   \   00023F   00           DB 0
   \   000240   3F           DB 63
   \   000241   E0           DB 224
   \   000242   00           DB 0
   \   000243   20           DB 32
   \   000244   00           DB 0
   \   000245   40           DB 64
   \   000246   1C           DB 28
   \   000247   80           DB 128
   \   000248   03           DB 3
   \   000249   00           DB 0
   \   00024A   00           DB 0
   \   00024B   80           DB 128
   \   00024C   08           DB 8
   \   00024D   80           DB 128
   \   00024E   08           DB 8
   \   00024F   80           DB 128
   \   000250   08           DB 8
   \   000251   80           DB 128
   \   000252   88           DB 136
   \   000253   90           DB 144
   \   000254   48           DB 72
   \   000255   90           DB 144
   \   000256   48           DB 72
   \   000257   90           DB 144
   \   000258   28           DB 40
   \   000259   A0           DB 160
   \   00025A   28           DB 40
   \   00025B   A0           DB 160
   \   00025C   28           DB 40
   \   00025D   C0           DB 192
   \   00025E   08           DB 8
   \   00025F   80           DB 128
   \   000260   08           DB 8
   \   000261   80           DB 128
   \   000262   08           DB 8
   \   000263   80           DB 128
   \   000264   08           DB 8
   \   000265   80           DB 128
   \   000266   FF           DB 255
   \   000267   F8           DB 248
   \   000268   02           DB 2
   \   000269   00           DB 0
   \   00026A   02           DB 2
   \   00026B   00           DB 0
   \   00026C   7F           DB 127
   \   00026D   F0           DB 240
   \   00026E   04           DB 4
   \   00026F   00           DB 0
   \   000270   04           DB 4
   \   000271   00           DB 0
   \   000272   FF           DB 255
   \   000273   F8           DB 248
   \   000274   08           DB 8
   \   000275   00           DB 0
   \   000276   10           DB 16
   \   000277   00           DB 0
   \   000278   3F           DB 63
   \   000279   E0           DB 224
   \   00027A   00           DB 0
   \   00027B   20           DB 32
   \   00027C   00           DB 0
   \   00027D   40           DB 64
   \   00027E   1C           DB 28
   \   00027F   80           DB 128
   \   000280   03           DB 3
   \   000281   00           DB 0
   \   000282   00           DB 0
   \   000283   80           DB 128
   \   000284   01           DB 1
   \   000285   00           DB 0
   \   000286   40           DB 64
   \   000287   80           DB 128
   \   000288   20           DB 32
   \   000289   00           DB 0
   \   00028A   17           DB 23
   \   00028B   F0           DB 240
   \   00028C   00           DB 0
   \   00028D   80           DB 128
   \   00028E   80           DB 128
   \   00028F   80           DB 128
   \   000290   40           DB 64
   \   000291   80           DB 128
   \   000292   00           DB 0
   \   000293   80           DB 128
   \   000294   17           DB 23
   \   000295   F0           DB 240
   \   000296   10           DB 16
   \   000297   80           DB 128
   \   000298   20           DB 32
   \   000299   80           DB 128
   \   00029A   20           DB 32
   \   00029B   80           DB 128
   \   00029C   40           DB 64
   \   00029D   80           DB 128
   \   00029E   4F           DB 79
   \   00029F   F8           DB 248
   \   0002A0   00           DB 0
   \   0002A1   00           DB 0
   \   0002A2   7F           DB 127
   \   0002A3   F0           DB 240
   \   0002A4   02           DB 2
   \   0002A5   00           DB 0
   \   0002A6   02           DB 2
   \   0002A7   00           DB 0
   \   0002A8   02           DB 2
   \   0002A9   00           DB 0
   \   0002AA   02           DB 2
   \   0002AB   00           DB 0
   \   0002AC   FF           DB 255
   \   0002AD   F8           DB 248
   \   0002AE   05           DB 5
   \   0002AF   00           DB 0
   \   0002B0   05           DB 5
   \   0002B1   00           DB 0
   \   0002B2   09           DB 9
   \   0002B3   00           DB 0
   \   0002B4   11           DB 17
   \   0002B5   00           DB 0
   \   0002B6   21           DB 33
   \   0002B7   08           DB 8
   \   0002B8   41           DB 65
   \   0002B9   08           DB 8
   \   0002BA   80           DB 128
   \   0002BB   F8           DB 248
   \   0002BC   20           DB 32
   \   0002BD   A0           DB 160
   \   0002BE   20           DB 32
   \   0002BF   90           DB 144
   \   0002C0   48           DB 72
   \   0002C1   80           DB 128
   \   0002C2   48           DB 72
   \   0002C3   F0           DB 240
   \   0002C4   F3           DB 243
   \   0002C5   80           DB 128
   \   0002C6   10           DB 16
   \   0002C7   80           DB 128
   \   0002C8   20           DB 32
   \   0002C9   B8           DB 184
   \   0002CA   43           DB 67
   \   0002CB   C0           DB 192
   \   0002CC   F8           DB 248
   \   0002CD   90           DB 144
   \   0002CE   00           DB 0
   \   0002CF   A0           DB 160
   \   0002D0   00           DB 0
   \   0002D1   48           DB 72
   \   0002D2   18           DB 24
   \   0002D3   A8           DB 168
   \   0002D4   E3           DB 227
   \   0002D5   18           DB 24
   \   0002D6   00           DB 0
   \   0002D7   08           DB 8
   \   0002D8   47           DB 71
   \   0002D9   F0           DB 240
   \   0002DA   21           DB 33
   \   0002DB   20           DB 32
   \   0002DC   20           DB 32
   \   0002DD   C0           DB 192
   \   0002DE   07           DB 7
   \   0002DF   F0           DB 240
   \   0002E0   04           DB 4
   \   0002E1   90           DB 144
   \   0002E2   E4           DB 228
   \   0002E3   90           DB 144
   \   0002E4   27           DB 39
   \   0002E5   F0           DB 240
   \   0002E6   24           DB 36
   \   0002E7   90           DB 144
   \   0002E8   24           DB 36
   \   0002E9   90           DB 144
   \   0002EA   27           DB 39
   \   0002EB   F0           DB 240
   \   0002EC   24           DB 36
   \   0002ED   90           DB 144
   \   0002EE   24           DB 36
   \   0002EF   B0           DB 176
   \   0002F0   50           DB 80
   \   0002F1   00           DB 0
   \   0002F2   8F           DB 143
   \   0002F3   F8           DB 248
   \   0002F4   40           DB 64
   \   0002F5   00           DB 0
   \   0002F6   2F           DB 47
   \   0002F7   E0           DB 224
   \   0002F8   22           DB 34
   \   0002F9   20           DB 32
   \   0002FA   02           DB 2
   \   0002FB   20           DB 32
   \   0002FC   02           DB 2
   \   0002FD   20           DB 32
   \   0002FE   E2           DB 226
   \   0002FF   20           DB 32
   \   000300   2F           DB 47
   \   000301   E0           DB 224
   \   000302   22           DB 34
   \   000303   20           DB 32
   \   000304   22           DB 34
   \   000305   20           DB 32
   \   000306   22           DB 34
   \   000307   28           DB 40
   \   000308   2A           DB 42
   \   000309   28           DB 40
   \   00030A   32           DB 50
   \   00030B   28           DB 40
   \   00030C   22           DB 34
   \   00030D   18           DB 24
   \   00030E   02           DB 2
   \   00030F   08           DB 8
   \   000310   40           DB 64
   \   000311   50           DB 80
   \   000312   20           DB 32
   \   000313   48           DB 72
   \   000314   20           DB 32
   \   000315   40           DB 64
   \   000316   07           DB 7
   \   000317   F8           DB 248
   \   000318   E4           DB 228
   \   000319   40           DB 64
   \   00031A   24           DB 36
   \   00031B   48           DB 72
   \   00031C   27           DB 39
   \   00031D   48           DB 72
   \   00031E   25           DB 37
   \   00031F   50           DB 80
   \   000320   25           DB 37
   \   000321   50           DB 80
   \   000322   2D           DB 45
   \   000323   20           DB 32
   \   000324   35           DB 53
   \   000325   28           DB 40
   \   000326   2B           DB 43
   \   000327   68           DB 104
   \   000328   08           DB 8
   \   000329   98           DB 152
   \   00032A   11           DB 17
   \   00032B   08           DB 8
   \   00032C   11           DB 17
   \   00032D   00           DB 0
   \   00032E   10           DB 16
   \   00032F   80           DB 128
   \   000330   2F           DB 47
   \   000331   F8           DB 248
   \   000332   20           DB 32
   \   000333   00           DB 0
   \   000334   67           DB 103
   \   000335   F0           DB 240
   \   000336   A0           DB 160
   \   000337   00           DB 0
   \   000338   27           DB 39
   \   000339   F0           DB 240
   \   00033A   20           DB 32
   \   00033B   00           DB 0
   \   00033C   27           DB 39
   \   00033D   F0           DB 240
   \   00033E   24           DB 36
   \   00033F   10           DB 16
   \   000340   24           DB 36
   \   000341   10           DB 16
   \   000342   24           DB 36
   \   000343   10           DB 16
   \   000344   27           DB 39
   \   000345   F0           DB 240
   \   000346   24           DB 36
   \   000347   10           DB 16
   \   000348   04           DB 4
   \   000349   00           DB 0
   \   00034A   02           DB 2
   \   00034B   00           DB 0
   \   00034C   00           DB 0
   \   00034D   00           DB 0
   \   00034E   7F           DB 127
   \   00034F   F0           DB 240
   \   000350   00           DB 0
   \   000351   00           DB 0
   \   000352   00           DB 0
   \   000353   00           DB 0
   \   000354   00           DB 0
   \   000355   20           DB 32
   \   000356   20           DB 32
   \   000357   20           DB 32
   \   000358   10           DB 16
   \   000359   40           DB 64
   \   00035A   10           DB 16
   \   00035B   40           DB 64
   \   00035C   08           DB 8
   \   00035D   80           DB 128
   \   00035E   08           DB 8
   \   00035F   80           DB 128
   \   000360   01           DB 1
   \   000361   00           DB 0
   \   000362   FF           DB 255
   \   000363   F8           DB 248
   \   000364   00           DB 0
   \   000365   00           DB 0
   \   000366   3F           DB 63
   \   000367   E0           DB 224
   \   000368   20           DB 32
   \   000369   20           DB 32
   \   00036A   20           DB 32
   \   00036B   20           DB 32
   \   00036C   20           DB 32
   \   00036D   20           DB 32
   \   00036E   3F           DB 63
   \   00036F   E0           DB 224
   \   000370   02           DB 2
   \   000371   00           DB 0
   \   000372   02           DB 2
   \   000373   00           DB 0
   \   000374   22           DB 34
   \   000375   00           DB 0
   \   000376   23           DB 35
   \   000377   F0           DB 240
   \   000378   22           DB 34
   \   000379   00           DB 0
   \   00037A   22           DB 34
   \   00037B   00           DB 0
   \   00037C   52           DB 82
   \   00037D   00           DB 0
   \   00037E   8F           DB 143
   \   00037F   F8           DB 248
   \   000380   10           DB 16
   \   000381   10           DB 16
   \   000382   10           DB 16
   \   000383   10           DB 16
   \   000384   28           DB 40
   \   000385   10           DB 16
   \   000386   24           DB 36
   \   000387   90           DB 144
   \   000388   42           DB 66
   \   000389   90           DB 144
   \   00038A   80           DB 128
   \   00038B   90           DB 144
   \   00038C   7C           DB 124
   \   00038D   90           DB 144
   \   00038E   44           DB 68
   \   00038F   90           DB 144
   \   000390   44           DB 68
   \   000391   90           DB 144
   \   000392   44           DB 68
   \   000393   90           DB 144
   \   000394   58           DB 88
   \   000395   10           DB 16
   \   000396   42           DB 66
   \   000397   10           DB 16
   \   000398   42           DB 66
   \   000399   10           DB 16
   \   00039A   3E           DB 62
   \   00039B   70           DB 112
   \   00039C   20           DB 32
   \   00039D   18           DB 24
   \   00039E   10           DB 16
   \   00039F   E0           DB 224
   \   0003A0   FE           DB 254
   \   0003A1   80           DB 128
   \   0003A2   44           DB 68
   \   0003A3   80           DB 128
   \   0003A4   28           DB 40
   \   0003A5   80           DB 128
   \   0003A6   FE           DB 254
   \   0003A7   F8           DB 248
   \   0003A8   00           DB 0
   \   0003A9   90           DB 144
   \   0003AA   10           DB 16
   \   0003AB   90           DB 144
   \   0003AC   FE           DB 254
   \   0003AD   90           DB 144
   \   0003AE   10           DB 16
   \   0003AF   90           DB 144
   \   0003B0   54           DB 84
   \   0003B1   90           DB 144
   \   0003B2   92           DB 146
   \   0003B3   90           DB 144
   \   0003B4   11           DB 17
   \   0003B5   10           DB 16
   \   0003B6   72           DB 114
   \   0003B7   10           DB 16
   \   0003B8   00           DB 0
   \   0003B9   80           DB 128
   \   0003BA   FE           DB 254
   \   0003BB   80           DB 128
   \   0003BC   10           DB 16
   \   0003BD   80           DB 128
   \   0003BE   24           DB 36
   \   0003BF   F8           DB 248
   \   0003C0   43           DB 67
   \   0003C1   10           DB 16
   \   0003C2   FE           DB 254
   \   0003C3   90           DB 144
   \   0003C4   12           DB 18
   \   0003C5   90           DB 144
   \   0003C6   10           DB 16
   \   0003C7   90           DB 144
   \   0003C8   FE           DB 254
   \   0003C9   A0           DB 160
   \   0003CA   10           DB 16
   \   0003CB   A0           DB 160
   \   0003CC   10           DB 16
   \   0003CD   40           DB 64
   \   0003CE   1E           DB 30
   \   0003CF   A0           DB 160
   \   0003D0   F1           DB 241
   \   0003D1   10           DB 16
   \   0003D2   02           DB 2
   \   0003D3   08           DB 8
   \   0003D4   00           DB 0
   \   0003D5   00           DB 0
   \   0003D6   47           DB 71
   \   0003D7   E0           DB 224
   \   0003D8   20           DB 32
   \   0003D9   00           DB 0
   \   0003DA   20           DB 32
   \   0003DB   00           DB 0
   \   0003DC   00           DB 0
   \   0003DD   00           DB 0
   \   0003DE   0F           DB 15
   \   0003DF   F0           DB 240
   \   0003E0   E2           DB 226
   \   0003E1   40           DB 64
   \   0003E2   22           DB 34
   \   0003E3   40           DB 64
   \   0003E4   22           DB 34
   \   0003E5   40           DB 64
   \   0003E6   22           DB 34
   \   0003E7   48           DB 72
   \   0003E8   24           DB 36
   \   0003E9   48           DB 72
   \   0003EA   28           DB 40
   \   0003EB   38           DB 56
   \   0003EC   50           DB 80
   \   0003ED   00           DB 0
   \   0003EE   8F           DB 143
   \   0003EF   F8           DB 248
   \   0003F0   00           DB 0
   \   0003F1   00           DB 0
   \   0003F2   F3           DB 243
   \   0003F3   E0           DB 224
   \   0003F4   12           DB 18
   \   0003F5   20           DB 32
   \   0003F6   12           DB 18
   \   0003F7   20           DB 32
   \   0003F8   F3           DB 243
   \   0003F9   E0           DB 224
   \   0003FA   80           DB 128
   \   0003FB   80           DB 128
   \   0003FC   87           DB 135
   \   0003FD   F0           DB 240
   \   0003FE   84           DB 132
   \   0003FF   90           DB 144
   \   000400   F4           DB 244
   \   000401   90           DB 144
   \   000402   17           DB 23
   \   000403   F0           DB 240
   \   000404   10           DB 16
   \   000405   80           DB 128
   \   000406   10           DB 16
   \   000407   90           DB 144
   \   000408   1F           DB 31
   \   000409   F8           DB 248
   \   00040A   60           DB 96
   \   00040B   08           DB 8
   \   00040C   02           DB 2
   \   00040D   00           DB 0
   \   00040E   02           DB 2
   \   00040F   00           DB 0
   \   000410   02           DB 2
   \   000411   00           DB 0
   \   000412   02           DB 2
   \   000413   00           DB 0
   \   000414   FF           DB 255
   \   000415   F8           DB 248
   \   000416   02           DB 2
   \   000417   00           DB 0
   \   000418   05           DB 5
   \   000419   00           DB 0
   \   00041A   05           DB 5
   \   00041B   00           DB 0
   \   00041C   05           DB 5
   \   00041D   00           DB 0
   \   00041E   08           DB 8
   \   00041F   80           DB 128
   \   000420   08           DB 8
   \   000421   80           DB 128
   \   000422   10           DB 16
   \   000423   40           DB 64
   \   000424   20           DB 32
   \   000425   20           DB 32
   \   000426   C0           DB 192
   \   000427   18           DB 24
   \   000428   3F           DB 63
   \   000429   F8           DB 248
   \   00042A   20           DB 32
   \   00042B   80           DB 128
   \   00042C   21           DB 33
   \   00042D   00           DB 0
   \   00042E   27           DB 39
   \   00042F   F0           DB 240
   \   000430   24           DB 36
   \   000431   10           DB 16
   \   000432   27           DB 39
   \   000433   F0           DB 240
   \   000434   24           DB 36
   \   000435   10           DB 16
   \   000436   27           DB 39
   \   000437   F0           DB 240
   \   000438   20           DB 32
   \   000439   80           DB 128
   \   00043A   24           DB 36
   \   00043B   90           DB 144
   \   00043C   24           DB 36
   \   00043D   88           DB 136
   \   00043E   48           DB 72
   \   00043F   88           DB 136
   \   000440   40           DB 64
   \   000441   80           DB 128
   \   000442   83           DB 131
   \   000443   80           DB 128
   \   000444   00           DB 0
   \   000445   00           DB 0
   \   000446   00           DB 0
   \   000447   00           DB 0
   \   000448   00           DB 0
   \   000449   00           DB 0
   \   00044A   00           DB 0
   \   00044B   00           DB 0
   \   00044C   00           DB 0
   \   00044D   00           DB 0
   \   00044E   00           DB 0
   \   00044F   00           DB 0
   \   000450   18           DB 24
   \   000451   00           DB 0
   \   000452   18           DB 24
   \   000453   00           DB 0
   \   000454   00           DB 0
   \   000455   00           DB 0
   \   000456   00           DB 0
   \   000457   00           DB 0
   \   000458   18           DB 24
   \   000459   00           DB 0
   \   00045A   18           DB 24
   \   00045B   00           DB 0
   \   00045C   00           DB 0
   \   00045D   00           DB 0
   \   00045E   00           DB 0
   \   00045F   00           DB 0
    127          {
    128          0x00,0x00,0x4F,0xF8,0x28,0x08,0x02,0x20,0x84,0x10,0x48,0x88,0x00,0x80,0x2F,0xF8,
    129          0x21,0xC0,0x42,0xA0,0x42,0xA0,0x84,0x90,0x88,0x88,0x00,0x80,/*"深",0*/
    130          
    131          0x22,0x08,0x22,0x48,0x22,0x48,0x22,0x48,0xFA,0x48,0x22,0x48,0x22,0x48,0x22,0x48,
    132          0x22,0x48,0x3A,0x48,0xE2,0x48,0x02,0x48,0x02,0x08,0x04,0x08,/*"圳",1*/
    133          
    134          0x04,0x00,0x02,0x00,0xFF,0xF8,0x02,0x00,0x02,0x00,0x7F,0xF0,0x42,0x10,0x42,0x10,
    135          0x42,0x10,0x42,0x10,0x42,0x10,0x42,0x70,0x02,0x00,0x02,0x00,/*"市",2*/
    136          
    137          0x04,0x00,0x02,0x00,0xFF,0xF8,0x80,0x08,0x84,0x08,0x04,0x00,0xFF,0xF8,0x08,0x40,
    138          0x10,0x40,0x3C,0x80,0x03,0x00,0x04,0xC0,0x18,0x20,0xE0,0x10,/*"安",3*/
    139          
    140          0x01,0x10,0xFC,0xA0,0x48,0x00,0x49,0xF0,0x78,0x40,0x48,0x40,0x48,0x40,0x7B,0xF8,
    141          0x48,0x40,0x48,0x40,0x5C,0xA0,0xE8,0xA0,0x09,0x10,0x0A,0x08,/*"联",4*/
    142          
    143          0x10,0x80,0x27,0xF8,0x40,0x80,0x97,0xF0,0x15,0x50,0x25,0x50,0x67,0xF0,0xA0,0x00,
    144          0x27,0xF0,0x21,0x00,0x20,0x90,0x2A,0x88,0x2A,0x28,0x31,0xE0,/*"德",5*/
    145          
    146          0x00,0x20,0x0D,0x20,0x70,0xA0,0x10,0xA0,0x12,0x20,0xFD,0x20,0x11,0x20,0x30,0x38,
    147          0x3B,0xE0,0x54,0x20,0x90,0x20,0x10,0x20,0x10,0x20,0x10,0x20,/*"科",6*/
    148          
    149          0x20,0x80,0x20,0x80,0x20,0x80,0xF7,0xF0,0x20,0x80,0x20,0x80,0x27,0xE0,0x32,0x20,
    150          0xE2,0x20,0x21,0x40,0x20,0x80,0x21,0x40,0x22,0x20,0xEC,0x18,/*"技",7*/
    151          
    152          0x00,0x00,0x3F,0xF8,0x21,0x08,0x21,0x08,0x21,0x08,0x3F,0xF8,0x21,0x08,0x21,0x08,
    153          0x3F,0xF8,0x21,0x08,0x21,0x08,0x41,0x08,0x41,0x08,0x80,0x38,/*"用",8*/
    154          
    155          0x02,0x00,0x01,0x00,0x3F,0xF8,0x20,0x08,0x20,0x08,0x20,0x08,0x3F,0xF8,0x20,0x08,
    156          0x20,0x00,0x20,0x00,0x20,0x00,0x40,0x00,0x40,0x00,0x80,0x00,/*"户",9*/
    157          
    158          0x01,0x20,0x7D,0x40,0x04,0x90,0x28,0xA0,0x10,0x40,0x2F,0xA0,0x40,0x18,0x9F,0xC0,
    159          0x10,0x40,0x10,0x40,0x1F,0xC0,0x10,0x40,0x08,0x80,0xFF,0xF8,/*"登",10*/
    160          
    161          0x00,0x00,0x7F,0xE0,0x00,0x20,0x3F,0xE0,0x00,0x20,0xFF,0xF8,0x02,0x00,0x22,0x20,
    162          0x13,0x40,0x0A,0x80,0x12,0x40,0x22,0x20,0xC2,0x18,0x0E,0x00,/*"录",11*/
    163          
    164          0x21,0x00,0x21,0x10,0x21,0x10,0xF9,0x20,0xA9,0x40,0xA9,0x00,0xAB,0xF8,0xA9,0x40,
    165          0xA9,0x40,0xA9,0x20,0xB9,0x20,0x21,0x50,0x21,0x88,0x21,0x00,/*"帐",12*/
    166          
    167          0x3F,0xE0,0x20,0x20,0x20,0x20,0x3F,0xE0,0x00,0x00,0x00,0x00,0xFF,0xF8,0x08,0x00,
    168          0x10,0x00,0x3F,0xE0,0x00,0x20,0x00,0x20,0x00,0x20,0x00,0xC0,/*"号",13*/
    169          
    170          0x02,0x00,0xFF,0xF8,0x80,0x08,0x04,0x40,0x52,0x90,0x51,0x08,0x92,0x28,0x0F,0xE0,
    171          0x30,0x00,0xC2,0x00,0x22,0x20,0x22,0x20,0x3F,0xE0,0x00,0x20,/*"密",14*/
    172          
    173          0x00,0x00,0x07,0xE0,0xF8,0x20,0x22,0x20,0x22,0x20,0x42,0x20,0x7B,0xF8,0xC8,0x08,
    174          0x48,0x08,0x4F,0xE8,0x48,0x08,0x78,0x08,0x48,0x08,0x00,0x30,/*"码",15*/
    175          
    176          0x01,0x00,0x01,0xF0,0xFA,0x10,0x24,0x20,0x23,0xF8,0x42,0x48,0x7A,0x48,0xCB,0xF8,
    177          0x4A,0x48,0x4A,0x48,0x4B,0xF8,0x7A,0x48,0x42,0x48,0x04,0x18,/*"确",16*/
    178          
    179          0x04,0x00,0x02,0x00,0xFF,0xF8,0x80,0x08,0x00,0x00,0x3F,0xE0,0x02,0x00,0x02,0x00,
    180          0x22,0x00,0x23,0xE0,0x22,0x00,0x22,0x00,0x52,0x00,0x8F,0xF8,/*"定",17*/
    181          
    182          0x00,0x00,0xFC,0x00,0x4B,0xF0,0x49,0x10,0x79,0x10,0x49,0x10,0x49,0x10,0x78,0xA0,
    183          0x48,0xA0,0x4E,0x40,0xF8,0x40,0x08,0xA0,0x09,0x10,0x0A,0x08,/*"取",18*/
    184          
    185          0x00,0x80,0x44,0x90,0x22,0xA0,0x10,0x80,0x07,0xF0,0x84,0x10,0x44,0x10,0x17,0xF0,
    186          0x14,0x10,0x24,0x10,0x27,0xF0,0x44,0x10,0x44,0x10,0x04,0x70,/*"消",19*/
    187          
    188          0x02,0x00,0x02,0x00,0x7F,0xF0,0x04,0x00,0x04,0x00,0xFF,0xF8,0x08,0x00,0x10,0x00,
    189          0x3F,0xE0,0x00,0x20,0x00,0x40,0x1C,0x80,0x03,0x00,0x00,0x80,/*"专",20*/
    190          
    191          0x08,0x80,0x08,0x80,0x08,0x80,0x88,0x90,0x48,0x90,0x48,0x90,0x28,0xA0,0x28,0xA0,
    192          0x28,0xC0,0x08,0x80,0x08,0x80,0x08,0x80,0x08,0x80,0xFF,0xF8,/*"业",21*/
    193          
    194          0x02,0x00,0x02,0x00,0x7F,0xF0,0x04,0x00,0x04,0x00,0xFF,0xF8,0x08,0x00,0x10,0x00,
    195          0x3F,0xE0,0x00,0x20,0x00,0x40,0x1C,0x80,0x03,0x00,0x00,0x80,/*"专",22*/
    196          
    197          0x01,0x00,0x40,0x80,0x20,0x00,0x17,0xF0,0x00,0x80,0x80,0x80,0x40,0x80,0x00,0x80,
    198          0x17,0xF0,0x10,0x80,0x20,0x80,0x20,0x80,0x40,0x80,0x4F,0xF8,/*"注",23*/
    199          
    200          0x00,0x00,0x7F,0xF0,0x02,0x00,0x02,0x00,0x02,0x00,0x02,0x00,0xFF,0xF8,0x05,0x00,
    201          0x05,0x00,0x09,0x00,0x11,0x00,0x21,0x08,0x41,0x08,0x80,0xF8,/*"无",24*/
    202          
    203          0x20,0xA0,0x20,0x90,0x48,0x80,0x48,0xF0,0xF3,0x80,0x10,0x80,0x20,0xB8,0x43,0xC0,
    204          0xF8,0x90,0x00,0xA0,0x00,0x48,0x18,0xA8,0xE3,0x18,0x00,0x08,/*"线",25*/
    205          
    206          0x47,0xF0,0x21,0x20,0x20,0xC0,0x07,0xF0,0x04,0x90,0xE4,0x90,0x27,0xF0,0x24,0x90,
    207          0x24,0x90,0x27,0xF0,0x24,0x90,0x24,0xB0,0x50,0x00,0x8F,0xF8,/*"通",26*/
    208          
    209          0x40,0x00,0x2F,0xE0,0x22,0x20,0x02,0x20,0x02,0x20,0xE2,0x20,0x2F,0xE0,0x22,0x20,
    210          0x22,0x20,0x22,0x28,0x2A,0x28,0x32,0x28,0x22,0x18,0x02,0x08,/*"讯",27*/
    211          
    212          0x40,0x50,0x20,0x48,0x20,0x40,0x07,0xF8,0xE4,0x40,0x24,0x48,0x27,0x48,0x25,0x50,
    213          0x25,0x50,0x2D,0x20,0x35,0x28,0x2B,0x68,0x08,0x98,0x11,0x08,/*"诚",28*/
    214          
    215          0x11,0x00,0x10,0x80,0x2F,0xF8,0x20,0x00,0x67,0xF0,0xA0,0x00,0x27,0xF0,0x20,0x00,
    216          0x27,0xF0,0x24,0x10,0x24,0x10,0x24,0x10,0x27,0xF0,0x24,0x10,/*"信",29*/
    217          
    218          0x04,0x00,0x02,0x00,0x00,0x00,0x7F,0xF0,0x00,0x00,0x00,0x00,0x00,0x20,0x20,0x20,
    219          0x10,0x40,0x10,0x40,0x08,0x80,0x08,0x80,0x01,0x00,0xFF,0xF8,/*"立",30*/
    220          
    221          0x00,0x00,0x3F,0xE0,0x20,0x20,0x20,0x20,0x20,0x20,0x3F,0xE0,0x02,0x00,0x02,0x00,
    222          0x22,0x00,0x23,0xF0,0x22,0x00,0x22,0x00,0x52,0x00,0x8F,0xF8,/*"足",31*/
    223          
    224          0x10,0x10,0x10,0x10,0x28,0x10,0x24,0x90,0x42,0x90,0x80,0x90,0x7C,0x90,0x44,0x90,
    225          0x44,0x90,0x44,0x90,0x58,0x10,0x42,0x10,0x42,0x10,0x3E,0x70,/*"创",32*/
    226          
    227          0x20,0x18,0x10,0xE0,0xFE,0x80,0x44,0x80,0x28,0x80,0xFE,0xF8,0x00,0x90,0x10,0x90,
    228          0xFE,0x90,0x10,0x90,0x54,0x90,0x92,0x90,0x11,0x10,0x72,0x10,/*"新",33*/
    229          
    230          0x00,0x80,0xFE,0x80,0x10,0x80,0x24,0xF8,0x43,0x10,0xFE,0x90,0x12,0x90,0x10,0x90,
    231          0xFE,0xA0,0x10,0xA0,0x10,0x40,0x1E,0xA0,0xF1,0x10,0x02,0x08,/*"致",34*/
    232          
    233          0x00,0x00,0x47,0xE0,0x20,0x00,0x20,0x00,0x00,0x00,0x0F,0xF0,0xE2,0x40,0x22,0x40,
    234          0x22,0x40,0x22,0x48,0x24,0x48,0x28,0x38,0x50,0x00,0x8F,0xF8,/*"远",35*/
    235          
    236          0x00,0x00,0xF3,0xE0,0x12,0x20,0x12,0x20,0xF3,0xE0,0x80,0x80,0x87,0xF0,0x84,0x90,
    237          0xF4,0x90,0x17,0xF0,0x10,0x80,0x10,0x90,0x1F,0xF8,0x60,0x08,/*"强",36*/
    238          
    239          0x02,0x00,0x02,0x00,0x02,0x00,0x02,0x00,0xFF,0xF8,0x02,0x00,0x05,0x00,0x05,0x00,
    240          0x05,0x00,0x08,0x80,0x08,0x80,0x10,0x40,0x20,0x20,0xC0,0x18,/*"大",37*/
    241          
    242          0x3F,0xF8,0x20,0x80,0x21,0x00,0x27,0xF0,0x24,0x10,0x27,0xF0,0x24,0x10,0x27,0xF0,
    243          0x20,0x80,0x24,0x90,0x24,0x88,0x48,0x88,0x40,0x80,0x83,0x80,/*"原",38*/
    244          
    245          0x00,0x00,0x00,0x00,0x00,0x00,0x00,0x00,0x00,0x00,0x00,0x00,0x18,0x00,0x18,0x00,
    246          0x00,0x00,0x00,0x00,0x18,0x00,0x18,0x00,0x00,0x00,0x00,0x00,/*"：",41*/
    247          
    248          };
    249          
    250          //英文7x14点阵字符 andy

   \                                 In  segment CODE_C, align 1
    251          __code const unsigned char ASCII7x14[][14] =
   \                     ASCII7x14:
   \   000000   00           DB 0
   \   000001   00           DB 0
   \   000002   00           DB 0
   \   000003   00           DB 0
   \   000004   00           DB 0
   \   000005   00           DB 0
   \   000006   00           DB 0
   \   000007   00           DB 0
   \   000008   00           DB 0
   \   000009   00           DB 0
   \   00000A   00           DB 0
   \   00000B   00           DB 0
   \   00000C   00           DB 0
   \   00000D   00           DB 0
   \   00000E   00           DB 0
   \   00000F   00           DB 0
   \   000010   10           DB 16
   \   000011   10           DB 16
   \   000012   10           DB 16
   \   000013   10           DB 16
   \   000014   10           DB 16
   \   000015   10           DB 16
   \   000016   00           DB 0
   \   000017   00           DB 0
   \   000018   30           DB 48
   \   000019   30           DB 48
   \   00001A   00           DB 0
   \   00001B   00           DB 0
   \   00001C   00           DB 0
   \   00001D   14           DB 20
   \   00001E   28           DB 40
   \   00001F   50           DB 80
   \   000020   00           DB 0
   \   000021   00           DB 0
   \   000022   00           DB 0
   \   000023   00           DB 0
   \   000024   00           DB 0
   \   000025   00           DB 0
   \   000026   00           DB 0
   \   000027   00           DB 0
   \   000028   00           DB 0
   \   000029   00           DB 0
   \   00002A   00           DB 0
   \   00002B   00           DB 0
   \   00002C   00           DB 0
   \   00002D   28           DB 40
   \   00002E   28           DB 40
   \   00002F   FC           DB 252
   \   000030   28           DB 40
   \   000031   48           DB 72
   \   000032   50           DB 80
   \   000033   FC           DB 252
   \   000034   50           DB 80
   \   000035   50           DB 80
   \   000036   00           DB 0
   \   000037   00           DB 0
   \   000038   00           DB 0
   \   000039   00           DB 0
   \   00003A   10           DB 16
   \   00003B   38           DB 56
   \   00003C   54           DB 84
   \   00003D   54           DB 84
   \   00003E   30           DB 48
   \   00003F   18           DB 24
   \   000040   14           DB 20
   \   000041   54           DB 84
   \   000042   54           DB 84
   \   000043   38           DB 56
   \   000044   10           DB 16
   \   000045   00           DB 0
   \   000046   00           DB 0
   \   000047   00           DB 0
   \   000048   00           DB 0
   \   000049   44           DB 68
   \   00004A   A8           DB 168
   \   00004B   A8           DB 168
   \   00004C   B0           DB 176
   \   00004D   54           DB 84
   \   00004E   1A           DB 26
   \   00004F   2A           DB 42
   \   000050   2A           DB 42
   \   000051   44           DB 68
   \   000052   00           DB 0
   \   000053   00           DB 0
   \   000054   00           DB 0
   \   000055   00           DB 0
   \   000056   00           DB 0
   \   000057   20           DB 32
   \   000058   50           DB 80
   \   000059   50           DB 80
   \   00005A   60           DB 96
   \   00005B   AC           DB 172
   \   00005C   A8           DB 168
   \   00005D   98           DB 152
   \   00005E   92           DB 146
   \   00005F   7C           DB 124
   \   000060   00           DB 0
   \   000061   00           DB 0
   \   000062   00           DB 0
   \   000063   60           DB 96
   \   000064   60           DB 96
   \   000065   20           DB 32
   \   000066   C0           DB 192
   \   000067   00           DB 0
   \   000068   00           DB 0
   \   000069   00           DB 0
   \   00006A   00           DB 0
   \   00006B   00           DB 0
   \   00006C   00           DB 0
   \   00006D   00           DB 0
   \   00006E   00           DB 0
   \   00006F   00           DB 0
   \   000070   00           DB 0
   \   000071   04           DB 4
   \   000072   08           DB 8
   \   000073   08           DB 8
   \   000074   10           DB 16
   \   000075   10           DB 16
   \   000076   10           DB 16
   \   000077   10           DB 16
   \   000078   10           DB 16
   \   000079   10           DB 16
   \   00007A   08           DB 8
   \   00007B   08           DB 8
   \   00007C   04           DB 4
   \   00007D   00           DB 0
   \   00007E   00           DB 0
   \   00007F   00           DB 0
   \   000080   40           DB 64
   \   000081   20           DB 32
   \   000082   10           DB 16
   \   000083   08           DB 8
   \   000084   04           DB 4
   \   000085   08           DB 8
   \   000086   10           DB 16
   \   000087   20           DB 32
   \   000088   40           DB 64
   \   000089   00           DB 0
   \   00008A   00           DB 0
   \   00008B   00           DB 0
   \   00008C   00           DB 0
   \   00008D   00           DB 0
   \   00008E   00           DB 0
   \   00008F   10           DB 16
   \   000090   10           DB 16
   \   000091   D6           DB 214
   \   000092   38           DB 56
   \   000093   38           DB 56
   \   000094   D6           DB 214
   \   000095   10           DB 16
   \   000096   10           DB 16
   \   000097   00           DB 0
   \   000098   00           DB 0
   \   000099   00           DB 0
   \   00009A   00           DB 0
   \   00009B   00           DB 0
   \   00009C   00           DB 0
   \   00009D   10           DB 16
   \   00009E   10           DB 16
   \   00009F   10           DB 16
   \   0000A0   FE           DB 254
   \   0000A1   10           DB 16
   \   0000A2   10           DB 16
   \   0000A3   10           DB 16
   \   0000A4   00           DB 0
   \   0000A5   00           DB 0
   \   0000A6   00           DB 0
   \   0000A7   00           DB 0
   \   0000A8   00           DB 0
   \   0000A9   00           DB 0
   \   0000AA   00           DB 0
   \   0000AB   00           DB 0
   \   0000AC   00           DB 0
   \   0000AD   00           DB 0
   \   0000AE   00           DB 0
   \   0000AF   00           DB 0
   \   0000B0   00           DB 0
   \   0000B1   00           DB 0
   \   0000B2   60           DB 96
   \   0000B3   60           DB 96
   \   0000B4   20           DB 32
   \   0000B5   C0           DB 192
   \   0000B6   00           DB 0
   \   0000B7   00           DB 0
   \   0000B8   00           DB 0
   \   0000B9   00           DB 0
   \   0000BA   00           DB 0
   \   0000BB   00           DB 0
   \   0000BC   FC           DB 252
   \   0000BD   00           DB 0
   \   0000BE   00           DB 0
   \   0000BF   00           DB 0
   \   0000C0   00           DB 0
   \   0000C1   00           DB 0
   \   0000C2   00           DB 0
   \   0000C3   00           DB 0
   \   0000C4   00           DB 0
   \   0000C5   00           DB 0
   \   0000C6   00           DB 0
   \   0000C7   00           DB 0
   \   0000C8   00           DB 0
   \   0000C9   00           DB 0
   \   0000CA   00           DB 0
   \   0000CB   00           DB 0
   \   0000CC   00           DB 0
   \   0000CD   00           DB 0
   \   0000CE   60           DB 96
   \   0000CF   60           DB 96
   \   0000D0   00           DB 0
   \   0000D1   00           DB 0
   \   0000D2   00           DB 0
   \   0000D3   02           DB 2
   \   0000D4   04           DB 4
   \   0000D5   04           DB 4
   \   0000D6   04           DB 4
   \   0000D7   08           DB 8
   \   0000D8   08           DB 8
   \   0000D9   10           DB 16
   \   0000DA   10           DB 16
   \   0000DB   20           DB 32
   \   0000DC   20           DB 32
   \   0000DD   20           DB 32
   \   0000DE   40           DB 64
   \   0000DF   00           DB 0
   \   0000E0   00           DB 0
   \   0000E1   00           DB 0
   \   0000E2   00           DB 0
   \   0000E3   30           DB 48
   \   0000E4   48           DB 72
   \   0000E5   84           DB 132
   \   0000E6   84           DB 132
   \   0000E7   84           DB 132
   \   0000E8   84           DB 132
   \   0000E9   84           DB 132
   \   0000EA   48           DB 72
   \   0000EB   30           DB 48
   \   0000EC   00           DB 0
   \   0000ED   00           DB 0
   \   0000EE   00           DB 0
   \   0000EF   00           DB 0
   \   0000F0   00           DB 0
   \   0000F1   10           DB 16
   \   0000F2   70           DB 112
   \   0000F3   10           DB 16
   \   0000F4   10           DB 16
   \   0000F5   10           DB 16
   \   0000F6   10           DB 16
   \   0000F7   10           DB 16
   \   0000F8   10           DB 16
   \   0000F9   7C           DB 124
   \   0000FA   00           DB 0
   \   0000FB   00           DB 0
   \   0000FC   00           DB 0
   \   0000FD   00           DB 0
   \   0000FE   00           DB 0
   \   0000FF   38           DB 56
   \   000100   44           DB 68
   \   000101   44           DB 68
   \   000102   04           DB 4
   \   000103   08           DB 8
   \   000104   10           DB 16
   \   000105   20           DB 32
   \   000106   44           DB 68
   \   000107   7C           DB 124
   \   000108   00           DB 0
   \   000109   00           DB 0
   \   00010A   00           DB 0
   \   00010B   00           DB 0
   \   00010C   00           DB 0
   \   00010D   38           DB 56
   \   00010E   44           DB 68
   \   00010F   44           DB 68
   \   000110   18           DB 24
   \   000111   04           DB 4
   \   000112   04           DB 4
   \   000113   44           DB 68
   \   000114   44           DB 68
   \   000115   38           DB 56
   \   000116   00           DB 0
   \   000117   00           DB 0
   \   000118   00           DB 0
   \   000119   00           DB 0
   \   00011A   08           DB 8
   \   00011B   08           DB 8
   \   00011C   18           DB 24
   \   00011D   28           DB 40
   \   00011E   48           DB 72
   \   00011F   48           DB 72
   \   000120   88           DB 136
   \   000121   7C           DB 124
   \   000122   08           DB 8
   \   000123   1C           DB 28
   \   000124   00           DB 0
   \   000125   00           DB 0
   \   000126   00           DB 0
   \   000127   00           DB 0
   \   000128   00           DB 0
   \   000129   7C           DB 124
   \   00012A   40           DB 64
   \   00012B   40           DB 64
   \   00012C   78           DB 120
   \   00012D   44           DB 68
   \   00012E   04           DB 4
   \   00012F   44           DB 68
   \   000130   44           DB 68
   \   000131   38           DB 56
   \   000132   00           DB 0
   \   000133   00           DB 0
   \   000134   00           DB 0
   \   000135   00           DB 0
   \   000136   00           DB 0
   \   000137   3C           DB 60
   \   000138   44           DB 68
   \   000139   80           DB 128
   \   00013A   B8           DB 184
   \   00013B   C4           DB 196
   \   00013C   84           DB 132
   \   00013D   84           DB 132
   \   00013E   84           DB 132
   \   00013F   78           DB 120
   \   000140   00           DB 0
   \   000141   00           DB 0
   \   000142   00           DB 0
   \   000143   00           DB 0
   \   000144   00           DB 0
   \   000145   7C           DB 124
   \   000146   44           DB 68
   \   000147   48           DB 72
   \   000148   08           DB 8
   \   000149   10           DB 16
   \   00014A   10           DB 16
   \   00014B   10           DB 16
   \   00014C   10           DB 16
   \   00014D   10           DB 16
   \   00014E   00           DB 0
   \   00014F   00           DB 0
   \   000150   00           DB 0
   \   000151   00           DB 0
   \   000152   00           DB 0
   \   000153   78           DB 120
   \   000154   84           DB 132
   \   000155   84           DB 132
   \   000156   48           DB 72
   \   000157   78           DB 120
   \   000158   84           DB 132
   \   000159   84           DB 132
   \   00015A   84           DB 132
   \   00015B   78           DB 120
   \   00015C   00           DB 0
   \   00015D   00           DB 0
   \   00015E   00           DB 0
   \   00015F   00           DB 0
   \   000160   00           DB 0
   \   000161   78           DB 120
   \   000162   84           DB 132
   \   000163   84           DB 132
   \   000164   84           DB 132
   \   000165   8C           DB 140
   \   000166   74           DB 116
   \   000167   04           DB 4
   \   000168   88           DB 136
   \   000169   F0           DB 240
   \   00016A   00           DB 0
   \   00016B   00           DB 0
   \   00016C   00           DB 0
   \   00016D   00           DB 0
   \   00016E   00           DB 0
   \   00016F   00           DB 0
   \   000170   00           DB 0
   \   000171   30           DB 48
   \   000172   30           DB 48
   \   000173   00           DB 0
   \   000174   00           DB 0
   \   000175   00           DB 0
   \   000176   30           DB 48
   \   000177   30           DB 48
   \   000178   00           DB 0
   \   000179   00           DB 0
   \   00017A   00           DB 0
   \   00017B   00           DB 0
   \   00017C   00           DB 0
   \   00017D   00           DB 0
   \   00017E   00           DB 0
   \   00017F   00           DB 0
   \   000180   10           DB 16
   \   000181   00           DB 0
   \   000182   00           DB 0
   \   000183   00           DB 0
   \   000184   00           DB 0
   \   000185   10           DB 16
   \   000186   10           DB 16
   \   000187   20           DB 32
   \   000188   00           DB 0
   \   000189   00           DB 0
   \   00018A   04           DB 4
   \   00018B   08           DB 8
   \   00018C   10           DB 16
   \   00018D   20           DB 32
   \   00018E   40           DB 64
   \   00018F   20           DB 32
   \   000190   10           DB 16
   \   000191   08           DB 8
   \   000192   04           DB 4
   \   000193   00           DB 0
   \   000194   00           DB 0
   \   000195   00           DB 0
   \   000196   00           DB 0
   \   000197   00           DB 0
   \   000198   00           DB 0
   \   000199   00           DB 0
   \   00019A   00           DB 0
   \   00019B   FC           DB 252
   \   00019C   00           DB 0
   \   00019D   00           DB 0
   \   00019E   FC           DB 252
   \   00019F   00           DB 0
   \   0001A0   00           DB 0
   \   0001A1   00           DB 0
   \   0001A2   00           DB 0
   \   0001A3   00           DB 0
   \   0001A4   00           DB 0
   \   0001A5   00           DB 0
   \   0001A6   40           DB 64
   \   0001A7   20           DB 32
   \   0001A8   10           DB 16
   \   0001A9   08           DB 8
   \   0001AA   04           DB 4
   \   0001AB   08           DB 8
   \   0001AC   10           DB 16
   \   0001AD   20           DB 32
   \   0001AE   40           DB 64
   \   0001AF   00           DB 0
   \   0001B0   00           DB 0
   \   0001B1   00           DB 0
   \   0001B2   00           DB 0
   \   0001B3   00           DB 0
   \   0001B4   78           DB 120
   \   0001B5   84           DB 132
   \   0001B6   84           DB 132
   \   0001B7   84           DB 132
   \   0001B8   08           DB 8
   \   0001B9   10           DB 16
   \   0001BA   10           DB 16
   \   0001BB   00           DB 0
   \   0001BC   30           DB 48
   \   0001BD   30           DB 48
   \   0001BE   00           DB 0
   \   0001BF   00           DB 0
   \   0001C0   00           DB 0
   \   0001C1   00           DB 0
   \   0001C2   00           DB 0
   \   0001C3   38           DB 56
   \   0001C4   44           DB 68
   \   0001C5   9A           DB 154
   \   0001C6   AA           DB 170
   \   0001C7   AA           DB 170
   \   0001C8   AA           DB 170
   \   0001C9   B4           DB 180
   \   0001CA   42           DB 66
   \   0001CB   3C           DB 60
   \   0001CC   00           DB 0
   \   0001CD   00           DB 0
   \   0001CE   00           DB 0
   \   0001CF   00           DB 0
   \   0001D0   00           DB 0
   \   0001D1   10           DB 16
   \   0001D2   10           DB 16
   \   0001D3   28           DB 40
   \   0001D4   28           DB 40
   \   0001D5   28           DB 40
   \   0001D6   38           DB 56
   \   0001D7   44           DB 68
   \   0001D8   44           DB 68
   \   0001D9   EE           DB 238
   \   0001DA   00           DB 0
   \   0001DB   00           DB 0
   \   0001DC   00           DB 0
   \   0001DD   00           DB 0
   \   0001DE   00           DB 0
   \   0001DF   F8           DB 248
   \   0001E0   44           DB 68
   \   0001E1   44           DB 68
   \   0001E2   78           DB 120
   \   0001E3   44           DB 68
   \   0001E4   44           DB 68
   \   0001E5   44           DB 68
   \   0001E6   44           DB 68
   \   0001E7   F8           DB 248
   \   0001E8   00           DB 0
   \   0001E9   00           DB 0
   \   0001EA   00           DB 0
   \   0001EB   00           DB 0
   \   0001EC   00           DB 0
   \   0001ED   3C           DB 60
   \   0001EE   44           DB 68
   \   0001EF   84           DB 132
   \   0001F0   80           DB 128
   \   0001F1   80           DB 128
   \   0001F2   80           DB 128
   \   0001F3   80           DB 128
   \   0001F4   44           DB 68
   \   0001F5   38           DB 56
   \   0001F6   00           DB 0
   \   0001F7   00           DB 0
   \   0001F8   00           DB 0
   \   0001F9   00           DB 0
   \   0001FA   00           DB 0
   \   0001FB   F0           DB 240
   \   0001FC   48           DB 72
   \   0001FD   44           DB 68
   \   0001FE   44           DB 68
   \   0001FF   44           DB 68
   \   000200   44           DB 68
   \   000201   44           DB 68
   \   000202   48           DB 72
   \   000203   F0           DB 240
   \   000204   00           DB 0
   \   000205   00           DB 0
   \   000206   00           DB 0
   \   000207   00           DB 0
   \   000208   00           DB 0
   \   000209   FC           DB 252
   \   00020A   44           DB 68
   \   00020B   40           DB 64
   \   00020C   48           DB 72
   \   00020D   78           DB 120
   \   00020E   48           DB 72
   \   00020F   40           DB 64
   \   000210   44           DB 68
   \   000211   FC           DB 252
   \   000212   00           DB 0
   \   000213   00           DB 0
   \   000214   00           DB 0
   \   000215   00           DB 0
   \   000216   00           DB 0
   \   000217   FC           DB 252
   \   000218   42           DB 66
   \   000219   40           DB 64
   \   00021A   48           DB 72
   \   00021B   78           DB 120
   \   00021C   48           DB 72
   \   00021D   40           DB 64
   \   00021E   40           DB 64
   \   00021F   E0           DB 224
   \   000220   00           DB 0
   \   000221   00           DB 0
   \   000222   00           DB 0
   \   000223   00           DB 0
   \   000224   00           DB 0
   \   000225   3C           DB 60
   \   000226   44           DB 68
   \   000227   84           DB 132
   \   000228   80           DB 128
   \   000229   80           DB 128
   \   00022A   8E           DB 142
   \   00022B   84           DB 132
   \   00022C   44           DB 68
   \   00022D   38           DB 56
   \   00022E   00           DB 0
   \   00022F   00           DB 0
   \   000230   00           DB 0
   \   000231   00           DB 0
   \   000232   00           DB 0
   \   000233   EE           DB 238
   \   000234   44           DB 68
   \   000235   44           DB 68
   \   000236   44           DB 68
   \   000237   7C           DB 124
   \   000238   44           DB 68
   \   000239   44           DB 68
   \   00023A   44           DB 68
   \   00023B   EE           DB 238
   \   00023C   00           DB 0
   \   00023D   00           DB 0
   \   00023E   00           DB 0
   \   00023F   00           DB 0
   \   000240   00           DB 0
   \   000241   7C           DB 124
   \   000242   10           DB 16
   \   000243   10           DB 16
   \   000244   10           DB 16
   \   000245   10           DB 16
   \   000246   10           DB 16
   \   000247   10           DB 16
   \   000248   10           DB 16
   \   000249   7C           DB 124
   \   00024A   00           DB 0
   \   00024B   00           DB 0
   \   00024C   00           DB 0
   \   00024D   00           DB 0
   \   00024E   00           DB 0
   \   00024F   7C           DB 124
   \   000250   10           DB 16
   \   000251   10           DB 16
   \   000252   10           DB 16
   \   000253   10           DB 16
   \   000254   10           DB 16
   \   000255   10           DB 16
   \   000256   10           DB 16
   \   000257   10           DB 16
   \   000258   90           DB 144
   \   000259   E0           DB 224
   \   00025A   00           DB 0
   \   00025B   00           DB 0
   \   00025C   00           DB 0
   \   00025D   EE           DB 238
   \   00025E   44           DB 68
   \   00025F   48           DB 72
   \   000260   50           DB 80
   \   000261   70           DB 112
   \   000262   48           DB 72
   \   000263   48           DB 72
   \   000264   44           DB 68
   \   000265   EE           DB 238
   \   000266   00           DB 0
   \   000267   00           DB 0
   \   000268   00           DB 0
   \   000269   00           DB 0
   \   00026A   00           DB 0
   \   00026B   E0           DB 224
   \   00026C   40           DB 64
   \   00026D   40           DB 64
   \   00026E   40           DB 64
   \   00026F   40           DB 64
   \   000270   40           DB 64
   \   000271   40           DB 64
   \   000272   44           DB 68
   \   000273   FC           DB 252
   \   000274   00           DB 0
   \   000275   00           DB 0
   \   000276   00           DB 0
   \   000277   00           DB 0
   \   000278   00           DB 0
   \   000279   EE           DB 238
   \   00027A   6C           DB 108
   \   00027B   6C           DB 108
   \   00027C   6C           DB 108
   \   00027D   54           DB 84
   \   00027E   54           DB 84
   \   00027F   54           DB 84
   \   000280   54           DB 84
   \   000281   D6           DB 214
   \   000282   00           DB 0
   \   000283   00           DB 0
   \   000284   00           DB 0
   \   000285   00           DB 0
   \   000286   00           DB 0
   \   000287   EE           DB 238
   \   000288   64           DB 100
   \   000289   64           DB 100
   \   00028A   54           DB 84
   \   00028B   54           DB 84
   \   00028C   54           DB 84
   \   00028D   4C           DB 76
   \   00028E   4C           DB 76
   \   00028F   E4           DB 228
   \   000290   00           DB 0
   \   000291   00           DB 0
   \   000292   00           DB 0
   \   000293   00           DB 0
   \   000294   00           DB 0
   \   000295   30           DB 48
   \   000296   48           DB 72
   \   000297   84           DB 132
   \   000298   84           DB 132
   \   000299   84           DB 132
   \   00029A   84           DB 132
   \   00029B   84           DB 132
   \   00029C   48           DB 72
   \   00029D   30           DB 48
   \   00029E   00           DB 0
   \   00029F   00           DB 0
   \   0002A0   00           DB 0
   \   0002A1   00           DB 0
   \   0002A2   00           DB 0
   \   0002A3   F8           DB 248
   \   0002A4   44           DB 68
   \   0002A5   44           DB 68
   \   0002A6   44           DB 68
   \   0002A7   78           DB 120
   \   0002A8   40           DB 64
   \   0002A9   40           DB 64
   \   0002AA   40           DB 64
   \   0002AB   E0           DB 224
   \   0002AC   00           DB 0
   \   0002AD   00           DB 0
   \   0002AE   00           DB 0
   \   0002AF   00           DB 0
   \   0002B0   00           DB 0
   \   0002B1   30           DB 48
   \   0002B2   48           DB 72
   \   0002B3   84           DB 132
   \   0002B4   84           DB 132
   \   0002B5   84           DB 132
   \   0002B6   84           DB 132
   \   0002B7   B4           DB 180
   \   0002B8   48           DB 72
   \   0002B9   38           DB 56
   \   0002BA   0C           DB 12
   \   0002BB   00           DB 0
   \   0002BC   00           DB 0
   \   0002BD   00           DB 0
   \   0002BE   00           DB 0
   \   0002BF   F8           DB 248
   \   0002C0   44           DB 68
   \   0002C1   44           DB 68
   \   0002C2   78           DB 120
   \   0002C3   50           DB 80
   \   0002C4   48           DB 72
   \   0002C5   48           DB 72
   \   0002C6   44           DB 68
   \   0002C7   E6           DB 230
   \   0002C8   00           DB 0
   \   0002C9   00           DB 0
   \   0002CA   00           DB 0
   \   0002CB   00           DB 0
   \   0002CC   00           DB 0
   \   0002CD   3C           DB 60
   \   0002CE   44           DB 68
   \   0002CF   40           DB 64
   \   0002D0   20           DB 32
   \   0002D1   18           DB 24
   \   0002D2   04           DB 4
   \   0002D3   04           DB 4
   \   0002D4   44           DB 68
   \   0002D5   78           DB 120
   \   0002D6   00           DB 0
   \   0002D7   00           DB 0
   \   0002D8   00           DB 0
   \   0002D9   00           DB 0
   \   0002DA   00           DB 0
   \   0002DB   FE           DB 254
   \   0002DC   92           DB 146
   \   0002DD   10           DB 16
   \   0002DE   10           DB 16
   \   0002DF   10           DB 16
   \   0002E0   10           DB 16
   \   0002E1   10           DB 16
   \   0002E2   10           DB 16
   \   0002E3   38           DB 56
   \   0002E4   00           DB 0
   \   0002E5   00           DB 0
   \   0002E6   00           DB 0
   \   0002E7   00           DB 0
   \   0002E8   00           DB 0
   \   0002E9   EE           DB 238
   \   0002EA   44           DB 68
   \   0002EB   44           DB 68
   \   0002EC   44           DB 68
   \   0002ED   44           DB 68
   \   0002EE   44           DB 68
   \   0002EF   44           DB 68
   \   0002F0   44           DB 68
   \   0002F1   38           DB 56
   \   0002F2   00           DB 0
   \   0002F3   00           DB 0
   \   0002F4   00           DB 0
   \   0002F5   00           DB 0
   \   0002F6   00           DB 0
   \   0002F7   EE           DB 238
   \   0002F8   44           DB 68
   \   0002F9   44           DB 68
   \   0002FA   28           DB 40
   \   0002FB   28           DB 40
   \   0002FC   28           DB 40
   \   0002FD   28           DB 40
   \   0002FE   10           DB 16
   \   0002FF   10           DB 16
   \   000300   00           DB 0
   \   000301   00           DB 0
   \   000302   00           DB 0
   \   000303   00           DB 0
   \   000304   00           DB 0
   \   000305   D6           DB 214
   \   000306   54           DB 84
   \   000307   54           DB 84
   \   000308   54           DB 84
   \   000309   54           DB 84
   \   00030A   6C           DB 108
   \   00030B   28           DB 40
   \   00030C   28           DB 40
   \   00030D   28           DB 40
   \   00030E   00           DB 0
   \   00030F   00           DB 0
   \   000310   00           DB 0
   \   000311   00           DB 0
   \   000312   00           DB 0
   \   000313   EE           DB 238
   \   000314   44           DB 68
   \   000315   28           DB 40
   \   000316   28           DB 40
   \   000317   10           DB 16
   \   000318   28           DB 40
   \   000319   28           DB 40
   \   00031A   44           DB 68
   \   00031B   EE           DB 238
   \   00031C   00           DB 0
   \   00031D   00           DB 0
   \   00031E   00           DB 0
   \   00031F   00           DB 0
   \   000320   00           DB 0
   \   000321   EE           DB 238
   \   000322   44           DB 68
   \   000323   28           DB 40
   \   000324   28           DB 40
   \   000325   10           DB 16
   \   000326   10           DB 16
   \   000327   10           DB 16
   \   000328   10           DB 16
   \   000329   38           DB 56
   \   00032A   00           DB 0
   \   00032B   00           DB 0
   \   00032C   00           DB 0
   \   00032D   00           DB 0
   \   00032E   00           DB 0
   \   00032F   7C           DB 124
   \   000330   88           DB 136
   \   000331   08           DB 8
   \   000332   10           DB 16
   \   000333   20           DB 32
   \   000334   20           DB 32
   \   000335   40           DB 64
   \   000336   44           DB 68
   \   000337   FC           DB 252
   \   000338   00           DB 0
   \   000339   00           DB 0
   \   00033A   00           DB 0
   \   00033B   1C           DB 28
   \   00033C   10           DB 16
   \   00033D   10           DB 16
   \   00033E   10           DB 16
   \   00033F   10           DB 16
   \   000340   10           DB 16
   \   000341   10           DB 16
   \   000342   10           DB 16
   \   000343   10           DB 16
   \   000344   10           DB 16
   \   000345   10           DB 16
   \   000346   1C           DB 28
   \   000347   00           DB 0
   \   000348   00           DB 0
   \   000349   70           DB 112
   \   00034A   10           DB 16
   \   00034B   10           DB 16
   \   00034C   10           DB 16
   \   00034D   10           DB 16
   \   00034E   10           DB 16
   \   00034F   10           DB 16
   \   000350   10           DB 16
   \   000351   10           DB 16
   \   000352   10           DB 16
   \   000353   10           DB 16
   \   000354   70           DB 112
   \   000355   00           DB 0
   \   000356   00           DB 0
   \   000357   70           DB 112
   \   000358   10           DB 16
   \   000359   10           DB 16
   \   00035A   10           DB 16
   \   00035B   10           DB 16
   \   00035C   10           DB 16
   \   00035D   10           DB 16
   \   00035E   10           DB 16
   \   00035F   10           DB 16
   \   000360   10           DB 16
   \   000361   10           DB 16
   \   000362   70           DB 112
   \   000363   00           DB 0
   \   000364   00           DB 0
   \   000365   10           DB 16
   \   000366   28           DB 40
   \   000367   00           DB 0
   \   000368   00           DB 0
   \   000369   00           DB 0
   \   00036A   00           DB 0
   \   00036B   00           DB 0
   \   00036C   00           DB 0
   \   00036D   00           DB 0
   \   00036E   00           DB 0
   \   00036F   00           DB 0
   \   000370   00           DB 0
   \   000371   00           DB 0
   \   000372   00           DB 0
   \   000373   00           DB 0
   \   000374   00           DB 0
   \   000375   00           DB 0
   \   000376   00           DB 0
   \   000377   00           DB 0
   \   000378   00           DB 0
   \   000379   00           DB 0
   \   00037A   00           DB 0
   \   00037B   00           DB 0
   \   00037C   00           DB 0
   \   00037D   00           DB 0
   \   00037E   00           DB 0
   \   00037F   FE           DB 254
   \   000380   00           DB 0
   \   000381   60           DB 96
   \   000382   60           DB 96
   \   000383   20           DB 32
   \   000384   C0           DB 192
   \   000385   00           DB 0
   \   000386   00           DB 0
   \   000387   00           DB 0
   \   000388   00           DB 0
   \   000389   00           DB 0
   \   00038A   00           DB 0
   \   00038B   00           DB 0
   \   00038C   00           DB 0
   \   00038D   00           DB 0
   \   00038E   00           DB 0
   \   00038F   00           DB 0
   \   000390   00           DB 0
   \   000391   00           DB 0
   \   000392   00           DB 0
   \   000393   00           DB 0
   \   000394   38           DB 56
   \   000395   44           DB 68
   \   000396   1C           DB 28
   \   000397   24           DB 36
   \   000398   44           DB 68
   \   000399   3E           DB 62
   \   00039A   00           DB 0
   \   00039B   00           DB 0
   \   00039C   00           DB 0
   \   00039D   00           DB 0
   \   00039E   00           DB 0
   \   00039F   C0           DB 192
   \   0003A0   40           DB 64
   \   0003A1   40           DB 64
   \   0003A2   78           DB 120
   \   0003A3   44           DB 68
   \   0003A4   44           DB 68
   \   0003A5   44           DB 68
   \   0003A6   44           DB 68
   \   0003A7   78           DB 120
   \   0003A8   00           DB 0
   \   0003A9   00           DB 0
   \   0003AA   00           DB 0
   \   0003AB   00           DB 0
   \   0003AC   00           DB 0
   \   0003AD   00           DB 0
   \   0003AE   00           DB 0
   \   0003AF   00           DB 0
   \   0003B0   3C           DB 60
   \   0003B1   44           DB 68
   \   0003B2   40           DB 64
   \   0003B3   40           DB 64
   \   0003B4   44           DB 68
   \   0003B5   38           DB 56
   \   0003B6   00           DB 0
   \   0003B7   00           DB 0
   \   0003B8   00           DB 0
   \   0003B9   00           DB 0
   \   0003BA   00           DB 0
   \   0003BB   0C           DB 12
   \   0003BC   04           DB 4
   \   0003BD   04           DB 4
   \   0003BE   3C           DB 60
   \   0003BF   44           DB 68
   \   0003C0   44           DB 68
   \   0003C1   44           DB 68
   \   0003C2   44           DB 68
   \   0003C3   3E           DB 62
   \   0003C4   00           DB 0
   \   0003C5   00           DB 0
   \   0003C6   00           DB 0
   \   0003C7   00           DB 0
   \   0003C8   00           DB 0
   \   0003C9   00           DB 0
   \   0003CA   00           DB 0
   \   0003CB   00           DB 0
   \   0003CC   38           DB 56
   \   0003CD   44           DB 68
   \   0003CE   7C           DB 124
   \   0003CF   40           DB 64
   \   0003D0   44           DB 68
   \   0003D1   38           DB 56
   \   0003D2   00           DB 0
   \   0003D3   00           DB 0
   \   0003D4   00           DB 0
   \   0003D5   00           DB 0
   \   0003D6   00           DB 0
   \   0003D7   1C           DB 28
   \   0003D8   24           DB 36
   \   0003D9   20           DB 32
   \   0003DA   F8           DB 248
   \   0003DB   20           DB 32
   \   0003DC   20           DB 32
   \   0003DD   20           DB 32
   \   0003DE   20           DB 32
   \   0003DF   78           DB 120
   \   0003E0   00           DB 0
   \   0003E1   00           DB 0
   \   0003E2   00           DB 0
   \   0003E3   00           DB 0
   \   0003E4   00           DB 0
   \   0003E5   00           DB 0
   \   0003E6   00           DB 0
   \   0003E7   00           DB 0
   \   0003E8   3C           DB 60
   \   0003E9   48           DB 72
   \   0003EA   48           DB 72
   \   0003EB   30           DB 48
   \   0003EC   40           DB 64
   \   0003ED   78           DB 120
   \   0003EE   44           DB 68
   \   0003EF   38           DB 56
   \   0003F0   00           DB 0
   \   0003F1   00           DB 0
   \   0003F2   00           DB 0
   \   0003F3   C0           DB 192
   \   0003F4   40           DB 64
   \   0003F5   40           DB 64
   \   0003F6   58           DB 88
   \   0003F7   64           DB 100
   \   0003F8   44           DB 68
   \   0003F9   44           DB 68
   \   0003FA   44           DB 68
   \   0003FB   EE           DB 238
   \   0003FC   00           DB 0
   \   0003FD   00           DB 0
   \   0003FE   00           DB 0
   \   0003FF   00           DB 0
   \   000400   00           DB 0
   \   000401   10           DB 16
   \   000402   00           DB 0
   \   000403   00           DB 0
   \   000404   70           DB 112
   \   000405   10           DB 16
   \   000406   10           DB 16
   \   000407   10           DB 16
   \   000408   10           DB 16
   \   000409   7C           DB 124
   \   00040A   00           DB 0
   \   00040B   00           DB 0
   \   00040C   00           DB 0
   \   00040D   00           DB 0
   \   00040E   00           DB 0
   \   00040F   08           DB 8
   \   000410   00           DB 0
   \   000411   00           DB 0
   \   000412   38           DB 56
   \   000413   08           DB 8
   \   000414   08           DB 8
   \   000415   08           DB 8
   \   000416   08           DB 8
   \   000417   08           DB 8
   \   000418   08           DB 8
   \   000419   70           DB 112
   \   00041A   00           DB 0
   \   00041B   00           DB 0
   \   00041C   00           DB 0
   \   00041D   C0           DB 192
   \   00041E   40           DB 64
   \   00041F   40           DB 64
   \   000420   5C           DB 92
   \   000421   48           DB 72
   \   000422   50           DB 80
   \   000423   70           DB 112
   \   000424   48           DB 72
   \   000425   EC           DB 236
   \   000426   00           DB 0
   \   000427   00           DB 0
   \   000428   00           DB 0
   \   000429   00           DB 0
   \   00042A   00           DB 0
   \   00042B   70           DB 112
   \   00042C   10           DB 16
   \   00042D   10           DB 16
   \   00042E   10           DB 16
   \   00042F   10           DB 16
   \   000430   10           DB 16
   \   000431   10           DB 16
   \   000432   10           DB 16
   \   000433   7C           DB 124
   \   000434   00           DB 0
   \   000435   00           DB 0
   \   000436   00           DB 0
   \   000437   00           DB 0
   \   000438   00           DB 0
   \   000439   00           DB 0
   \   00043A   00           DB 0
   \   00043B   00           DB 0
   \   00043C   F8           DB 248
   \   00043D   54           DB 84
   \   00043E   54           DB 84
   \   00043F   54           DB 84
   \   000440   54           DB 84
   \   000441   D6           DB 214
   \   000442   00           DB 0
   \   000443   00           DB 0
   \   000444   00           DB 0
   \   000445   00           DB 0
   \   000446   00           DB 0
   \   000447   00           DB 0
   \   000448   00           DB 0
   \   000449   00           DB 0
   \   00044A   D8           DB 216
   \   00044B   64           DB 100
   \   00044C   44           DB 68
   \   00044D   44           DB 68
   \   00044E   44           DB 68
   \   00044F   EE           DB 238
   \   000450   00           DB 0
   \   000451   00           DB 0
   \   000452   00           DB 0
   \   000453   00           DB 0
   \   000454   00           DB 0
   \   000455   00           DB 0
   \   000456   00           DB 0
   \   000457   00           DB 0
   \   000458   38           DB 56
   \   000459   44           DB 68
   \   00045A   44           DB 68
   \   00045B   44           DB 68
   \   00045C   44           DB 68
   \   00045D   38           DB 56
   \   00045E   00           DB 0
   \   00045F   00           DB 0
   \   000460   00           DB 0
   \   000461   00           DB 0
   \   000462   00           DB 0
   \   000463   00           DB 0
   \   000464   00           DB 0
   \   000465   00           DB 0
   \   000466   F8           DB 248
   \   000467   44           DB 68
   \   000468   44           DB 68
   \   000469   44           DB 68
   \   00046A   44           DB 68
   \   00046B   78           DB 120
   \   00046C   40           DB 64
   \   00046D   E0           DB 224
   \   00046E   00           DB 0
   \   00046F   00           DB 0
   \   000470   00           DB 0
   \   000471   00           DB 0
   \   000472   00           DB 0
   \   000473   00           DB 0
   \   000474   3C           DB 60
   \   000475   44           DB 68
   \   000476   44           DB 68
   \   000477   44           DB 68
   \   000478   44           DB 68
   \   000479   3C           DB 60
   \   00047A   04           DB 4
   \   00047B   0E           DB 14
   \   00047C   00           DB 0
   \   00047D   00           DB 0
   \   00047E   00           DB 0
   \   00047F   00           DB 0
   \   000480   00           DB 0
   \   000481   00           DB 0
   \   000482   EC           DB 236
   \   000483   30           DB 48
   \   000484   20           DB 32
   \   000485   20           DB 32
   \   000486   20           DB 32
   \   000487   F8           DB 248
   \   000488   00           DB 0
   \   000489   00           DB 0
   \   00048A   00           DB 0
   \   00048B   00           DB 0
   \   00048C   00           DB 0
   \   00048D   00           DB 0
   \   00048E   00           DB 0
   \   00048F   00           DB 0
   \   000490   3C           DB 60
   \   000491   44           DB 68
   \   000492   30           DB 48
   \   000493   08           DB 8
   \   000494   44           DB 68
   \   000495   78           DB 120
   \   000496   00           DB 0
   \   000497   00           DB 0
   \   000498   00           DB 0
   \   000499   00           DB 0
   \   00049A   00           DB 0
   \   00049B   00           DB 0
   \   00049C   10           DB 16
   \   00049D   10           DB 16
   \   00049E   7C           DB 124
   \   00049F   10           DB 16
   \   0004A0   10           DB 16
   \   0004A1   10           DB 16
   \   0004A2   10           DB 16
   \   0004A3   0C           DB 12
   \   0004A4   00           DB 0
   \   0004A5   00           DB 0
   \   0004A6   00           DB 0
   \   0004A7   00           DB 0
   \   0004A8   00           DB 0
   \   0004A9   00           DB 0
   \   0004AA   00           DB 0
   \   0004AB   00           DB 0
   \   0004AC   CC           DB 204
   \   0004AD   44           DB 68
   \   0004AE   44           DB 68
   \   0004AF   44           DB 68
   \   0004B0   44           DB 68
   \   0004B1   3E           DB 62
   \   0004B2   00           DB 0
   \   0004B3   00           DB 0
   \   0004B4   00           DB 0
   \   0004B5   00           DB 0
   \   0004B6   00           DB 0
   \   0004B7   00           DB 0
   \   0004B8   00           DB 0
   \   0004B9   00           DB 0
   \   0004BA   EE           DB 238
   \   0004BB   44           DB 68
   \   0004BC   28           DB 40
   \   0004BD   28           DB 40
   \   0004BE   28           DB 40
   \   0004BF   10           DB 16
   \   0004C0   00           DB 0
   \   0004C1   00           DB 0
   \   0004C2   00           DB 0
   \   0004C3   00           DB 0
   \   0004C4   00           DB 0
   \   0004C5   00           DB 0
   \   0004C6   00           DB 0
   \   0004C7   00           DB 0
   \   0004C8   D6           DB 214
   \   0004C9   54           DB 84
   \   0004CA   54           DB 84
   \   0004CB   54           DB 84
   \   0004CC   28           DB 40
   \   0004CD   28           DB 40
   \   0004CE   00           DB 0
   \   0004CF   00           DB 0
   \   0004D0   00           DB 0
   \   0004D1   00           DB 0
   \   0004D2   00           DB 0
   \   0004D3   00           DB 0
   \   0004D4   00           DB 0
   \   0004D5   00           DB 0
   \   0004D6   DC           DB 220
   \   0004D7   48           DB 72
   \   0004D8   30           DB 48
   \   0004D9   30           DB 48
   \   0004DA   48           DB 72
   \   0004DB   EC           DB 236
   \   0004DC   00           DB 0
   \   0004DD   00           DB 0
   \   0004DE   00           DB 0
   \   0004DF   00           DB 0
   \   0004E0   00           DB 0
   \   0004E1   00           DB 0
   \   0004E2   00           DB 0
   \   0004E3   00           DB 0
   \   0004E4   EE           DB 238
   \   0004E5   44           DB 68
   \   0004E6   28           DB 40
   \   0004E7   28           DB 40
   \   0004E8   10           DB 16
   \   0004E9   10           DB 16
   \   0004EA   20           DB 32
   \   0004EB   E0           DB 224
   \   0004EC   00           DB 0
   \   0004ED   00           DB 0
   \   0004EE   00           DB 0
   \   0004EF   00           DB 0
   \   0004F0   00           DB 0
   \   0004F1   00           DB 0
   \   0004F2   7C           DB 124
   \   0004F3   48           DB 72
   \   0004F4   10           DB 16
   \   0004F5   10           DB 16
   \   0004F6   24           DB 36
   \   0004F7   7C           DB 124
   \   0004F8   00           DB 0
   \   0004F9   00           DB 0
   \   0004FA   10           DB 16
   \   0004FB   10           DB 16
   \   0004FC   10           DB 16
   \   0004FD   10           DB 16
   \   0004FE   10           DB 16
   \   0004FF   10           DB 16
   \   000500   10           DB 16
   \   000501   10           DB 16
   \   000502   10           DB 16
   \   000503   10           DB 16
   \   000504   10           DB 16
   \   000505   10           DB 16
   \   000506   10           DB 16
   \   000507   10           DB 16
    252          {
    253          {0x00,0x00,0x00,0x00,0x00,0x00,0x00,0x00,0x00,0x00,0x00,0x00,0x00,0x00},//" ",0//
    254          {0x00,0x00,0x10,0x10,0x10,0x10,0x10,0x10,0x00,0x00,0x30,0x30,0x00,0x00},//"!",1//
    255          {0x00,0x14,0x28,0x50,0x00,0x00,0x00,0x00,0x00,0x00,0x00,0x00,0x00,0x00},//""",2//
    256          {0x00,0x00,0x00,0x28,0x28,0xFC,0x28,0x48,0x50,0xFC,0x50,0x50,0x00,0x00},//"#",3//
    257          {0x00,0x00,0x10,0x38,0x54,0x54,0x30,0x18,0x14,0x54,0x54,0x38,0x10,0x00},//"$",4//
    258          {0x00,0x00,0x00,0x44,0xA8,0xA8,0xB0,0x54,0x1A,0x2A,0x2A,0x44,0x00,0x00},//"%",5//
    259          {0x00,0x00,0x00,0x20,0x50,0x50,0x60,0xAC,0xA8,0x98,0x92,0x7C,0x00,0x00},//"&",6//
    260          {0x00,0x60,0x60,0x20,0xC0,0x00,0x00,0x00,0x00,0x00,0x00,0x00,0x00,0x00},//"'",7//
    261          {0x00,0x04,0x08,0x08,0x10,0x10,0x10,0x10,0x10,0x10,0x08,0x08,0x04,0x00},//"(",8//
    262          {0x00,0x00,0x40,0x20,0x10,0x08,0x04,0x08,0x10,0x20,0x40,0x00,0x00,0x00},//">",9//
    263          {0x00,0x00,0x00,0x10,0x10,0xD6,0x38,0x38,0xD6,0x10,0x10,0x00,0x00,0x00},//"*",10//
    264          {0x00,0x00,0x00,0x10,0x10,0x10,0xFE,0x10,0x10,0x10,0x00,0x00,0x00,0x00},//"+",11//
    265          {0x00,0x00,0x00,0x00,0x00,0x00,0x00,0x00,0x00,0x00,0x60,0x60,0x20,0xC0},//",",12//
    266          {0x00,0x00,0x00,0x00,0x00,0x00,0xFC,0x00,0x00,0x00,0x00,0x00,0x00,0x00},//"-",13//
    267          {0x00,0x00,0x00,0x00,0x00,0x00,0x00,0x00,0x00,0x00,0x60,0x60,0x00,0x00},//".",14//
    268          {0x00,0x02,0x04,0x04,0x04,0x08,0x08,0x10,0x10,0x20,0x20,0x20,0x40,0x00},//"/",15//
    269          {0x00,0x00,0x00,0x30,0x48,0x84,0x84,0x84,0x84,0x84,0x48,0x30,0x00,0x00},//"0",16//
    270          {0x00,0x00,0x00,0x10,0x70,0x10,0x10,0x10,0x10,0x10,0x10,0x7C,0x00,0x00},//"1",17//
    271          {0x00,0x00,0x00,0x38,0x44,0x44,0x04,0x08,0x10,0x20,0x44,0x7C,0x00,0x00},//"2",18//
    272          {0x00,0x00,0x00,0x38,0x44,0x44,0x18,0x04,0x04,0x44,0x44,0x38,0x00,0x00},//"3",19//
    273          {0x00,0x00,0x08,0x08,0x18,0x28,0x48,0x48,0x88,0x7C,0x08,0x1C,0x00,0x00},//"4",20//
    274          {0x00,0x00,0x00,0x7C,0x40,0x40,0x78,0x44,0x04,0x44,0x44,0x38,0x00,0x00},//"5",21//
    275          {0x00,0x00,0x00,0x3C,0x44,0x80,0xB8,0xC4,0x84,0x84,0x84,0x78,0x00,0x00},//"6",22//
    276          {0x00,0x00,0x00,0x7C,0x44,0x48,0x08,0x10,0x10,0x10,0x10,0x10,0x00,0x00},//"7",23//
    277          {0x00,0x00,0x00,0x78,0x84,0x84,0x48,0x78,0x84,0x84,0x84,0x78,0x00,0x00},//"8",24//
    278          {0x00,0x00,0x00,0x78,0x84,0x84,0x84,0x8C,0x74,0x04,0x88,0xF0,0x00,0x00},//"9",25//
    279          {0x00,0x00,0x00,0x00,0x00,0x30,0x30,0x00,0x00,0x00,0x30,0x30,0x00,0x00},//":",26//
    280          {0x00,0x00,0x00,0x00,0x00,0x00,0x10,0x00,0x00,0x00,0x00,0x10,0x10,0x20},//";",27//
    281          {0x00,0x00,0x04,0x08,0x10,0x20,0x40,0x20,0x10,0x08,0x04,0x00,0x00,0x00},//"<",28//
    282          {0x00,0x00,0x00,0x00,0x00,0xFC,0x00,0x00,0xFC,0x00,0x00,0x00,0x00,0x00},//"=",29//
    283          {0x00,0x00,0x40,0x20,0x10,0x08,0x04,0x08,0x10,0x20,0x40,0x00,0x00,0x00},//">",30//
    284          {0x00,0x00,0x78,0x84,0x84,0x84,0x08,0x10,0x10,0x00,0x30,0x30,0x00,0x00},//"?",31//
    285          {0x00,0x00,0x00,0x38,0x44,0x9A,0xAA,0xAA,0xAA,0xB4,0x42,0x3C,0x00,0x00},//"@",32//
    286          {0x00,0x00,0x00,0x10,0x10,0x28,0x28,0x28,0x38,0x44,0x44,0xEE,0x00,0x00},//"A",33//
    287          {0x00,0x00,0x00,0xF8,0x44,0x44,0x78,0x44,0x44,0x44,0x44,0xF8,0x00,0x00},//"B",34//
    288          {0x00,0x00,0x00,0x3C,0x44,0x84,0x80,0x80,0x80,0x80,0x44,0x38,0x00,0x00},//"C",35//
    289          {0x00,0x00,0x00,0xF0,0x48,0x44,0x44,0x44,0x44,0x44,0x48,0xF0,0x00,0x00},//"D",36//
    290          {0x00,0x00,0x00,0xFC,0x44,0x40,0x48,0x78,0x48,0x40,0x44,0xFC,0x00,0x00},//"E",37//
    291          {0x00,0x00,0x00,0xFC,0x42,0x40,0x48,0x78,0x48,0x40,0x40,0xE0,0x00,0x00},//"F",38//
    292          {0x00,0x00,0x00,0x3C,0x44,0x84,0x80,0x80,0x8E,0x84,0x44,0x38,0x00,0x00},//"G",39//
    293          {0x00,0x00,0x00,0xEE,0x44,0x44,0x44,0x7C,0x44,0x44,0x44,0xEE,0x00,0x00},//"H",40//
    294          {0x00,0x00,0x00,0x7C,0x10,0x10,0x10,0x10,0x10,0x10,0x10,0x7C,0x00,0x00},//"I",41//
    295          {0x00,0x00,0x00,0x7C,0x10,0x10,0x10,0x10,0x10,0x10,0x10,0x10,0x90,0xE0},//"J",42//
    296          {0x00,0x00,0x00,0xEE,0x44,0x48,0x50,0x70,0x48,0x48,0x44,0xEE,0x00,0x00},//"K",43//
    297          {0x00,0x00,0x00,0xE0,0x40,0x40,0x40,0x40,0x40,0x40,0x44,0xFC,0x00,0x00},//"L",44//
    298          {0x00,0x00,0x00,0xEE,0x6C,0x6C,0x6C,0x54,0x54,0x54,0x54,0xD6,0x00,0x00},//"M",45//
    299          {0x00,0x00,0x00,0xEE,0x64,0x64,0x54,0x54,0x54,0x4C,0x4C,0xE4,0x00,0x00},//"N",46//
    300          {0x00,0x00,0x00,0x30,0x48,0x84,0x84,0x84,0x84,0x84,0x48,0x30,0x00,0x00},//"O",47//
    301          {0x00,0x00,0x00,0xF8,0x44,0x44,0x44,0x78,0x40,0x40,0x40,0xE0,0x00,0x00},//"P",48//
    302          {0x00,0x00,0x00,0x30,0x48,0x84,0x84,0x84,0x84,0xB4,0x48,0x38,0x0C,0x00},//"Q",49//
    303          {0x00,0x00,0x00,0xF8,0x44,0x44,0x78,0x50,0x48,0x48,0x44,0xE6,0x00,0x00},//"R",50//
    304          {0x00,0x00,0x00,0x3C,0x44,0x40,0x20,0x18,0x04,0x04,0x44,0x78,0x00,0x00},//"S",51//
    305          {0x00,0x00,0x00,0xFE,0x92,0x10,0x10,0x10,0x10,0x10,0x10,0x38,0x00,0x00},//"T",52//
    306          {0x00,0x00,0x00,0xEE,0x44,0x44,0x44,0x44,0x44,0x44,0x44,0x38,0x00,0x00},//"U",53//
    307          {0x00,0x00,0x00,0xEE,0x44,0x44,0x28,0x28,0x28,0x28,0x10,0x10,0x00,0x00},//"V",54//
    308          {0x00,0x00,0x00,0xD6,0x54,0x54,0x54,0x54,0x6C,0x28,0x28,0x28,0x00,0x00},//"W",55//
    309          {0x00,0x00,0x00,0xEE,0x44,0x28,0x28,0x10,0x28,0x28,0x44,0xEE,0x00,0x00},//"X",56//
    310          {0x00,0x00,0x00,0xEE,0x44,0x28,0x28,0x10,0x10,0x10,0x10,0x38,0x00,0x00},//"Y",57//
    311          {0x00,0x00,0x00,0x7C,0x88,0x08,0x10,0x20,0x20,0x40,0x44,0xFC,0x00,0x00},//"Z",58//
    312          {0x00,0x1C,0x10,0x10,0x10,0x10,0x10,0x10,0x10,0x10,0x10,0x10,0x1C,0x00},//"[",59//
    313          {0x00,0x70,0x10,0x10,0x10,0x10,0x10,0x10,0x10,0x10,0x10,0x10,0x70,0x00},//"]",60//
    314          {0x00,0x70,0x10,0x10,0x10,0x10,0x10,0x10,0x10,0x10,0x10,0x10,0x70,0x00},//"]",61//
    315          {0x00,0x10,0x28,0x00,0x00,0x00,0x00,0x00,0x00,0x00,0x00,0x00,0x00,0x00},//"^",62//
    316          {0x00,0x00,0x00,0x00,0x00,0x00,0x00,0x00,0x00,0x00,0x00,0x00,0x00,0xFE},//"_",63//
    317          {0x00,0x60,0x60,0x20,0xC0,0x00,0x00,0x00,0x00,0x00,0x00,0x00,0x00,0x00},//"'",64//
    318          {0x00,0x00,0x00,0x00,0x00,0x00,0x38,0x44,0x1C,0x24,0x44,0x3E,0x00,0x00},//"a",65//
    319          {0x00,0x00,0x00,0xC0,0x40,0x40,0x78,0x44,0x44,0x44,0x44,0x78,0x00,0x00},//"b",66//
    320          {0x00,0x00,0x00,0x00,0x00,0x00,0x3C,0x44,0x40,0x40,0x44,0x38,0x00,0x00},//"c",67//
    321          {0x00,0x00,0x00,0x0C,0x04,0x04,0x3C,0x44,0x44,0x44,0x44,0x3E,0x00,0x00},//"d",68//
    322          {0x00,0x00,0x00,0x00,0x00,0x00,0x38,0x44,0x7C,0x40,0x44,0x38,0x00,0x00},//"e",69//
    323          {0x00,0x00,0x00,0x1C,0x24,0x20,0xF8,0x20,0x20,0x20,0x20,0x78,0x00,0x00},//"f",70//
    324          {0x00,0x00,0x00,0x00,0x00,0x00,0x3C,0x48,0x48,0x30,0x40,0x78,0x44,0x38},//"g",71//
    325          {0x00,0x00,0x00,0xC0,0x40,0x40,0x58,0x64,0x44,0x44,0x44,0xEE,0x00,0x00},//"h",72//
    326          {0x00,0x00,0x00,0x10,0x00,0x00,0x70,0x10,0x10,0x10,0x10,0x7C,0x00,0x00},//"i",73//
    327          {0x00,0x00,0x00,0x08,0x00,0x00,0x38,0x08,0x08,0x08,0x08,0x08,0x08,0x70},//"j",74//
    328          {0x00,0x00,0x00,0xC0,0x40,0x40,0x5C,0x48,0x50,0x70,0x48,0xEC,0x00,0x00},//"k",75//
    329          {0x00,0x00,0x00,0x70,0x10,0x10,0x10,0x10,0x10,0x10,0x10,0x7C,0x00,0x00},//"l",76//
    330          {0x00,0x00,0x00,0x00,0x00,0x00,0xF8,0x54,0x54,0x54,0x54,0xD6,0x00,0x00},//"m",77//
    331          {0x00,0x00,0x00,0x00,0x00,0x00,0xD8,0x64,0x44,0x44,0x44,0xEE,0x00,0x00},//"n",78//
    332          {0x00,0x00,0x00,0x00,0x00,0x00,0x38,0x44,0x44,0x44,0x44,0x38,0x00,0x00},//"o",79//
    333          {0x00,0x00,0x00,0x00,0x00,0x00,0xF8,0x44,0x44,0x44,0x44,0x78,0x40,0xE0},//"p",80//
    334          {0x00,0x00,0x00,0x00,0x00,0x00,0x3C,0x44,0x44,0x44,0x44,0x3C,0x04,0x0E},//"q",81//
    335          {0x00,0x00,0x00,0x00,0x00,0x00,0xEC,0x30,0x20,0x20,0x20,0xF8,0x00,0x00},//"r",82//
    336          {0x00,0x00,0x00,0x00,0x00,0x00,0x3C,0x44,0x30,0x08,0x44,0x78,0x00,0x00},//"s",83//
    337          {0x00,0x00,0x00,0x00,0x10,0x10,0x7C,0x10,0x10,0x10,0x10,0x0C,0x00,0x00},//"t",84//
    338          {0x00,0x00,0x00,0x00,0x00,0x00,0xCC,0x44,0x44,0x44,0x44,0x3E,0x00,0x00},//"u",85//
    339          {0x00,0x00,0x00,0x00,0x00,0x00,0xEE,0x44,0x28,0x28,0x28,0x10,0x00,0x00},//"v",86//
    340          {0x00,0x00,0x00,0x00,0x00,0x00,0xD6,0x54,0x54,0x54,0x28,0x28,0x00,0x00},//"w",87//
    341          {0x00,0x00,0x00,0x00,0x00,0x00,0xDC,0x48,0x30,0x30,0x48,0xEC,0x00,0x00},//"x",88//
    342          {0x00,0x00,0x00,0x00,0x00,0x00,0xEE,0x44,0x28,0x28,0x10,0x10,0x20,0xE0},//"y",89//
    343          {0x00,0x00,0x00,0x00,0x00,0x00,0x7C,0x48,0x10,0x10,0x24,0x7C,0x00,0x00},//"z",90//
    344          {0x10,0x10,0x10,0x10,0x10,0x10,0x10,0x10,0x10,0x10,0x10,0x10,0x10,0x10},//"|",91//
    345          };
    346          //-----------------------------------------------------------------------------
    347          #endif //LCD
    348          
    349          
    350          /**************************************************************************************************
    351           * @fn      HalLcdInit
    352           *
    353           * @brief   Initilize LCD Service
    354           *
    355           * @param   init - pointer to void that contains the initialized value
    356           *
    357           * @return  None
    358           **************************************************************************************************/

   \                                 In  segment BANKED_CODE, align 1, keep-with-next
    359          void HalLcdInit(void)
   \                     HalLcdInit:
    360          {
   \   000000   C082         PUSH      DPL
   \   000002   C083         PUSH      DPH
   \   000004                ; Saved register size: 2
   \   000004                ; Auto size: 0
    361          #if (HAL_LCD == TRUE)
    362            HalLcd_HW_Init();
   \   000004                ; Setup parameters for call to function HalLcd_HW_Init
   \   000004   12....       LCALL     `??HalLcd_HW_Init::?relay`; Banked call to: HalLcd_HW_Init
    363          #endif
    364          }
   \   000007                REQUIRE ?Subroutine0
   \   000007                ; // Fall through to label ?Subroutine0

   \                                 In  segment BANKED_CODE, align 1, keep-with-next
   \                     ?Subroutine0:
   \   000000   D083         POP       DPH
   \   000002   D082         POP       DPL
   \   000004   02....       LJMP      ?BRET
    365          
    366          /**************************************************************************************************
    367           * @fn      HalLcdWriteValue
    368           *
    369           * @brief   Write a value to the LCD
    370           *
    371           * @param   value  - value that will be displayed
    372           *          radix  - 8, 10, 16
    373           *          option - display options
    374           *
    375           * @return  None
    376           **************************************************************************************************/

   \                                 In  segment BANKED_CODE, align 1, keep-with-next
    377          void HalLcdWriteValue ( uint32 value, const uint8 radix, uint8 option)
   \                     HalLcdWriteValue:
    378          {
   \   000000                REQUIRE ?V0
   \   000000                REQUIRE ?V1
   \   000000                REQUIRE ?V2
   \   000000                REQUIRE ?V3
   \   000000                REQUIRE ?V4
   \   000000                REQUIRE ?V5
   \   000000   74F2         MOV       A,#-0xe
   \   000002   12....       LCALL     ?BANKED_ENTER_XDATA
   \   000005                ; Saved register size: 14
   \   000005                ; Auto size: 25
   \   000005   74E7         MOV       A,#-0x19
   \   000007   12....       LCALL     ?ALLOC_XSTACK8
   \   00000A   E9           MOV       A,R1
   \   00000B   FE           MOV       R6,A
    379          #if (HAL_LCD == TRUE)
    380            uint8 buf[LCD_MAX_BUF];
    381          
    382            _ltoa( value, &buf[0], radix );
   \   00000C                ; Setup parameters for call to function _ltoa
   \   00000C   A8..         MOV       R0,?XSP + 0
   \   00000E   A9..         MOV       R1,?XSP + 1
   \   000010   88..         MOV       ?V4,R0
   \   000012   89..         MOV       ?V5,R1
   \   000014   78..         MOV       R0,#?V4
   \   000016   12....       LCALL     ?PUSH_XSTACK_I_TWO
   \   000019   EE           MOV       A,R6
   \   00001A   F9           MOV       R1,A
   \   00001B   12....       LCALL     `??_ltoa::?relay`; Banked call to: _ltoa
   \   00001E   7402         MOV       A,#0x2
   \   000020   12....       LCALL     ?DEALLOC_XSTACK8
    383            HalLcdWriteString( (char*)buf, option );
   \   000023                ; Setup parameters for call to function HalLcdWriteString
   \   000023   7427         MOV       A,#0x27
   \   000025   12....       LCALL     ?XSTACK_DISP0_8
   \   000028   E0           MOVX      A,@DPTR
   \   000029   F9           MOV       R1,A
   \   00002A   AA..         MOV       R2,?XSP + 0
   \   00002C   AB..         MOV       R3,?XSP + 1
   \   00002E   12....       LCALL     `??HalLcdWriteString::?relay`; Banked call to: HalLcdWriteString
    384          #endif
    385          }
   \   000031   7419         MOV       A,#0x19
   \   000033   12....       LCALL     ?DEALLOC_XSTACK8
   \   000036                REQUIRE ?Subroutine1
   \   000036                ; // Fall through to label ?Subroutine1

   \                                 In  segment BANKED_CODE, align 1, keep-with-next
   \                     ?Subroutine1:
   \   000000   7F06         MOV       R7,#0x6
   \   000002   02....       LJMP      ?BANKED_LEAVE_XDATA
    386          
    387          /**************************************************************************************************
    388           * @fn      HalLcdWriteScreen
    389           *
    390           * @brief   Write a value to the LCD
    391           *
    392           * @param   line1  - string that will be displayed on line 1
    393           *          line2  - string that will be displayed on line 2
    394           *
    395           * @return  None
    396           **************************************************************************************************/

   \                                 In  segment BANKED_CODE, align 1, keep-with-next
    397          void HalLcdWriteScreen( char *line1, char *line2 )
   \                     HalLcdWriteScreen:
    398          {
   \   000000   74F7         MOV       A,#-0x9
   \   000002   12....       LCALL     ?BANKED_ENTER_XDATA
   \   000005                ; Saved register size: 9
   \   000005                ; Auto size: 0
   \   000005   EC           MOV       A,R4
   \   000006   FE           MOV       R6,A
   \   000007   ED           MOV       A,R5
   \   000008   FF           MOV       R7,A
    399          #if (HAL_LCD == TRUE)
    400            HalLcdWriteString( line1, 0 );//andy 
   \   000009                ; Setup parameters for call to function HalLcdWriteString
   \   000009   7900         MOV       R1,#0x0
   \   00000B   12....       LCALL     `??HalLcdWriteString::?relay`; Banked call to: HalLcdWriteString
    401            HalLcdWriteString( line2, 1 );
   \   00000E                ; Setup parameters for call to function HalLcdWriteString
   \   00000E   7901         MOV       R1,#0x1
   \   000010   EE           MOV       A,R6
   \   000011   FA           MOV       R2,A
   \   000012   EF           MOV       A,R7
   \   000013   FB           MOV       R3,A
   \   000014   12....       LCALL     `??HalLcdWriteString::?relay`; Banked call to: HalLcdWriteString
    402          #endif
    403          }
   \   000017   80..         SJMP      ??Subroutine12_0

   \                                 In  segment BANKED_CODE, align 1, keep-with-next
   \                     ??Subroutine12_0:
   \   000000   7F01         MOV       R7,#0x1
   \   000002   02....       LJMP      ?BANKED_LEAVE_XDATA
    404          
    405          /**************************************************************************************************
    406           * @fn      HalLcdWriteStringValue
    407           *
    408           * @brief   Write a string followed by a value to the LCD
    409           *
    410           * @param   title  - Title that will be displayed before the value
    411           *          value  - value
    412           *          format - redix
    413           *          line   - line number
    414           *
    415           * @return  None
    416           **************************************************************************************************/

   \                                 In  segment BANKED_CODE, align 1, keep-with-next
    417          void HalLcdWriteStringValue( char *title, uint16 value, uint8 format, uint8 line )
   \                     HalLcdWriteStringValue:
    418          {
   \   000000                REQUIRE ?V0
   \   000000                REQUIRE ?V1
   \   000000                REQUIRE ?V2
   \   000000                REQUIRE ?V3
   \   000000                REQUIRE ?V4
   \   000000                REQUIRE ?V5
   \   000000                REQUIRE ?V6
   \   000000   74F1         MOV       A,#-0xf
   \   000002   12....       LCALL     ?BANKED_ENTER_XDATA
   \   000005                ; Saved register size: 15
   \   000005                ; Auto size: 25
   \   000005   74E7         MOV       A,#-0x19
   \   000007   12....       LCALL     ?ALLOC_XSTACK8
   \   00000A   EA           MOV       A,R2
   \   00000B   FE           MOV       R6,A
   \   00000C   EB           MOV       A,R3
   \   00000D   FF           MOV       R7,A
   \   00000E   8C..         MOV       ?V2,R4
   \   000010   8D..         MOV       ?V3,R5
   \   000012   89..         MOV       ?V0,R1
    419          #if (HAL_LCD == TRUE)
    420            uint8 tmpLen;
    421            uint8 buf[LCD_MAX_BUF];
    422            uint32 err;
    423          
    424            tmpLen = (uint8)osal_strlen( (char*)title );
   \   000014                ; Setup parameters for call to function osal_strlen
   \   000014   12....       LCALL     `??osal_strlen::?relay`; Banked call to: osal_strlen
   \   000017   EA           MOV       A,R2
   \   000018   F5..         MOV       ?V1,A
    425            osal_memcpy( buf, title, tmpLen );
   \   00001A                ; Setup parameters for call to function osal_memcpy
   \   00001A   8E..         MOV       ?V4,R6
   \   00001C   8F..         MOV       ?V5,R7
   \   00001E   75..00       MOV       ?V6,#0x0
   \   000021   78..         MOV       R0,#?V4
   \   000023   12....       LCALL     ?PUSH_XSTACK_I_THREE
   \   000026   AC..         MOV       R4,?V1
   \   000028   7D00         MOV       R5,#0x0
   \   00002A   7403         MOV       A,#0x3
   \   00002C   12....       LCALL     ?XSTACK_DISP101_8
   \   00002F   12....       LCALL     `??osal_memcpy::?relay`; Banked call to: osal_memcpy
   \   000032   7403         MOV       A,#0x3
   \   000034   12....       LCALL     ?DEALLOC_XSTACK8
    426            //buf[tmpLen] = ' ';
    427            err = (uint32)(value);
    428            _ltoa( err, &buf[tmpLen], format );
   \   000037                ; Setup parameters for call to function _ltoa
   \   000037   A8..         MOV       R0,?V1
   \   000039   12....       LCALL     ?Subroutine11 & 0xFFFF
   \                     ??CrossCallReturnLabel_13:
   \   00003C   12....       LCALL     ?PUSH_XSTACK_I_TWO
   \   00003F   A9..         MOV       R1,?V0
   \   000041   AA..         MOV       R2,?V2
   \   000043   AB..         MOV       R3,?V3
   \   000045   E4           CLR       A
   \   000046   FC           MOV       R4,A
   \   000047   FD           MOV       R5,A
   \   000048   12....       LCALL     `??_ltoa::?relay`; Banked call to: _ltoa
   \   00004B   7402         MOV       A,#0x2
   \   00004D   12....       LCALL     ?DEALLOC_XSTACK8
    429            HalLcdWriteString( (char*)buf, line );		
   \   000050                ; Setup parameters for call to function HalLcdWriteString
   \   000050   7428         MOV       A,#0x28
   \   000052                REQUIRE ?Subroutine3
   \   000052                ; // Fall through to label ?Subroutine3
    430          #endif
    431          }

   \                                 In  segment BANKED_CODE, align 1, keep-with-next
   \                     ?Subroutine3:
   \   000000   12....       LCALL     ?XSTACK_DISP0_8
   \   000003   E0           MOVX      A,@DPTR
   \   000004   F9           MOV       R1,A
   \   000005   AA..         MOV       R2,?XSP + 0
   \   000007   AB..         MOV       R3,?XSP + 1
   \   000009   12....       LCALL     `??HalLcdWriteString::?relay`; Banked call to: HalLcdWriteString
   \   00000C   7419         MOV       A,#0x19
   \   00000E   12....       LCALL     ?DEALLOC_XSTACK8
   \   000011   7F07         MOV       R7,#0x7
   \   000013   02....       LJMP      ?BANKED_LEAVE_XDATA

   \                                 In  segment BANKED_CODE, align 1, keep-with-next
   \                     ?Subroutine11:
   \   000000   85..82       MOV       DPL,?XSP + 0
   \   000003   85..83       MOV       DPH,?XSP + 1
   \   000006   E582         MOV       A,DPL
   \   000008   28           ADD       A,R0
   \   000009   F5..         MOV       ?V4,A
   \   00000B   E4           CLR       A
   \   00000C   3583         ADDC      A,DPH
   \   00000E   F5..         MOV       ?V5,A
   \   000010   78..         MOV       R0,#?V4
   \   000012   22           RET
    432          
    433          /**************************************************************************************************
    434           * @fn      HalLcdWriteStringValue
    435           *
    436           * @brief   Write a string followed by a value to the LCD
    437           *
    438           * @param   title   - Title that will be displayed before the value
    439           *          value1  - value #1
    440           *          format1 - redix of value #1
    441           *          value2  - value #2
    442           *          format2 - redix of value #2
    443           *          line    - line number
    444           *
    445           * @return  None
    446           **************************************************************************************************/

   \                                 In  segment BANKED_CODE, align 1, keep-with-next
    447          void HalLcdWriteStringValueValue( char *title, uint16 value1, uint8 format1,
   \                     HalLcdWriteStringValueValue:
    448                                            uint16 value2, uint8 format2, uint8 line )
    449          {
   \   000000                REQUIRE ?V0
   \   000000                REQUIRE ?V1
   \   000000                REQUIRE ?V2
   \   000000                REQUIRE ?V3
   \   000000                REQUIRE ?V4
   \   000000                REQUIRE ?V5
   \   000000                REQUIRE ?V6
   \   000000   74F1         MOV       A,#-0xf
   \   000002   12....       LCALL     ?BANKED_ENTER_XDATA
   \   000005                ; Saved register size: 15
   \   000005                ; Auto size: 25
   \   000005   74E7         MOV       A,#-0x19
   \   000007   12....       LCALL     ?ALLOC_XSTACK8
   \   00000A   EA           MOV       A,R2
   \   00000B   FE           MOV       R6,A
   \   00000C   EB           MOV       A,R3
   \   00000D   FF           MOV       R7,A
   \   00000E   8C..         MOV       ?V2,R4
   \   000010   8D..         MOV       ?V3,R5
   \   000012   89..         MOV       ?V1,R1
    450          #if (HAL_LCD == TRUE)
    451          
    452            uint8 tmpLen;
    453            uint8 buf[LCD_MAX_BUF];
    454            uint32 err;
    455          
    456            tmpLen = (uint8)osal_strlen( (char*)title );
   \   000014                ; Setup parameters for call to function osal_strlen
   \   000014   12....       LCALL     `??osal_strlen::?relay`; Banked call to: osal_strlen
   \   000017   EA           MOV       A,R2
   \   000018   F5..         MOV       ?V0,A
    457            if ( tmpLen )
   \   00001A   601D         JZ        ??HalLcdWriteStringValueValue_0
    458            {
    459              osal_memcpy( buf, title, tmpLen );
   \   00001C                ; Setup parameters for call to function osal_memcpy
   \   00001C   8E..         MOV       ?V4,R6
   \   00001E   8F..         MOV       ?V5,R7
   \   000020   75..00       MOV       ?V6,#0x0
   \   000023   78..         MOV       R0,#?V4
   \   000025   12....       LCALL     ?PUSH_XSTACK_I_THREE
   \   000028   AC..         MOV       R4,?V0
   \   00002A   7D00         MOV       R5,#0x0
   \   00002C   7403         MOV       A,#0x3
   \   00002E   12....       LCALL     ?XSTACK_DISP101_8
   \   000031   12....       LCALL     `??osal_memcpy::?relay`; Banked call to: osal_memcpy
   \   000034   7403         MOV       A,#0x3
   \   000036   12....       LCALL     ?DEALLOC_XSTACK8
    460              //buf[tmpLen++] = ' ';
    461            }
    462          
    463            err = (uint32)(value1);
    464            _ltoa( err, &buf[tmpLen], format1 );
   \                     ??HalLcdWriteStringValueValue_0:
   \   000039                ; Setup parameters for call to function _ltoa
   \   000039   A8..         MOV       R0,?V0
   \   00003B   12....       LCALL     ?Subroutine11 & 0xFFFF
   \                     ??CrossCallReturnLabel_14:
   \   00003E   12....       LCALL     ?PUSH_XSTACK_I_TWO
   \   000041   A9..         MOV       R1,?V1
   \   000043   AA..         MOV       R2,?V2
   \   000045   AB..         MOV       R3,?V3
   \   000047   E4           CLR       A
   \   000048   FC           MOV       R4,A
   \   000049   FD           MOV       R5,A
   \   00004A   12....       LCALL     `??_ltoa::?relay`; Banked call to: _ltoa
   \   00004D   7402         MOV       A,#0x2
   \   00004F   12....       LCALL     ?DEALLOC_XSTACK8
    465            tmpLen = (uint8)osal_strlen( (char*)buf );
   \   000052                ; Setup parameters for call to function osal_strlen
   \   000052   AA..         MOV       R2,?XSP + 0
   \   000054   AB..         MOV       R3,?XSP + 1
   \   000056   12....       LCALL     `??osal_strlen::?relay`; Banked call to: osal_strlen
   \   000059   EA           MOV       A,R2
   \   00005A   F5..         MOV       ?V0,A
    466          
    467            buf[tmpLen++] = ',';
   \   00005C   F8           MOV       R0,A
   \   00005D   85..82       MOV       DPL,?XSP + 0
   \   000060   85..83       MOV       DPH,?XSP + 1
   \   000063   E582         MOV       A,DPL
   \   000065   2A           ADD       A,R2
   \   000066   F582         MOV       DPL,A
   \   000068   E4           CLR       A
   \   000069   3583         ADDC      A,DPH
   \   00006B   F583         MOV       DPH,A
   \   00006D   742C         MOV       A,#0x2c
   \   00006F   12....       LCALL     ?Subroutine10 & 0xFFFF
    468            buf[tmpLen++] = ' ';
   \                     ??CrossCallReturnLabel_11:
   \   000072   F582         MOV       DPL,A
   \   000074   E4           CLR       A
   \   000075   3583         ADDC      A,DPH
   \   000077   F583         MOV       DPH,A
   \   000079   7420         MOV       A,#0x20
   \   00007B   12....       LCALL     ?Subroutine10 & 0xFFFF
    469            err = (uint32)(value2);
    470            _ltoa( err, &buf[tmpLen], format2 );
   \                     ??CrossCallReturnLabel_12:
   \   00007E   F5..         MOV       ?V2,A
   \   000080   E4           CLR       A
   \   000081   3583         ADDC      A,DPH
   \   000083   F5..         MOV       ?V3,A
   \   000085   78..         MOV       R0,#?V2
   \   000087   12....       LCALL     ?PUSH_XSTACK_I_TWO
   \   00008A   742C         MOV       A,#0x2c
   \   00008C   12....       LCALL     ?XSTACK_DISP0_8
   \   00008F   E0           MOVX      A,@DPTR
   \   000090   F9           MOV       R1,A
   \   000091   742A         MOV       A,#0x2a
   \   000093   12....       LCALL     ?XSTACK_DISP0_8
   \   000096   E0           MOVX      A,@DPTR
   \   000097   F5..         MOV       ?V2,A
   \   000099   A3           INC       DPTR
   \   00009A   E0           MOVX      A,@DPTR
   \   00009B   AA..         MOV       R2,?V2
   \   00009D   FB           MOV       R3,A
   \   00009E   E4           CLR       A
   \   00009F   FC           MOV       R4,A
   \   0000A0   FD           MOV       R5,A
   \   0000A1   12....       LCALL     `??_ltoa::?relay`; Banked call to: _ltoa
   \   0000A4   7402         MOV       A,#0x2
   \   0000A6   12....       LCALL     ?DEALLOC_XSTACK8
    471          
    472            HalLcdWriteString( (char *)buf, line );		
   \   0000A9                ; Setup parameters for call to function HalLcdWriteString
   \   0000A9   742B         MOV       A,#0x2b
   \   0000AB   02....       LJMP      ?Subroutine3 & 0xFFFF
    473          
    474          #endif
    475          }

   \                                 In  segment BANKED_CODE, align 1, keep-with-next
   \                     ?Subroutine10:
   \   000000   F0           MOVX      @DPTR,A
   \   000001                ; Setup parameters for call to function _ltoa
   \   000001   08           INC       R0
   \   000002   85..82       MOV       DPL,?XSP + 0
   \   000005   85..83       MOV       DPH,?XSP + 1
   \   000008   E582         MOV       A,DPL
   \   00000A   28           ADD       A,R0
   \   00000B   22           RET
    476          
    477          #if (HAL_LCD == TRUE)

   \                                 In  segment BANKED_CODE, align 1, keep-with-next
    478          void DelayMS(unsigned int msec)
   \                     DelayMS:
    479          { 
   \   000000                ; Saved register size: 0
   \   000000                ; Auto size: 0
   \   000000   8019         SJMP      ??DelayMS_0
    480            unsigned int i;
    481            while(msec >0)
    482            {
    483              for (i=0; i<8000; i++) asm("NOP"); //1ms
   \                     ??DelayMS_1:
   \   000002   7840         MOV       R0,#0x40
   \   000004   791F         MOV       R1,#0x1f
   \                     ??DelayMS_2:
   \   000006   00           NOP
   \   000007   E8           MOV       A,R0
   \   000008   24FF         ADD       A,#-0x1
   \   00000A   18           DEC       R0
   \   00000B   E9           MOV       A,R1
   \   00000C   34FF         ADDC      A,#-0x1
   \   00000E   F9           MOV       R1,A
   \   00000F   E8           MOV       A,R0
   \   000010   49           ORL       A,R1
   \   000011   70F3         JNZ       ??DelayMS_2
    484              msec--;
   \   000013   EA           MOV       A,R2
   \   000014   24FF         ADD       A,#-0x1
   \   000016   1A           DEC       R2
   \   000017   EB           MOV       A,R3
   \   000018   34FF         ADDC      A,#-0x1
   \   00001A   FB           MOV       R3,A
    485            }  
   \                     ??DelayMS_0:
   \   00001B   EA           MOV       A,R2
   \   00001C   4B           ORL       A,R3
   \   00001D   70E3         JNZ       ??DelayMS_1
    486          }
   \   00001F   02....       LJMP      ?BRET
    487          
    488          //option 1=第1行  2=第2行 其它类推

   \                                 In  segment BANKED_CODE, align 1, keep-with-next
    489          void HalLcdWriteString (char *s, uint8 option)
   \                     HalLcdWriteString:
    490          {  
   \   000000                REQUIRE ?V0
   \   000000                REQUIRE ?V2
   \   000000                REQUIRE ?V3
   \   000000   74F4         MOV       A,#-0xc
   \   000002   12....       LCALL     ?BANKED_ENTER_XDATA
   \   000005                ; Saved register size: 12
   \   000005                ; Auto size: 0
   \   000005   EA           MOV       A,R2
   \   000006   FE           MOV       R6,A
   \   000007   EB           MOV       A,R3
   \   000008   FF           MOV       R7,A
   \   000009   89..         MOV       ?V0,R1
    491            Color = BLUE;
   \   00000B   90....       MOV       DPTR,#Color
   \   00000E   741F         MOV       A,#0x1f
   \   000010   F0           MOVX      @DPTR,A
   \   000011   A3           INC       DPTR
   \   000012   E4           CLR       A
   \   000013   F0           MOVX      @DPTR,A
    492            Color_BK = WHITE; 
   \   000014   90....       MOV       DPTR,#Color_BK
   \   000017   74FF         MOV       A,#-0x1
   \   000019   F0           MOVX      @DPTR,A
   \   00001A   A3           INC       DPTR
   \   00001B   F0           MOVX      @DPTR,A
    493            DrawRectFill(7,option*15+20,118,15,WHITE); 
   \   00001C                ; Setup parameters for call to function DrawRectFill
   \   00001C   F5..         MOV       ?V2,A
   \   00001E   F5..         MOV       ?V3,A
   \   000020   78..         MOV       R0,#?V2
   \   000022   12....       LCALL     ?PUSH_XSTACK_I_TWO
   \   000025   75..0F       MOV       ?V2,#0xf
   \   000028   75..00       MOV       ?V3,#0x0
   \   00002B   78..         MOV       R0,#?V2
   \   00002D   12....       LCALL     ?PUSH_XSTACK_I_TWO
   \   000030   75..76       MOV       ?V2,#0x76
   \   000033   78..         MOV       R0,#?V2
   \   000035   12....       LCALL     ?PUSH_XSTACK_I_TWO
   \   000038   E9           MOV       A,R1
   \   000039   75F00F       MOV       B,#0xf
   \   00003C   A4           MUL       AB
   \   00003D   A9F0         MOV       R1,B
   \   00003F   2414         ADD       A,#0x14
   \   000041   FC           MOV       R4,A
   \   000042   E4           CLR       A
   \   000043   39           ADDC      A,R1
   \   000044   FD           MOV       R5,A
   \   000045   7A07         MOV       R2,#0x7
   \   000047   7B00         MOV       R3,#0x0
   \   000049   12....       LCALL     `??DrawRectFill::?relay`; Banked call to: DrawRectFill
   \   00004C   7406         MOV       A,#0x6
   \   00004E   12....       LCALL     ?DEALLOC_XSTACK8
    494            LCD_write_EN_string(7,option*15+20,(unsigned char *)s);
   \   000051                ; Setup parameters for call to function LCD_write_EN_string
   \   000051   EE           MOV       A,R6
   \   000052   FC           MOV       R4,A
   \   000053   EF           MOV       A,R7
   \   000054   FD           MOV       R5,A
   \   000055   75F00F       MOV       B,#0xf
   \   000058   E5..         MOV       A,?V0
   \   00005A   A4           MUL       AB
   \   00005B   2414         ADD       A,#0x14
   \   00005D   FA           MOV       R2,A
   \   00005E   7907         MOV       R1,#0x7
   \   000060   12....       LCALL     `??LCD_write_EN_string::?relay`; Banked call to: LCD_write_EN_string
    495          }
   \   000063   80..         SJMP      ??Subroutine13_0

   \                                 In  segment BANKED_CODE, align 1, keep-with-next
   \                     ??Subroutine13_0:
   \   000000   7F04         MOV       R7,#0x4
   \   000002   02....       LJMP      ?BANKED_LEAVE_XDATA
    496          
    497          //向SPI总线传输一个8位数据

   \                                 In  segment BANKED_CODE, align 1, keep-with-next
    498          void SendByte(unsigned char Data)
   \                     SendByte:
    499          {
   \   000000                ; Saved register size: 0
   \   000000                ; Auto size: 0
    500            unsigned char i=0;
    501            
    502            for(i=8;i>0;i--)
   \   000000   7808         MOV       R0,#0x8
    503            {
    504              if(Data&0x80)	
   \                     ??SendByte_0:
   \   000002   E9           MOV       A,R1
   \   000003   A2E7         MOV       C,0xE0 /* A   */.7
   \   000005   5004         JNC       ??SendByte_1
    505                LCD_SDA_SET;//输出数据
   \   000007   D293         SETB      0x90.3
   \   000009   8002         SJMP      ??SendByte_2
    506              else 
    507                LCD_SDA_CLR;
   \                     ??SendByte_1:
   \   00000B   C293         CLR       0x90.3
    508              
    509              LCD_SCL_CLR;       
   \                     ??SendByte_2:
   \   00000D   C292         CLR       0x90.2
    510              LCD_SCL_SET;
   \   00000F   D292         SETB      0x90.2
    511              Data<<=1; 
   \   000011   C3           CLR       C
   \   000012   33           RLC       A
   \   000013   F9           MOV       R1,A
    512            }
   \   000014   18           DEC       R0
   \   000015   E8           MOV       A,R0
   \   000016   70EA         JNZ       ??SendByte_0
    513          }
   \   000018   02....       LJMP      ?BRET
   \   00001B                REQUIRE _A_P1
    514          
    515          //向SPI总线传输一个8位数据

   \                                 In  segment BANKED_CODE, align 1, keep-with-next
    516          void  SPI_WriteData(unsigned char Data)
   \                     SPI_WriteData:
    517          {
   \   000000                ; Saved register size: 0
   \   000000                ; Auto size: 0
    518            unsigned char i=0;
    519            
    520            for(i=8;i>0;i--)
   \   000000   7808         MOV       R0,#0x8
    521            {
    522              if(Data&0x80)	
   \                     ??SPI_WriteData_0:
   \   000002   E9           MOV       A,R1
   \   000003   A2E7         MOV       C,0xE0 /* A   */.7
   \   000005   5004         JNC       ??SPI_WriteData_1
    523                LCD_SDA_SET;//输出数据
   \   000007   D293         SETB      0x90.3
   \   000009   8002         SJMP      ??SPI_WriteData_2
    524              else 
    525                LCD_SDA_CLR;
   \                     ??SPI_WriteData_1:
   \   00000B   C293         CLR       0x90.3
    526              
    527              LCD_SCL_CLR;       
   \                     ??SPI_WriteData_2:
   \   00000D   C292         CLR       0x90.2
    528              LCD_SCL_SET;
   \   00000F   D292         SETB      0x90.2
    529              Data<<=1; 
   \   000011   C3           CLR       C
   \   000012   33           RLC       A
   \   000013   F9           MOV       R1,A
    530            }
   \   000014   18           DEC       R0
   \   000015   E8           MOV       A,R0
   \   000016   70EA         JNZ       ??SPI_WriteData_0
    531          }
   \   000018   02....       LJMP      ?BRET
   \   00001B                REQUIRE _A_P1
    532          
    533          //向液晶屏写一个8位指令

   \                                 In  segment BANKED_CODE, align 1, keep-with-next
   \                     ?Subroutine2:
   \   000000   12....       LCALL     `??SPI_WriteData::?relay`; Banked call to: SPI_WriteData
   \   000003                REQUIRE ??Subroutine12_0
   \   000003                ; // Fall through to label ??Subroutine12_0

   \                                 In  segment BANKED_CODE, align 1, keep-with-next
    534          void LCD_WrCmd(unsigned char Index)
   \                     LCD_WrCmd:
    535          { 
   \   000000   74F7         MOV       A,#-0x9
   \   000002   12....       LCALL     ?BANKED_ENTER_XDATA
   \   000005                ; Saved register size: 9
   \   000005                ; Auto size: 0
    536            //LCD_CS_CLR;  //ALD del  SPI写命令时序开始
    537            LCD_DC_CLR;
   \   000005   C280         CLR       0x80.0
    538            SPI_WriteData(Index);
   \   000007                ; Setup parameters for call to function SPI_WriteData
   \   000007   02....       LJMP      ?Subroutine2 & 0xFFFF
   \   00000A                REQUIRE _A_P0
    539            //LCD_CS_SET;  //ALD del
    540          }
    541          
    542          //向液晶屏写一个8位数据

   \                                 In  segment BANKED_CODE, align 1, keep-with-next
    543          void LCD_WrDat(unsigned char Data)
   \                     LCD_WrDat:
    544          {
   \   000000   74F7         MOV       A,#-0x9
   \   000002   12....       LCALL     ?BANKED_ENTER_XDATA
   \   000005                ; Saved register size: 9
   \   000005                ; Auto size: 0
    545            //LCD_CS_CLR;  //ALD del
    546            LCD_DC_SET;
   \   000005   D280         SETB      0x80.0
    547            SPI_WriteData(Data);
   \   000007                ; Setup parameters for call to function SPI_WriteData
   \   000007   02....       LJMP      ?Subroutine2 & 0xFFFF
   \   00000A                REQUIRE _A_P0
    548            //LCD_CS_SET;  //ALD del 
    549          }
    550          
    551          //向液晶屏写一个16位数据

   \                                 In  segment BANKED_CODE, align 1, keep-with-next
    552          void LCD_WriteData_16Bit(unsigned short Data)
   \                     LCD_WriteData_16Bit:
    553          {
   \   000000   74F7         MOV       A,#-0x9
   \   000002   12....       LCALL     ?BANKED_ENTER_XDATA
   \   000005                ; Saved register size: 9
   \   000005                ; Auto size: 0
   \   000005   EA           MOV       A,R2
   \   000006   FE           MOV       R6,A
   \   000007   EB           MOV       A,R3
    554            //LCD_CS_CLR;  //ALD del
    555            LCD_DC_SET;
   \   000008   D280         SETB      0x80.0
    556            SPI_WriteData(Data>>8); //写入高8位数据
   \   00000A                ; Setup parameters for call to function SPI_WriteData
   \   00000A   F9           MOV       R1,A
   \   00000B   12....       LCALL     `??SPI_WriteData::?relay`; Banked call to: SPI_WriteData
    557            SPI_WriteData(Data); 	  //写入低8位数据
   \   00000E                ; Setup parameters for call to function SPI_WriteData
   \   00000E   EE           MOV       A,R6
   \   00000F   F9           MOV       R1,A
   \   000010   02....       LJMP      ?Subroutine2 & 0xFFFF
   \   000013                REQUIRE _A_P0
    558            //LCD_CS_SET;  //ALD del 
    559          }
    560          
    561          /****************************************************************************
    562          * 名    称: LCD_write_byte()
    563          * 功    能: 数据到LCD 
    564          * 入口参数: data    ―写入的数据
    565          *           command ―写数据/命令选择  
    566          * 出口参数: 无 
    567          ****************************************************************************/

   \                                 In  segment BANKED_CODE, align 1, keep-with-next
    568          static void LCD_write_byte(unsigned char data, unsigned char command)
   \                     LCD_write_byte:
    569          {
   \   000000   74F7         MOV       A,#-0x9
   \   000002   12....       LCALL     ?BANKED_ENTER_XDATA
   \   000005                ; Saved register size: 9
   \   000005                ; Auto size: 0
   \   000005   EA           MOV       A,R2
    570            ////LCD_CS_CLR ;// 使能LCD
    571            if (command == 0)
   \   000006   7005         JNZ       ??LCD_write_byte_0
    572              LCD_WrCmd(data); // 传送命令
   \   000008                ; Setup parameters for call to function LCD_WrCmd
   \   000008   12....       LCALL     `??LCD_WrCmd::?relay`; Banked call to: LCD_WrCmd
   \   00000B   8003         SJMP      ??LCD_write_byte_1
    573            else
    574              LCD_WrDat(data) ; // 传送数据
   \                     ??LCD_write_byte_0:
   \   00000D                ; Setup parameters for call to function LCD_WrDat
   \   00000D   12....       LCALL     `??LCD_WrDat::?relay`; Banked call to: LCD_WrDat
    575            //SendByte(data);
    576            //LCD_CS_SET; // 关闭LCD
    577            //LCD_DC_SET;	
    578          }
   \                     ??LCD_write_byte_1:
   \   000010   02....       LJMP      ??Subroutine12_0 & 0xFFFF
    579          
    580          // 复位lcd

   \                                 In  segment BANKED_CODE, align 1, keep-with-next
    581          void Lcd_Reset(void)
   \                     Lcd_Reset:
    582          {
   \   000000   C082         PUSH      DPL
   \   000002   C083         PUSH      DPH
   \   000004                ; Saved register size: 2
   \   000004                ; Auto size: 0
    583            LCD_RST_CLR;
   \   000004   C297         CLR       0x90.7
    584            DelayMS(110);
   \   000006                ; Setup parameters for call to function DelayMS
   \   000006   7A6E         MOV       R2,#0x6e
   \   000008   7B00         MOV       R3,#0x0
   \   00000A   12....       LCALL     `??DelayMS::?relay`; Banked call to: DelayMS
    585            LCD_RST_SET;
   \   00000D   D297         SETB      0x90.7
    586            DelayMS(50);
   \   00000F                ; Setup parameters for call to function DelayMS
   \   00000F   7A32         MOV       R2,#0x32
   \   000011   7B00         MOV       R3,#0x0
   \   000013   12....       LCALL     `??DelayMS::?relay`; Banked call to: DelayMS
    587          }
   \   000016   02....       LJMP      ?Subroutine0 & 0xFFFF
   \   000019                REQUIRE _A_P1
    588          
    589          /****************************************************************************
    590          * 名    称: LCD_set_window()
    591          * 功    能: 设置显示窗口
    592          * 入口参数: X - 显示窗口左上角横坐标      Y ―显示窗口左上角纵坐标
    593          *           Width ―显示窗口宽度          Height ―显示窗口高度
    594          * 出口参数: 无
    595          ****************************************************************************/

   \                                 In  segment BANKED_CODE, align 1, keep-with-next
    596          static void LCD_set_window(unsigned int X    , unsigned int Y, 
   \                     LCD_set_window:
    597                                     unsigned int Width, unsigned int Height)
    598          {
   \   000000                REQUIRE ?V0
   \   000000                REQUIRE ?V1
   \   000000                REQUIRE ?V2
   \   000000                REQUIRE ?V3
   \   000000   74F4         MOV       A,#-0xc
   \   000002   12....       LCALL     ?BANKED_ENTER_XDATA
   \   000005                ; Saved register size: 12
   \   000005                ; Auto size: 0
   \   000005   8A..         MOV       ?V0,R2
   \   000007   8B..         MOV       ?V1,R3
   \   000009   EC           MOV       A,R4
   \   00000A   FE           MOV       R6,A
   \   00000B   ED           MOV       A,R5
   \   00000C   FF           MOV       R7,A
    599            LCD_write_byte(0x2A,LCD_COMMAND);         //列地址设置命令
   \   00000D                ; Setup parameters for call to function LCD_write_byte
   \   00000D   7A00         MOV       R2,#0x0
   \   00000F   792A         MOV       R1,#0x2a
   \   000011   12....       LCALL     `??LCD_write_byte::?relay`; Banked call to: LCD_write_byte
    600            LCD_write_byte(X>>8,LCD_DATA) ;           //设置显示窗口左上角横坐标高位
   \   000014                ; Setup parameters for call to function LCD_write_byte
   \   000014   7A01         MOV       R2,#0x1
   \   000016   A9..         MOV       R1,?V1
   \   000018   12....       LCALL     `??LCD_write_byte::?relay`; Banked call to: LCD_write_byte
    601            LCD_write_byte((X+2)&0xFF,LCD_DATA);      //设置显示窗口左上角横坐标低位 	
   \   00001B                ; Setup parameters for call to function LCD_write_byte
   \   00001B   7A01         MOV       R2,#0x1
   \   00001D   E5..         MOV       A,?V0
   \   00001F   2402         ADD       A,#0x2
   \   000021   F9           MOV       R1,A
   \   000022   12....       LCALL     `??LCD_write_byte::?relay`; Banked call to: LCD_write_byte
   \   000025   740C         MOV       A,#0xc
   \   000027   12....       LCALL     ?XSTACK_DISP0_8
   \   00002A   12....       LCALL     ?Subroutine9 & 0xFFFF
    602            LCD_write_byte((X+Width+1)>>8,LCD_DATA);  //设置宽度高位 	
   \                     ??CrossCallReturnLabel_8:
   \   00002D                ; Setup parameters for call to function LCD_write_byte
   \   00002D   7A01         MOV       R2,#0x1
   \   00002F   E5..         MOV       A,?V0
   \   000031   25..         ADD       A,?V2
   \   000033   F8           MOV       R0,A
   \   000034   E5..         MOV       A,?V1
   \   000036   35..         ADDC      A,?V3
   \   000038   F9           MOV       R1,A
   \   000039   E8           MOV       A,R0
   \   00003A   2A           ADD       A,R2
   \   00003B   5001         JNC       ??LCD_set_window_0
   \   00003D   09           INC       R1
   \                     ??LCD_set_window_0:
   \   00003E   12....       LCALL     `??LCD_write_byte::?relay`; Banked call to: LCD_write_byte
    603            LCD_write_byte((X+Width+1)&0xFF,LCD_DATA);// 设置宽度低位 	
   \   000041                ; Setup parameters for call to function LCD_write_byte
   \   000041   7A01         MOV       R2,#0x1
   \   000043   E5..         MOV       A,?V0
   \   000045   25..         ADD       A,?V2
   \   000047   2A           ADD       A,R2
   \   000048   F9           MOV       R1,A
   \   000049   12....       LCALL     `??LCD_write_byte::?relay`; Banked call to: LCD_write_byte
    604            
    605            LCD_write_byte(0x2B,LCD_COMMAND);         //行地址设置命令
   \   00004C                ; Setup parameters for call to function LCD_write_byte
   \   00004C   7A00         MOV       R2,#0x0
   \   00004E   792B         MOV       R1,#0x2b
   \   000050   12....       LCALL     `??LCD_write_byte::?relay`; Banked call to: LCD_write_byte
    606            LCD_write_byte(Y>>8,LCD_DATA) ;           //设置显示窗口左上角纵坐标高位
   \   000053                ; Setup parameters for call to function LCD_write_byte
   \   000053   7A01         MOV       R2,#0x1
   \   000055   EF           MOV       A,R7
   \   000056   F9           MOV       R1,A
   \   000057   12....       LCALL     `??LCD_write_byte::?relay`; Banked call to: LCD_write_byte
    607            LCD_write_byte((Y+3)&0xFF,LCD_DATA);      //设置显示窗口左上角纵坐标低位 
   \   00005A                ; Setup parameters for call to function LCD_write_byte
   \   00005A   7A01         MOV       R2,#0x1
   \   00005C   EE           MOV       A,R6
   \   00005D   2403         ADD       A,#0x3
   \   00005F   F9           MOV       R1,A
   \   000060   12....       LCALL     `??LCD_write_byte::?relay`; Banked call to: LCD_write_byte
   \   000063   740E         MOV       A,#0xe
   \   000065   12....       LCALL     ?XSTACK_DISP0_8
   \   000068   E0           MOVX      A,@DPTR
   \   000069   F5..         MOV       ?V0,A
   \   00006B   A3           INC       DPTR
   \   00006C   E0           MOVX      A,@DPTR
   \   00006D   F5..         MOV       ?V1,A
    608            LCD_write_byte((Y+Height+2)>>8,LCD_DATA); // 设置显示窗口高度高位 	
   \   00006F                ; Setup parameters for call to function LCD_write_byte
   \   00006F   7A01         MOV       R2,#0x1
   \   000071   EE           MOV       A,R6
   \   000072   25..         ADD       A,?V0
   \   000074   F8           MOV       R0,A
   \   000075   EF           MOV       A,R7
   \   000076   35..         ADDC      A,?V1
   \   000078   F9           MOV       R1,A
   \   000079   E8           MOV       A,R0
   \   00007A   2402         ADD       A,#0x2
   \   00007C   5001         JNC       ??LCD_set_window_1
   \   00007E   09           INC       R1
   \                     ??LCD_set_window_1:
   \   00007F   12....       LCALL     `??LCD_write_byte::?relay`; Banked call to: LCD_write_byte
    609            LCD_write_byte((Y+Height+2)&0xFF,LCD_DATA);// 设置显示窗口高度低位 	  
   \   000082                ; Setup parameters for call to function LCD_write_byte
   \   000082   7A01         MOV       R2,#0x1
   \   000084   EE           MOV       A,R6
   \   000085   25..         ADD       A,?V0
   \   000087   2402         ADD       A,#0x2
   \   000089   F9           MOV       R1,A
   \   00008A   12....       LCALL     `??LCD_write_byte::?relay`; Banked call to: LCD_write_byte
    610            LCD_write_byte(0x2C,LCD_COMMAND) ;
   \   00008D                ; Setup parameters for call to function LCD_write_byte
   \   00008D   7A00         MOV       R2,#0x0
   \   00008F   792C         MOV       R1,#0x2c
   \   000091   12....       LCALL     `??LCD_write_byte::?relay`; Banked call to: LCD_write_byte
    611          }
   \   000094   02....       LJMP      ??Subroutine13_0 & 0xFFFF

   \                                 In  segment BANKED_CODE, align 1, keep-with-next
   \                     ?Subroutine9:
   \   000000   E0           MOVX      A,@DPTR
   \   000001   F5..         MOV       ?V2,A
   \   000003   A3           INC       DPTR
   \   000004   E0           MOVX      A,@DPTR
   \   000005   F5..         MOV       ?V3,A
   \   000007   22           RET
    612          
    613          /****************************************************************************
    614          * 名    称: DrawPixel()
    615          * 功    能: 在指定位置以指定颜色显示像素
    616          ****************************************************************************/

   \                                 In  segment BANKED_CODE, align 1, keep-with-next
    617          void DrawPixel(unsigned int x, unsigned int y, unsigned int color)
   \                     DrawPixel:
    618          {
   \   000000   74F7         MOV       A,#-0x9
   \   000002   12....       LCALL     ?BANKED_ENTER_XDATA
   \   000005                ; Saved register size: 9
   \   000005                ; Auto size: 0
   \   000005   7409         MOV       A,#0x9
   \   000007   12....       LCALL     ?XSTACK_DISP0_8
   \   00000A   E0           MOVX      A,@DPTR
   \   00000B   FE           MOV       R6,A
   \   00000C   A3           INC       DPTR
   \   00000D   E0           MOVX      A,@DPTR
    619            //LCD_set_XY(x,y);  //设定显示位置 andy
    620            LCD_write_byte(color>>8,LCD_DATA);  //发送显示颜色数据高位字节
   \   00000E                ; Setup parameters for call to function LCD_write_byte
   \   00000E   7A01         MOV       R2,#0x1
   \   000010   F9           MOV       R1,A
   \   000011   12....       LCALL     `??LCD_write_byte::?relay`; Banked call to: LCD_write_byte
    621            LCD_write_byte(color&0xFF,LCD_DATA);//发送显示颜色数据低位字节
   \   000014                ; Setup parameters for call to function LCD_write_byte
   \   000014   7A01         MOV       R2,#0x1
   \   000016   EE           MOV       A,R6
   \   000017   F9           MOV       R1,A
   \   000018   12....       LCALL     `??LCD_write_byte::?relay`; Banked call to: LCD_write_byte
    622          }
   \   00001B   02....       LJMP      ??Subroutine12_0 & 0xFFFF
    623          
    624          /****************************************************************************
    625          * 名    称: DrawVerticalLine()
    626          * 功    能: 在指定位置以指定颜色画垂直线
    627          * 入口参数: X - 垂直线起始位置横坐标      Y ―垂直线起始位置纵坐标
    628          *           Length ―垂直线长度           Color ―垂直线颜色
    629          * 出口参数: 无
    630          ****************************************************************************/

   \                                 In  segment BANKED_CODE, align 1, keep-with-next
    631          void DrawVerticalLine(unsigned int x, unsigned int y, 
   \                     DrawVerticalLine:
    632                                unsigned int Length,unsigned int Color)               
    633          {
   \   000000                REQUIRE ?V0
   \   000000                REQUIRE ?V1
   \   000000                REQUIRE ?V2
   \   000000                REQUIRE ?V4
   \   000000                REQUIRE ?V5
   \   000000                REQUIRE ?V6
   \   000000                REQUIRE ?V7
   \   000000   74F0         MOV       A,#-0x10
   \   000002   12....       LCALL     ?BANKED_ENTER_XDATA
   \   000005                ; Saved register size: 16
   \   000005                ; Auto size: 0
    634            register int  index = 0;
   \   000005   7E00         MOV       R6,#0x0
   \   000007   7F00         MOV       R7,#0x0
   \   000009   7412         MOV       A,#0x12
   \   00000B   12....       LCALL     ?XSTACK_DISP0_8
   \   00000E   12....       LCALL     ?Subroutine8 & 0xFFFF
    635            register char ch,cl;
    636            
    637            ch = (unsigned char)(Color>>8);
    638            cl = (unsigned char)(Color);
   \                     ??CrossCallReturnLabel_6:
   \   000011   12....       LCALL     ?XSTACK_DISP0_8
   \   000014   12....       LCALL     ?Subroutine7 & 0xFFFF
    639            LCD_set_window(x,y,1,Length);
   \                     ??CrossCallReturnLabel_2:
   \   000017                ; Setup parameters for call to function LCD_set_window
   \   000017   78..         MOV       R0,#?V4
   \   000019   12....       LCALL     ?PUSH_XSTACK_I_TWO
   \   00001C   75..01       MOV       ?V6,#0x1
   \   00001F   8E..         MOV       ?V7,R6
   \   000021   78..         MOV       R0,#?V6
   \   000023   12....       LCALL     ?PUSH_XSTACK_I_TWO
   \   000026   12....       LCALL     `??LCD_set_window::?relay`; Banked call to: LCD_set_window
   \   000029   7404         MOV       A,#0x4
   \   00002B   12....       LCALL     ?DEALLOC_XSTACK8
    640            for(index=0;index<Length;index++)
   \   00002E   8013         SJMP      ??DrawVerticalLine_0
    641            {
    642            LCD_write_byte(ch,LCD_DATA) ;
   \                     ??DrawVerticalLine_1:
   \   000030                ; Setup parameters for call to function LCD_write_byte
   \   000030   7A01         MOV       R2,#0x1
   \   000032   A9..         MOV       R1,?V2
   \   000034   12....       LCALL     `??LCD_write_byte::?relay`; Banked call to: LCD_write_byte
    643            LCD_write_byte(cl,LCD_DATA) ;
   \   000037                ; Setup parameters for call to function LCD_write_byte
   \   000037   7A01         MOV       R2,#0x1
   \   000039   A9..         MOV       R1,?V0
   \   00003B   12....       LCALL     `??LCD_write_byte::?relay`; Banked call to: LCD_write_byte
    644            }
   \   00003E   0E           INC       R6
   \   00003F   EE           MOV       A,R6
   \   000040   7001         JNZ       ??DrawVerticalLine_0
   \   000042   0F           INC       R7
   \                     ??DrawVerticalLine_0:
   \   000043   C3           CLR       C
   \   000044   EE           MOV       A,R6
   \   000045   95..         SUBB      A,?V4
   \   000047   EF           MOV       A,R7
   \   000048   95..         SUBB      A,?V5
   \   00004A   40E4         JC        ??DrawVerticalLine_1
    645          }
   \   00004C   02....       LJMP      ?Subroutine5 & 0xFFFF

   \                                 In  segment BANKED_CODE, align 1, keep-with-next
   \                     ?Subroutine8:
   \   000000   E0           MOVX      A,@DPTR
   \   000001   F5..         MOV       ?V0,A
   \   000003   A3           INC       DPTR
   \   000004   E0           MOVX      A,@DPTR
   \   000005   F5..         MOV       ?V2,A
   \   000007   E5..         MOV       A,?V0
   \   000009   F5..         MOV       ?V0,A
   \   00000B   7410         MOV       A,#0x10
   \   00000D   22           RET

   \                                 In  segment BANKED_CODE, align 1, keep-with-next
   \                     ?Subroutine5:
   \   000000   7F08         MOV       R7,#0x8
   \   000002   02....       LJMP      ?BANKED_LEAVE_XDATA

   \                                 In  segment BANKED_CODE, align 1, keep-with-next
   \                     ?Subroutine7:
   \   000000   E0           MOVX      A,@DPTR
   \   000001   F5..         MOV       ?V4,A
   \   000003   A3           INC       DPTR
   \   000004   E0           MOVX      A,@DPTR
   \   000005   F5..         MOV       ?V5,A
   \   000007   22           RET
    646          
    647          /****************************************************************************
    648          * 名    称: DrawHorizonLine()
    649          * 功    能: 在指定位置以指定颜色画水平线
    650          * 入口参数: X - 水平线起始位置横坐标      Y ―水平线起始位置纵坐标
    651          *           Length ―水平线长度           Color ―水平线颜色
    652          * 出口参数: 无
    653          ****************************************************************************/

   \                                 In  segment BANKED_CODE, align 1, keep-with-next
    654          void DrawHorizonLine(unsigned int x, unsigned int y, 
   \                     DrawHorizonLine:
    655                               unsigned int Length,unsigned int Color)               
    656          {
   \   000000                REQUIRE ?V0
   \   000000                REQUIRE ?V1
   \   000000                REQUIRE ?V2
   \   000000                REQUIRE ?V4
   \   000000                REQUIRE ?V5
   \   000000                REQUIRE ?V6
   \   000000                REQUIRE ?V7
   \   000000   74F0         MOV       A,#-0x10
   \   000002   12....       LCALL     ?BANKED_ENTER_XDATA
   \   000005                ; Saved register size: 16
   \   000005                ; Auto size: 0
    657            register int  index = 0;
   \   000005   7E00         MOV       R6,#0x0
   \   000007   7F00         MOV       R7,#0x0
   \   000009   7412         MOV       A,#0x12
   \   00000B   12....       LCALL     ?XSTACK_DISP0_8
   \   00000E   12....       LCALL     ?Subroutine8 & 0xFFFF
    658            register char ch,cl;
    659            
    660            ch = (unsigned char)(Color>>8);
    661            cl = (unsigned char)(Color);
   \                     ??CrossCallReturnLabel_7:
   \   000011   12....       LCALL     ?XSTACK_DISP0_8
   \   000014   12....       LCALL     ?Subroutine7 & 0xFFFF
    662            LCD_set_window(x,y,Length,1);
   \                     ??CrossCallReturnLabel_3:
   \   000017                ; Setup parameters for call to function LCD_set_window
   \   000017   75..01       MOV       ?V6,#0x1
   \   00001A   8E..         MOV       ?V7,R6
   \   00001C   78..         MOV       R0,#?V6
   \   00001E   12....       LCALL     ?PUSH_XSTACK_I_TWO
   \   000021   78..         MOV       R0,#?V4
   \   000023   12....       LCALL     ?PUSH_XSTACK_I_TWO
   \   000026   12....       LCALL     `??LCD_set_window::?relay`; Banked call to: LCD_set_window
   \   000029   7404         MOV       A,#0x4
   \   00002B   12....       LCALL     ?DEALLOC_XSTACK8
    663            for(index=0;index<Length;index++)
   \   00002E   8013         SJMP      ??DrawHorizonLine_0
    664            {
    665              LCD_write_byte(ch,LCD_DATA);
   \                     ??DrawHorizonLine_1:
   \   000030                ; Setup parameters for call to function LCD_write_byte
   \   000030   7A01         MOV       R2,#0x1
   \   000032   A9..         MOV       R1,?V2
   \   000034   12....       LCALL     `??LCD_write_byte::?relay`; Banked call to: LCD_write_byte
    666              LCD_write_byte(cl,LCD_DATA);
   \   000037                ; Setup parameters for call to function LCD_write_byte
   \   000037   7A01         MOV       R2,#0x1
   \   000039   A9..         MOV       R1,?V0
   \   00003B   12....       LCALL     `??LCD_write_byte::?relay`; Banked call to: LCD_write_byte
    667            }
   \   00003E   0E           INC       R6
   \   00003F   EE           MOV       A,R6
   \   000040   7001         JNZ       ??DrawHorizonLine_0
   \   000042   0F           INC       R7
   \                     ??DrawHorizonLine_0:
   \   000043   C3           CLR       C
   \   000044   EE           MOV       A,R6
   \   000045   95..         SUBB      A,?V4
   \   000047   EF           MOV       A,R7
   \   000048   95..         SUBB      A,?V5
   \   00004A   40E4         JC        ??DrawHorizonLine_1
    668          }
   \   00004C   02....       LJMP      ?Subroutine5 & 0xFFFF
    669          
    670          /****************************************************************************
    671          * 名    称: DrawRect()
    672          * 功    能: 在指定位置以指定颜色画矩形
    673          * 入口参数: X - 矩形起始位置横坐标      Y ―矩形起始位置纵坐标
    674          *           Width  ―矩形宽度           Height ―矩形高度                   
    675          *           Color  ―矩形颜色             
    676          * 出口参数: 无
    677          ****************************************************************************/

   \                                 In  segment BANKED_CODE, align 1, keep-with-next
    678          void DrawRect(unsigned int Xpos, unsigned int Ypos, unsigned int Width, 
   \                     DrawRect:
    679                        unsigned int Height,unsigned Color)
    680          {
   \   000000                REQUIRE ?V0
   \   000000                REQUIRE ?V1
   \   000000                REQUIRE ?V2
   \   000000                REQUIRE ?V3
   \   000000                REQUIRE ?V4
   \   000000                REQUIRE ?V5
   \   000000                REQUIRE ?V6
   \   000000                REQUIRE ?V7
   \   000000   74F0         MOV       A,#-0x10
   \   000002   12....       LCALL     ?BANKED_ENTER_XDATA
   \   000005                ; Saved register size: 16
   \   000005                ; Auto size: 0
   \   000005   EA           MOV       A,R2
   \   000006   FE           MOV       R6,A
   \   000007   EB           MOV       A,R3
   \   000008   FF           MOV       R7,A
   \   000009   8C..         MOV       ?V0,R4
   \   00000B   8D..         MOV       ?V1,R5
   \   00000D   7410         MOV       A,#0x10
   \   00000F   12....       LCALL     ?XSTACK_DISP0_8
   \   000012   E0           MOVX      A,@DPTR
   \   000013   F5..         MOV       ?V6,A
   \   000015   A3           INC       DPTR
   \   000016   E0           MOVX      A,@DPTR
   \   000017   F5..         MOV       ?V7,A
   \   000019   7414         MOV       A,#0x14
   \   00001B   12....       LCALL     ?XSTACK_DISP0_8
   \   00001E   12....       LCALL     ?Subroutine9 & 0xFFFF
    681            DrawHorizonLine(Xpos, Ypos, Width, Color) ;
   \                     ??CrossCallReturnLabel_9:
   \   000021                ; Setup parameters for call to function DrawHorizonLine
   \   000021   78..         MOV       R0,#?V2
   \   000023   12....       LCALL     ?PUSH_XSTACK_I_TWO
   \   000026   78..         MOV       R0,#?V6
   \   000028   12....       LCALL     ?PUSH_XSTACK_I_TWO
   \   00002B   12....       LCALL     `??DrawHorizonLine::?relay`; Banked call to: DrawHorizonLine
   \   00002E   7404         MOV       A,#0x4
   \   000030   12....       LCALL     ?DEALLOC_XSTACK8
   \   000033   7412         MOV       A,#0x12
   \   000035   12....       LCALL     ?XSTACK_DISP0_8
   \   000038   12....       LCALL     ?Subroutine7 & 0xFFFF
    682            DrawHorizonLine(Xpos, (Ypos + Height), Width, Color) ;
   \                     ??CrossCallReturnLabel_4:
   \   00003B                ; Setup parameters for call to function DrawHorizonLine
   \   00003B   78..         MOV       R0,#?V2
   \   00003D   12....       LCALL     ?PUSH_XSTACK_I_TWO
   \   000040   78..         MOV       R0,#?V6
   \   000042   12....       LCALL     ?PUSH_XSTACK_I_TWO
   \   000045   E5..         MOV       A,?V0
   \   000047   25..         ADD       A,?V4
   \   000049   FC           MOV       R4,A
   \   00004A   E5..         MOV       A,?V1
   \   00004C   35..         ADDC      A,?V5
   \   00004E   FD           MOV       R5,A
   \   00004F   EE           MOV       A,R6
   \   000050   FA           MOV       R2,A
   \   000051   EF           MOV       A,R7
   \   000052   FB           MOV       R3,A
   \   000053   12....       LCALL     `??DrawHorizonLine::?relay`; Banked call to: DrawHorizonLine
   \   000056   7404         MOV       A,#0x4
   \   000058   12....       LCALL     ?DEALLOC_XSTACK8
    683            DrawVerticalLine(Xpos, Ypos, Height, Color) ;
   \   00005B                ; Setup parameters for call to function DrawVerticalLine
   \   00005B   78..         MOV       R0,#?V2
   \   00005D   12....       LCALL     ?PUSH_XSTACK_I_TWO
   \   000060   78..         MOV       R0,#?V4
   \   000062   12....       LCALL     ?PUSH_XSTACK_I_TWO
   \   000065   AC..         MOV       R4,?V0
   \   000067   AD..         MOV       R5,?V1
   \   000069   EE           MOV       A,R6
   \   00006A   FA           MOV       R2,A
   \   00006B   EF           MOV       A,R7
   \   00006C   FB           MOV       R3,A
   \   00006D   12....       LCALL     `??DrawVerticalLine::?relay`; Banked call to: DrawVerticalLine
   \   000070   7404         MOV       A,#0x4
   \   000072   12....       LCALL     ?DEALLOC_XSTACK8
    684            DrawVerticalLine((Xpos+Width-1) ,Ypos, Height, Color);
   \   000075                ; Setup parameters for call to function DrawVerticalLine
   \   000075   78..         MOV       R0,#?V2
   \   000077   12....       LCALL     ?PUSH_XSTACK_I_TWO
   \   00007A   78..         MOV       R0,#?V4
   \   00007C   12....       LCALL     ?PUSH_XSTACK_I_TWO
   \   00007F   AC..         MOV       R4,?V0
   \   000081   AD..         MOV       R5,?V1
   \   000083   EE           MOV       A,R6
   \   000084   25..         ADD       A,?V6
   \   000086   F8           MOV       R0,A
   \   000087   EF           MOV       A,R7
   \   000088   35..         ADDC      A,?V7
   \   00008A   F9           MOV       R1,A
   \   00008B   E8           MOV       A,R0
   \   00008C   24FF         ADD       A,#-0x1
   \   00008E   FA           MOV       R2,A
   \   00008F   E9           MOV       A,R1
   \   000090   34FF         ADDC      A,#-0x1
   \   000092   FB           MOV       R3,A
   \   000093   12....       LCALL     `??DrawVerticalLine::?relay`; Banked call to: DrawVerticalLine
   \   000096   7404         MOV       A,#0x4
   \   000098   12....       LCALL     ?DEALLOC_XSTACK8
    685          }
   \   00009B                REQUIRE ?Subroutine5
   \   00009B                ; // Fall through to label ?Subroutine5
    686          
    687          /****************************************************************************
    688          * 名    称: DrawRectFill()
    689          * 功    能: 在指定位置以指定颜色画矩形
    690          * 入口参数: X - 矩形起始位置横坐标      Y ―矩形起始位置纵坐标
    691          *           Width  ―矩形宽度           Height ―矩形高度                   
    692          *           Color  ―矩形填充颜色             
    693          * 出口参数: 无
    694          ****************************************************************************/

   \                                 In  segment BANKED_CODE, align 1, keep-with-next
    695          void DrawRectFill(unsigned int Xpos  , unsigned int Ypos, unsigned int Width, 
   \                     DrawRectFill:
    696                            unsigned int Height, unsigned Color                        )
    697          {
   \   000000                REQUIRE ?V0
   \   000000                REQUIRE ?V1
   \   000000                REQUIRE ?V2
   \   000000                REQUIRE ?V3
   \   000000                REQUIRE ?V4
   \   000000                REQUIRE ?V5
   \   000000                REQUIRE ?V6
   \   000000                REQUIRE ?V7
   \   000000   74F0         MOV       A,#-0x10
   \   000002   12....       LCALL     ?BANKED_ENTER_XDATA
   \   000005                ; Saved register size: 16
   \   000005                ; Auto size: 0
   \   000005   7410         MOV       A,#0x10
   \   000007   12....       LCALL     ?XSTACK_DISP0_8
   \   00000A   12....       LCALL     ?Subroutine7 & 0xFFFF
   \                     ??CrossCallReturnLabel_5:
   \   00000D   7412         MOV       A,#0x12
   \   00000F   12....       LCALL     ?XSTACK_DISP0_8
   \   000012   12....       LCALL     ?Subroutine9 & 0xFFFF
    698            register unsigned int i;
    699            register unsigned int index = Width*Height/16+1;
   \                     ??CrossCallReturnLabel_10:
   \   000015   85....       MOV       ?V0,?V4
   \   000018   85....       MOV       ?V1,?V5
   \   00001B   E5..         MOV       A,?V0
   \   00001D   85..F0       MOV       B,?V2
   \   000020   A4           MUL       AB
   \   000021   C5..         XCH       A,?V0
   \   000023   A8F0         MOV       R0,B
   \   000025   85..F0       MOV       B,?V3
   \   000028   A4           MUL       AB
   \   000029   28           ADD       A,R0
   \   00002A   F8           MOV       R0,A
   \   00002B   85..F0       MOV       B,?V2
   \   00002E   E5..         MOV       A,?V1
   \   000030   A4           MUL       AB
   \   000031   28           ADD       A,R0
   \   000032   F5..         MOV       ?V1,A
   \   000034   7404         MOV       A,#0x4
   \   000036   78..         MOV       R0,#?V0
   \   000038   12....       LCALL     ?US_SHR
   \   00003B   E5..         MOV       A,?V0
   \   00003D   2401         ADD       A,#0x1
   \   00003F   F5..         MOV       ?V0,A
   \   000041   5002         JNC       ??DrawRectFill_0
   \   000043   05..         INC       ?V1
   \                     ??DrawRectFill_0:
   \   000045   7414         MOV       A,#0x14
   \   000047   12....       LCALL     ?XSTACK_DISP0_8
   \   00004A   E0           MOVX      A,@DPTR
   \   00004B   F5..         MOV       ?V6,A
   \   00004D   A3           INC       DPTR
   \   00004E   E0           MOVX      A,@DPTR
    700            register char ch,cl;
    701            
    702            ch = (unsigned char)(Color>>8);
   \   00004F   FE           MOV       R6,A
    703            cl = (unsigned char)(Color);
   \   000050   E5..         MOV       A,?V6
   \   000052   FF           MOV       R7,A
    704            LCD_set_window(Xpos,Ypos,Width,Height);
   \   000053                ; Setup parameters for call to function LCD_set_window
   \   000053   78..         MOV       R0,#?V2
   \   000055   12....       LCALL     ?PUSH_XSTACK_I_TWO
   \   000058   78..         MOV       R0,#?V4
   \   00005A   12....       LCALL     ?PUSH_XSTACK_I_TWO
   \   00005D   12....       LCALL     `??LCD_set_window::?relay`; Banked call to: LCD_set_window
   \   000060   7404         MOV       A,#0x4
   \   000062   12....       LCALL     ?DEALLOC_XSTACK8
    705            LCD_write_byte(0x2C,LCD_COMMAND);
   \   000065                ; Setup parameters for call to function LCD_write_byte
   \   000065   7A00         MOV       R2,#0x0
   \   000067   792C         MOV       R1,#0x2c
   \   000069   12....       LCALL     `??LCD_write_byte::?relay`; Banked call to: LCD_write_byte
    706            //LCD_CS_CLR ; andy
    707            LCD_DC_SET ;
   \   00006C   D280         SETB      0x80.0
    708            for(i=0;i<index;i++)
   \   00006E   75..00       MOV       ?V2,#0x0
   \   000071   75..00       MOV       ?V3,#0x0
   \   000074   02....       LJMP      ??DrawRectFill_1 & 0xFFFF
    709            {
    710                SendByte(ch);
   \                     ??DrawRectFill_2:
   \   000077                ; Setup parameters for call to function SendByte
   \   000077   EE           MOV       A,R6
   \   000078   F9           MOV       R1,A
   \   000079   12....       LCALL     `??SendByte::?relay`; Banked call to: SendByte
    711                SendByte(cl);
   \   00007C                ; Setup parameters for call to function SendByte
   \   00007C   EF           MOV       A,R7
   \   00007D   F9           MOV       R1,A
   \   00007E   12....       LCALL     `??SendByte::?relay`; Banked call to: SendByte
    712                SendByte(ch);
   \   000081                ; Setup parameters for call to function SendByte
   \   000081   EE           MOV       A,R6
   \   000082   F9           MOV       R1,A
   \   000083   12....       LCALL     `??SendByte::?relay`; Banked call to: SendByte
    713                SendByte(cl); 
   \   000086                ; Setup parameters for call to function SendByte
   \   000086   EF           MOV       A,R7
   \   000087   F9           MOV       R1,A
   \   000088   12....       LCALL     `??SendByte::?relay`; Banked call to: SendByte
    714                SendByte(ch);
   \   00008B                ; Setup parameters for call to function SendByte
   \   00008B   EE           MOV       A,R6
   \   00008C   F9           MOV       R1,A
   \   00008D   12....       LCALL     `??SendByte::?relay`; Banked call to: SendByte
    715                SendByte(cl);      
   \   000090                ; Setup parameters for call to function SendByte
   \   000090   EF           MOV       A,R7
   \   000091   F9           MOV       R1,A
   \   000092   12....       LCALL     `??SendByte::?relay`; Banked call to: SendByte
    716                SendByte(ch);
   \   000095                ; Setup parameters for call to function SendByte
   \   000095   EE           MOV       A,R6
   \   000096   F9           MOV       R1,A
   \   000097   12....       LCALL     `??SendByte::?relay`; Banked call to: SendByte
    717                SendByte(cl);
   \   00009A                ; Setup parameters for call to function SendByte
   \   00009A   EF           MOV       A,R7
   \   00009B   F9           MOV       R1,A
   \   00009C   12....       LCALL     `??SendByte::?relay`; Banked call to: SendByte
    718                SendByte(ch);
   \   00009F                ; Setup parameters for call to function SendByte
   \   00009F   EE           MOV       A,R6
   \   0000A0   F9           MOV       R1,A
   \   0000A1   12....       LCALL     `??SendByte::?relay`; Banked call to: SendByte
    719                SendByte(cl);
   \   0000A4                ; Setup parameters for call to function SendByte
   \   0000A4   EF           MOV       A,R7
   \   0000A5   F9           MOV       R1,A
   \   0000A6   12....       LCALL     `??SendByte::?relay`; Banked call to: SendByte
    720                SendByte(ch);
   \   0000A9                ; Setup parameters for call to function SendByte
   \   0000A9   EE           MOV       A,R6
   \   0000AA   F9           MOV       R1,A
   \   0000AB   12....       LCALL     `??SendByte::?relay`; Banked call to: SendByte
    721                SendByte(cl);
   \   0000AE                ; Setup parameters for call to function SendByte
   \   0000AE   EF           MOV       A,R7
   \   0000AF   F9           MOV       R1,A
   \   0000B0   12....       LCALL     `??SendByte::?relay`; Banked call to: SendByte
    722                SendByte(ch);
   \   0000B3                ; Setup parameters for call to function SendByte
   \   0000B3   EE           MOV       A,R6
   \   0000B4   F9           MOV       R1,A
   \   0000B5   12....       LCALL     `??SendByte::?relay`; Banked call to: SendByte
    723                SendByte(cl);
   \   0000B8                ; Setup parameters for call to function SendByte
   \   0000B8   EF           MOV       A,R7
   \   0000B9   F9           MOV       R1,A
   \   0000BA   12....       LCALL     `??SendByte::?relay`; Banked call to: SendByte
    724                SendByte(ch);
   \   0000BD                ; Setup parameters for call to function SendByte
   \   0000BD   EE           MOV       A,R6
   \   0000BE   F9           MOV       R1,A
   \   0000BF   12....       LCALL     `??SendByte::?relay`; Banked call to: SendByte
    725                SendByte(cl);
   \   0000C2                ; Setup parameters for call to function SendByte
   \   0000C2   EF           MOV       A,R7
   \   0000C3   F9           MOV       R1,A
   \   0000C4   12....       LCALL     `??SendByte::?relay`; Banked call to: SendByte
    726                SendByte(ch);
   \   0000C7                ; Setup parameters for call to function SendByte
   \   0000C7   EE           MOV       A,R6
   \   0000C8   F9           MOV       R1,A
   \   0000C9   12....       LCALL     `??SendByte::?relay`; Banked call to: SendByte
    727                SendByte(cl);
   \   0000CC                ; Setup parameters for call to function SendByte
   \   0000CC   EF           MOV       A,R7
   \   0000CD   F9           MOV       R1,A
   \   0000CE   12....       LCALL     `??SendByte::?relay`; Banked call to: SendByte
    728                SendByte(ch);
   \   0000D1                ; Setup parameters for call to function SendByte
   \   0000D1   EE           MOV       A,R6
   \   0000D2   F9           MOV       R1,A
   \   0000D3   12....       LCALL     `??SendByte::?relay`; Banked call to: SendByte
    729                SendByte(cl);
   \   0000D6                ; Setup parameters for call to function SendByte
   \   0000D6   EF           MOV       A,R7
   \   0000D7   F9           MOV       R1,A
   \   0000D8   12....       LCALL     `??SendByte::?relay`; Banked call to: SendByte
    730                SendByte(ch);
   \   0000DB                ; Setup parameters for call to function SendByte
   \   0000DB   EE           MOV       A,R6
   \   0000DC   F9           MOV       R1,A
   \   0000DD   12....       LCALL     `??SendByte::?relay`; Banked call to: SendByte
    731                SendByte(cl);
   \   0000E0                ; Setup parameters for call to function SendByte
   \   0000E0   EF           MOV       A,R7
   \   0000E1   F9           MOV       R1,A
   \   0000E2   12....       LCALL     `??SendByte::?relay`; Banked call to: SendByte
    732                SendByte(ch);
   \   0000E5                ; Setup parameters for call to function SendByte
   \   0000E5   EE           MOV       A,R6
   \   0000E6   F9           MOV       R1,A
   \   0000E7   12....       LCALL     `??SendByte::?relay`; Banked call to: SendByte
    733                SendByte(cl);
   \   0000EA                ; Setup parameters for call to function SendByte
   \   0000EA   EF           MOV       A,R7
   \   0000EB   F9           MOV       R1,A
   \   0000EC   12....       LCALL     `??SendByte::?relay`; Banked call to: SendByte
    734                SendByte(ch);
   \   0000EF                ; Setup parameters for call to function SendByte
   \   0000EF   EE           MOV       A,R6
   \   0000F0   F9           MOV       R1,A
   \   0000F1   12....       LCALL     `??SendByte::?relay`; Banked call to: SendByte
    735                SendByte(cl);
   \   0000F4                ; Setup parameters for call to function SendByte
   \   0000F4   EF           MOV       A,R7
   \   0000F5   F9           MOV       R1,A
   \   0000F6   12....       LCALL     `??SendByte::?relay`; Banked call to: SendByte
    736                SendByte(ch);
   \   0000F9                ; Setup parameters for call to function SendByte
   \   0000F9   EE           MOV       A,R6
   \   0000FA   F9           MOV       R1,A
   \   0000FB   12....       LCALL     `??SendByte::?relay`; Banked call to: SendByte
    737                SendByte(cl);
   \   0000FE                ; Setup parameters for call to function SendByte
   \   0000FE   EF           MOV       A,R7
   \   0000FF   F9           MOV       R1,A
   \   000100   12....       LCALL     `??SendByte::?relay`; Banked call to: SendByte
    738                SendByte(ch);
   \   000103                ; Setup parameters for call to function SendByte
   \   000103   EE           MOV       A,R6
   \   000104   F9           MOV       R1,A
   \   000105   12....       LCALL     `??SendByte::?relay`; Banked call to: SendByte
    739                SendByte(cl);
   \   000108                ; Setup parameters for call to function SendByte
   \   000108   EF           MOV       A,R7
   \   000109   F9           MOV       R1,A
   \   00010A   12....       LCALL     `??SendByte::?relay`; Banked call to: SendByte
    740                SendByte(ch);
   \   00010D                ; Setup parameters for call to function SendByte
   \   00010D   EE           MOV       A,R6
   \   00010E   F9           MOV       R1,A
   \   00010F   12....       LCALL     `??SendByte::?relay`; Banked call to: SendByte
    741                SendByte(cl);
   \   000112                ; Setup parameters for call to function SendByte
   \   000112   EF           MOV       A,R7
   \   000113   F9           MOV       R1,A
   \   000114   12....       LCALL     `??SendByte::?relay`; Banked call to: SendByte
    742            }    
   \   000117   05..         INC       ?V2
   \   000119   E5..         MOV       A,?V2
   \   00011B   7002         JNZ       ??DrawRectFill_1
   \   00011D   05..         INC       ?V3
   \                     ??DrawRectFill_1:
   \   00011F   C3           CLR       C
   \   000120   E5..         MOV       A,?V2
   \   000122   95..         SUBB      A,?V0
   \   000124   E5..         MOV       A,?V3
   \   000126   95..         SUBB      A,?V1
   \   000128   5003         JNC       $+5
   \   00012A   02....       LJMP      ??DrawRectFill_2 & 0xFFFF
    743          }
   \   00012D   02....       LJMP      ?Subroutine5 & 0xFFFF
   \   000130                REQUIRE _A_P0
    744          
    745          /****************************************************************************
    746          * 名    称: LCD_clear()
    747          * 功    能: 以指定颜色清屏
    748          * 入口参数: color ―清屏颜色
    749          * 出口参数: 无
    750          ****************************************************************************/

   \                                 In  segment BANKED_CODE, align 1, keep-with-next
   \                     ?Subroutine4:
   \   000000   D280         SETB      0x80.0
   \   000002                REQUIRE ??Subroutine13_0
   \   000002                ; // Fall through to label ??Subroutine13_0

   \                                 In  segment BANKED_CODE, align 1, keep-with-next
    751          void LCD_clear(unsigned int color)
   \                     LCD_clear:
    752          {
   \   000000                REQUIRE ?V0
   \   000000                REQUIRE ?V1
   \   000000                REQUIRE ?V2
   \   000000                REQUIRE ?V3
   \   000000   74F4         MOV       A,#-0xc
   \   000002   12....       LCALL     ?BANKED_ENTER_XDATA
   \   000005                ; Saved register size: 12
   \   000005                ; Auto size: 0
   \   000005   8A..         MOV       ?V0,R2
   \   000007   8B..         MOV       ?V1,R3
    753            register unsigned int  i=0,j=0;
    754            register unsigned char ch;
    755            register unsigned char cl;
    756            
    757            LCD_set_window(0,0,X_MAX_PIXEL,Y_MAX_PIXEL);
   \   000009                ; Setup parameters for call to function LCD_set_window
   \   000009   75..80       MOV       ?V2,#-0x80
   \   00000C   75..00       MOV       ?V3,#0x0
   \   00000F   78..         MOV       R0,#?V2
   \   000011   12....       LCALL     ?PUSH_XSTACK_I_TWO
   \   000014   78..         MOV       R0,#?V2
   \   000016   12....       LCALL     ?PUSH_XSTACK_I_TWO
   \   000019   7C00         MOV       R4,#0x0
   \   00001B   7D00         MOV       R5,#0x0
   \   00001D   7A00         MOV       R2,#0x0
   \   00001F   7B00         MOV       R3,#0x0
   \   000021   12....       LCALL     `??LCD_set_window::?relay`; Banked call to: LCD_set_window
   \   000024   7404         MOV       A,#0x4
   \   000026   12....       LCALL     ?DEALLOC_XSTACK8
    758            ch = color>>8;
   \   000029   E5..         MOV       A,?V1
   \   00002B   FF           MOV       R7,A
    759            cl = color&0xFF;
   \   00002C   E5..         MOV       A,?V0
   \   00002E   FE           MOV       R6,A
    760            LCD_write_byte(0x2C,LCD_COMMAND);
   \   00002F                ; Setup parameters for call to function LCD_write_byte
   \   00002F   7A00         MOV       R2,#0x0
   \   000031   792C         MOV       R1,#0x2c
   \   000033   12....       LCALL     `??LCD_write_byte::?relay`; Banked call to: LCD_write_byte
    761            //LCD_CS_CLR;
    762            LCD_DC_SET;
   \   000036   D280         SETB      0x80.0
    763            for (i=0;i<Y_MAX_PIXEL;i++)
   \   000038   75..80       MOV       ?V1,#-0x80
    764              for (j=0;j<2;j++)
   \                     ??LCD_clear_0:
   \   00003B   75..02       MOV       ?V0,#0x2
    765              {
    766                SendByte(ch);
   \                     ??LCD_clear_1:
   \   00003E                ; Setup parameters for call to function SendByte
   \   00003E   EF           MOV       A,R7
   \   00003F   F9           MOV       R1,A
   \   000040   12....       LCALL     `??SendByte::?relay`; Banked call to: SendByte
    767                SendByte(cl);
   \   000043                ; Setup parameters for call to function SendByte
   \   000043   EE           MOV       A,R6
   \   000044   F9           MOV       R1,A
   \   000045   12....       LCALL     `??SendByte::?relay`; Banked call to: SendByte
    768                SendByte(ch);
   \   000048                ; Setup parameters for call to function SendByte
   \   000048   EF           MOV       A,R7
   \   000049   F9           MOV       R1,A
   \   00004A   12....       LCALL     `??SendByte::?relay`; Banked call to: SendByte
    769                SendByte(cl);
   \   00004D                ; Setup parameters for call to function SendByte
   \   00004D   EE           MOV       A,R6
   \   00004E   F9           MOV       R1,A
   \   00004F   12....       LCALL     `??SendByte::?relay`; Banked call to: SendByte
    770                SendByte(ch);
   \   000052                ; Setup parameters for call to function SendByte
   \   000052   EF           MOV       A,R7
   \   000053   F9           MOV       R1,A
   \   000054   12....       LCALL     `??SendByte::?relay`; Banked call to: SendByte
    771                SendByte(cl);
   \   000057                ; Setup parameters for call to function SendByte
   \   000057   EE           MOV       A,R6
   \   000058   F9           MOV       R1,A
   \   000059   12....       LCALL     `??SendByte::?relay`; Banked call to: SendByte
    772                SendByte(ch);
   \   00005C                ; Setup parameters for call to function SendByte
   \   00005C   EF           MOV       A,R7
   \   00005D   F9           MOV       R1,A
   \   00005E   12....       LCALL     `??SendByte::?relay`; Banked call to: SendByte
    773                SendByte(cl);
   \   000061                ; Setup parameters for call to function SendByte
   \   000061   EE           MOV       A,R6
   \   000062   F9           MOV       R1,A
   \   000063   12....       LCALL     `??SendByte::?relay`; Banked call to: SendByte
    774                SendByte(ch);
   \   000066                ; Setup parameters for call to function SendByte
   \   000066   EF           MOV       A,R7
   \   000067   F9           MOV       R1,A
   \   000068   12....       LCALL     `??SendByte::?relay`; Banked call to: SendByte
    775                SendByte(cl);
   \   00006B                ; Setup parameters for call to function SendByte
   \   00006B   EE           MOV       A,R6
   \   00006C   F9           MOV       R1,A
   \   00006D   12....       LCALL     `??SendByte::?relay`; Banked call to: SendByte
    776                SendByte(ch);
   \   000070                ; Setup parameters for call to function SendByte
   \   000070   EF           MOV       A,R7
   \   000071   F9           MOV       R1,A
   \   000072   12....       LCALL     `??SendByte::?relay`; Banked call to: SendByte
    777                SendByte(cl);
   \   000075                ; Setup parameters for call to function SendByte
   \   000075   EE           MOV       A,R6
   \   000076   F9           MOV       R1,A
   \   000077   12....       LCALL     `??SendByte::?relay`; Banked call to: SendByte
    778                SendByte(ch);
   \   00007A                ; Setup parameters for call to function SendByte
   \   00007A   EF           MOV       A,R7
   \   00007B   F9           MOV       R1,A
   \   00007C   12....       LCALL     `??SendByte::?relay`; Banked call to: SendByte
    779                SendByte(cl);
   \   00007F                ; Setup parameters for call to function SendByte
   \   00007F   EE           MOV       A,R6
   \   000080   F9           MOV       R1,A
   \   000081   12....       LCALL     `??SendByte::?relay`; Banked call to: SendByte
    780                SendByte(ch);
   \   000084                ; Setup parameters for call to function SendByte
   \   000084   EF           MOV       A,R7
   \   000085   F9           MOV       R1,A
   \   000086   12....       LCALL     `??SendByte::?relay`; Banked call to: SendByte
    781                SendByte(cl);
   \   000089                ; Setup parameters for call to function SendByte
   \   000089   EE           MOV       A,R6
   \   00008A   F9           MOV       R1,A
   \   00008B   12....       LCALL     `??SendByte::?relay`; Banked call to: SendByte
    782                SendByte(ch);
   \   00008E                ; Setup parameters for call to function SendByte
   \   00008E   EF           MOV       A,R7
   \   00008F   F9           MOV       R1,A
   \   000090   12....       LCALL     `??SendByte::?relay`; Banked call to: SendByte
    783                SendByte(cl);
   \   000093                ; Setup parameters for call to function SendByte
   \   000093   EE           MOV       A,R6
   \   000094   F9           MOV       R1,A
   \   000095   12....       LCALL     `??SendByte::?relay`; Banked call to: SendByte
    784                SendByte(ch);
   \   000098                ; Setup parameters for call to function SendByte
   \   000098   EF           MOV       A,R7
   \   000099   F9           MOV       R1,A
   \   00009A   12....       LCALL     `??SendByte::?relay`; Banked call to: SendByte
    785                SendByte(cl);
   \   00009D                ; Setup parameters for call to function SendByte
   \   00009D   EE           MOV       A,R6
   \   00009E   F9           MOV       R1,A
   \   00009F   12....       LCALL     `??SendByte::?relay`; Banked call to: SendByte
    786                SendByte(ch);
   \   0000A2                ; Setup parameters for call to function SendByte
   \   0000A2   EF           MOV       A,R7
   \   0000A3   F9           MOV       R1,A
   \   0000A4   12....       LCALL     `??SendByte::?relay`; Banked call to: SendByte
    787                SendByte(cl);
   \   0000A7                ; Setup parameters for call to function SendByte
   \   0000A7   EE           MOV       A,R6
   \   0000A8   F9           MOV       R1,A
   \   0000A9   12....       LCALL     `??SendByte::?relay`; Banked call to: SendByte
    788                SendByte(ch);
   \   0000AC                ; Setup parameters for call to function SendByte
   \   0000AC   EF           MOV       A,R7
   \   0000AD   F9           MOV       R1,A
   \   0000AE   12....       LCALL     `??SendByte::?relay`; Banked call to: SendByte
    789                SendByte(cl);
   \   0000B1                ; Setup parameters for call to function SendByte
   \   0000B1   EE           MOV       A,R6
   \   0000B2   F9           MOV       R1,A
   \   0000B3   12....       LCALL     `??SendByte::?relay`; Banked call to: SendByte
    790                SendByte(ch);
   \   0000B6                ; Setup parameters for call to function SendByte
   \   0000B6   EF           MOV       A,R7
   \   0000B7   F9           MOV       R1,A
   \   0000B8   12....       LCALL     `??SendByte::?relay`; Banked call to: SendByte
    791                SendByte(cl);
   \   0000BB                ; Setup parameters for call to function SendByte
   \   0000BB   EE           MOV       A,R6
   \   0000BC   F9           MOV       R1,A
   \   0000BD   12....       LCALL     `??SendByte::?relay`; Banked call to: SendByte
    792                SendByte(ch);
   \   0000C0                ; Setup parameters for call to function SendByte
   \   0000C0   EF           MOV       A,R7
   \   0000C1   F9           MOV       R1,A
   \   0000C2   12....       LCALL     `??SendByte::?relay`; Banked call to: SendByte
    793                SendByte(cl);
   \   0000C5                ; Setup parameters for call to function SendByte
   \   0000C5   EE           MOV       A,R6
   \   0000C6   F9           MOV       R1,A
   \   0000C7   12....       LCALL     `??SendByte::?relay`; Banked call to: SendByte
    794                SendByte(ch);
   \   0000CA                ; Setup parameters for call to function SendByte
   \   0000CA   EF           MOV       A,R7
   \   0000CB   F9           MOV       R1,A
   \   0000CC   12....       LCALL     `??SendByte::?relay`; Banked call to: SendByte
    795                SendByte(cl);
   \   0000CF                ; Setup parameters for call to function SendByte
   \   0000CF   EE           MOV       A,R6
   \   0000D0   F9           MOV       R1,A
   \   0000D1   12....       LCALL     `??SendByte::?relay`; Banked call to: SendByte
    796                SendByte(ch);
   \   0000D4                ; Setup parameters for call to function SendByte
   \   0000D4   EF           MOV       A,R7
   \   0000D5   F9           MOV       R1,A
   \   0000D6   12....       LCALL     `??SendByte::?relay`; Banked call to: SendByte
    797                SendByte(cl);
   \   0000D9                ; Setup parameters for call to function SendByte
   \   0000D9   EE           MOV       A,R6
   \   0000DA   F9           MOV       R1,A
   \   0000DB   12....       LCALL     `??SendByte::?relay`; Banked call to: SendByte
    798                SendByte(ch);
   \   0000DE                ; Setup parameters for call to function SendByte
   \   0000DE   EF           MOV       A,R7
   \   0000DF   F9           MOV       R1,A
   \   0000E0   12....       LCALL     `??SendByte::?relay`; Banked call to: SendByte
    799                SendByte(cl);
   \   0000E3                ; Setup parameters for call to function SendByte
   \   0000E3   EE           MOV       A,R6
   \   0000E4   F9           MOV       R1,A
   \   0000E5   12....       LCALL     `??SendByte::?relay`; Banked call to: SendByte
    800                SendByte(ch);
   \   0000E8                ; Setup parameters for call to function SendByte
   \   0000E8   EF           MOV       A,R7
   \   0000E9   F9           MOV       R1,A
   \   0000EA   12....       LCALL     `??SendByte::?relay`; Banked call to: SendByte
    801                SendByte(cl);
   \   0000ED                ; Setup parameters for call to function SendByte
   \   0000ED   EE           MOV       A,R6
   \   0000EE   F9           MOV       R1,A
   \   0000EF   12....       LCALL     `??SendByte::?relay`; Banked call to: SendByte
    802                SendByte(ch);
   \   0000F2                ; Setup parameters for call to function SendByte
   \   0000F2   EF           MOV       A,R7
   \   0000F3   F9           MOV       R1,A
   \   0000F4   12....       LCALL     `??SendByte::?relay`; Banked call to: SendByte
    803                SendByte(cl);
   \   0000F7                ; Setup parameters for call to function SendByte
   \   0000F7   EE           MOV       A,R6
   \   0000F8   F9           MOV       R1,A
   \   0000F9   12....       LCALL     `??SendByte::?relay`; Banked call to: SendByte
    804                SendByte(ch);
   \   0000FC                ; Setup parameters for call to function SendByte
   \   0000FC   EF           MOV       A,R7
   \   0000FD   F9           MOV       R1,A
   \   0000FE   12....       LCALL     `??SendByte::?relay`; Banked call to: SendByte
    805                SendByte(cl);
   \   000101                ; Setup parameters for call to function SendByte
   \   000101   EE           MOV       A,R6
   \   000102   F9           MOV       R1,A
   \   000103   12....       LCALL     `??SendByte::?relay`; Banked call to: SendByte
    806                SendByte(ch);
   \   000106                ; Setup parameters for call to function SendByte
   \   000106   EF           MOV       A,R7
   \   000107   F9           MOV       R1,A
   \   000108   12....       LCALL     `??SendByte::?relay`; Banked call to: SendByte
    807                SendByte(cl);
   \   00010B                ; Setup parameters for call to function SendByte
   \   00010B   EE           MOV       A,R6
   \   00010C   F9           MOV       R1,A
   \   00010D   12....       LCALL     `??SendByte::?relay`; Banked call to: SendByte
    808                SendByte(ch);
   \   000110                ; Setup parameters for call to function SendByte
   \   000110   EF           MOV       A,R7
   \   000111   F9           MOV       R1,A
   \   000112   12....       LCALL     `??SendByte::?relay`; Banked call to: SendByte
    809                SendByte(cl);
   \   000115                ; Setup parameters for call to function SendByte
   \   000115   EE           MOV       A,R6
   \   000116   F9           MOV       R1,A
   \   000117   12....       LCALL     `??SendByte::?relay`; Banked call to: SendByte
    810                SendByte(ch);
   \   00011A                ; Setup parameters for call to function SendByte
   \   00011A   EF           MOV       A,R7
   \   00011B   F9           MOV       R1,A
   \   00011C   12....       LCALL     `??SendByte::?relay`; Banked call to: SendByte
    811                SendByte(cl);
   \   00011F                ; Setup parameters for call to function SendByte
   \   00011F   EE           MOV       A,R6
   \   000120   F9           MOV       R1,A
   \   000121   12....       LCALL     `??SendByte::?relay`; Banked call to: SendByte
    812                SendByte(ch);
   \   000124                ; Setup parameters for call to function SendByte
   \   000124   EF           MOV       A,R7
   \   000125   F9           MOV       R1,A
   \   000126   12....       LCALL     `??SendByte::?relay`; Banked call to: SendByte
    813                SendByte(cl);
   \   000129                ; Setup parameters for call to function SendByte
   \   000129   EE           MOV       A,R6
   \   00012A   F9           MOV       R1,A
   \   00012B   12....       LCALL     `??SendByte::?relay`; Banked call to: SendByte
    814                SendByte(ch);
   \   00012E                ; Setup parameters for call to function SendByte
   \   00012E   EF           MOV       A,R7
   \   00012F   F9           MOV       R1,A
   \   000130   12....       LCALL     `??SendByte::?relay`; Banked call to: SendByte
    815                SendByte(cl);
   \   000133                ; Setup parameters for call to function SendByte
   \   000133   EE           MOV       A,R6
   \   000134   F9           MOV       R1,A
   \   000135   12....       LCALL     `??SendByte::?relay`; Banked call to: SendByte
    816                SendByte(ch);
   \   000138                ; Setup parameters for call to function SendByte
   \   000138   EF           MOV       A,R7
   \   000139   F9           MOV       R1,A
   \   00013A   12....       LCALL     `??SendByte::?relay`; Banked call to: SendByte
    817                SendByte(cl);
   \   00013D                ; Setup parameters for call to function SendByte
   \   00013D   EE           MOV       A,R6
   \   00013E   F9           MOV       R1,A
   \   00013F   12....       LCALL     `??SendByte::?relay`; Banked call to: SendByte
    818                SendByte(ch);
   \   000142                ; Setup parameters for call to function SendByte
   \   000142   EF           MOV       A,R7
   \   000143   F9           MOV       R1,A
   \   000144   12....       LCALL     `??SendByte::?relay`; Banked call to: SendByte
    819                SendByte(cl);
   \   000147                ; Setup parameters for call to function SendByte
   \   000147   EE           MOV       A,R6
   \   000148   F9           MOV       R1,A
   \   000149   12....       LCALL     `??SendByte::?relay`; Banked call to: SendByte
    820                SendByte(ch);
   \   00014C                ; Setup parameters for call to function SendByte
   \   00014C   EF           MOV       A,R7
   \   00014D   F9           MOV       R1,A
   \   00014E   12....       LCALL     `??SendByte::?relay`; Banked call to: SendByte
    821                SendByte(cl);
   \   000151                ; Setup parameters for call to function SendByte
   \   000151   EE           MOV       A,R6
   \   000152   F9           MOV       R1,A
   \   000153   12....       LCALL     `??SendByte::?relay`; Banked call to: SendByte
    822                SendByte(ch);
   \   000156                ; Setup parameters for call to function SendByte
   \   000156   EF           MOV       A,R7
   \   000157   F9           MOV       R1,A
   \   000158   12....       LCALL     `??SendByte::?relay`; Banked call to: SendByte
    823                SendByte(cl);
   \   00015B                ; Setup parameters for call to function SendByte
   \   00015B   EE           MOV       A,R6
   \   00015C   F9           MOV       R1,A
   \   00015D   12....       LCALL     `??SendByte::?relay`; Banked call to: SendByte
    824                SendByte(ch);
   \   000160                ; Setup parameters for call to function SendByte
   \   000160   EF           MOV       A,R7
   \   000161   F9           MOV       R1,A
   \   000162   12....       LCALL     `??SendByte::?relay`; Banked call to: SendByte
    825                SendByte(cl);
   \   000165                ; Setup parameters for call to function SendByte
   \   000165   EE           MOV       A,R6
   \   000166   F9           MOV       R1,A
   \   000167   12....       LCALL     `??SendByte::?relay`; Banked call to: SendByte
    826                SendByte(ch);
   \   00016A                ; Setup parameters for call to function SendByte
   \   00016A   EF           MOV       A,R7
   \   00016B   F9           MOV       R1,A
   \   00016C   12....       LCALL     `??SendByte::?relay`; Banked call to: SendByte
    827                SendByte(cl);
   \   00016F                ; Setup parameters for call to function SendByte
   \   00016F   EE           MOV       A,R6
   \   000170   F9           MOV       R1,A
   \   000171   12....       LCALL     `??SendByte::?relay`; Banked call to: SendByte
    828                SendByte(ch);
   \   000174                ; Setup parameters for call to function SendByte
   \   000174   EF           MOV       A,R7
   \   000175   F9           MOV       R1,A
   \   000176   12....       LCALL     `??SendByte::?relay`; Banked call to: SendByte
    829                SendByte(cl);      
   \   000179                ; Setup parameters for call to function SendByte
   \   000179   EE           MOV       A,R6
   \   00017A   F9           MOV       R1,A
   \   00017B   12....       LCALL     `??SendByte::?relay`; Banked call to: SendByte
    830                SendByte(ch);
   \   00017E                ; Setup parameters for call to function SendByte
   \   00017E   EF           MOV       A,R7
   \   00017F   F9           MOV       R1,A
   \   000180   12....       LCALL     `??SendByte::?relay`; Banked call to: SendByte
    831                SendByte(cl);
   \   000183                ; Setup parameters for call to function SendByte
   \   000183   EE           MOV       A,R6
   \   000184   F9           MOV       R1,A
   \   000185   12....       LCALL     `??SendByte::?relay`; Banked call to: SendByte
    832                SendByte(ch);
   \   000188                ; Setup parameters for call to function SendByte
   \   000188   EF           MOV       A,R7
   \   000189   F9           MOV       R1,A
   \   00018A   12....       LCALL     `??SendByte::?relay`; Banked call to: SendByte
    833                SendByte(cl);
   \   00018D                ; Setup parameters for call to function SendByte
   \   00018D   EE           MOV       A,R6
   \   00018E   F9           MOV       R1,A
   \   00018F   12....       LCALL     `??SendByte::?relay`; Banked call to: SendByte
    834                SendByte(ch);
   \   000192                ; Setup parameters for call to function SendByte
   \   000192   EF           MOV       A,R7
   \   000193   F9           MOV       R1,A
   \   000194   12....       LCALL     `??SendByte::?relay`; Banked call to: SendByte
    835                SendByte(cl);
   \   000197                ; Setup parameters for call to function SendByte
   \   000197   EE           MOV       A,R6
   \   000198   F9           MOV       R1,A
   \   000199   12....       LCALL     `??SendByte::?relay`; Banked call to: SendByte
    836                SendByte(ch);
   \   00019C                ; Setup parameters for call to function SendByte
   \   00019C   EF           MOV       A,R7
   \   00019D   F9           MOV       R1,A
   \   00019E   12....       LCALL     `??SendByte::?relay`; Banked call to: SendByte
    837                SendByte(cl);
   \   0001A1                ; Setup parameters for call to function SendByte
   \   0001A1   EE           MOV       A,R6
   \   0001A2   F9           MOV       R1,A
   \   0001A3   12....       LCALL     `??SendByte::?relay`; Banked call to: SendByte
    838                SendByte(ch);
   \   0001A6                ; Setup parameters for call to function SendByte
   \   0001A6   EF           MOV       A,R7
   \   0001A7   F9           MOV       R1,A
   \   0001A8   12....       LCALL     `??SendByte::?relay`; Banked call to: SendByte
    839                SendByte(cl);
   \   0001AB                ; Setup parameters for call to function SendByte
   \   0001AB   EE           MOV       A,R6
   \   0001AC   F9           MOV       R1,A
   \   0001AD   12....       LCALL     `??SendByte::?relay`; Banked call to: SendByte
    840                SendByte(ch);
   \   0001B0                ; Setup parameters for call to function SendByte
   \   0001B0   EF           MOV       A,R7
   \   0001B1   F9           MOV       R1,A
   \   0001B2   12....       LCALL     `??SendByte::?relay`; Banked call to: SendByte
    841                SendByte(cl);
   \   0001B5                ; Setup parameters for call to function SendByte
   \   0001B5   EE           MOV       A,R6
   \   0001B6   F9           MOV       R1,A
   \   0001B7   12....       LCALL     `??SendByte::?relay`; Banked call to: SendByte
    842                SendByte(ch);
   \   0001BA                ; Setup parameters for call to function SendByte
   \   0001BA   EF           MOV       A,R7
   \   0001BB   F9           MOV       R1,A
   \   0001BC   12....       LCALL     `??SendByte::?relay`; Banked call to: SendByte
    843                SendByte(cl);
   \   0001BF                ; Setup parameters for call to function SendByte
   \   0001BF   EE           MOV       A,R6
   \   0001C0   F9           MOV       R1,A
   \   0001C1   12....       LCALL     `??SendByte::?relay`; Banked call to: SendByte
    844                SendByte(ch);
   \   0001C4                ; Setup parameters for call to function SendByte
   \   0001C4   EF           MOV       A,R7
   \   0001C5   F9           MOV       R1,A
   \   0001C6   12....       LCALL     `??SendByte::?relay`; Banked call to: SendByte
    845                SendByte(cl);
   \   0001C9                ; Setup parameters for call to function SendByte
   \   0001C9   EE           MOV       A,R6
   \   0001CA   F9           MOV       R1,A
   \   0001CB   12....       LCALL     `??SendByte::?relay`; Banked call to: SendByte
    846                SendByte(ch);
   \   0001CE                ; Setup parameters for call to function SendByte
   \   0001CE   EF           MOV       A,R7
   \   0001CF   F9           MOV       R1,A
   \   0001D0   12....       LCALL     `??SendByte::?relay`; Banked call to: SendByte
    847                SendByte(cl);
   \   0001D3                ; Setup parameters for call to function SendByte
   \   0001D3   EE           MOV       A,R6
   \   0001D4   F9           MOV       R1,A
   \   0001D5   12....       LCALL     `??SendByte::?relay`; Banked call to: SendByte
    848                SendByte(ch);
   \   0001D8                ; Setup parameters for call to function SendByte
   \   0001D8   EF           MOV       A,R7
   \   0001D9   F9           MOV       R1,A
   \   0001DA   12....       LCALL     `??SendByte::?relay`; Banked call to: SendByte
    849                SendByte(cl);
   \   0001DD                ; Setup parameters for call to function SendByte
   \   0001DD   EE           MOV       A,R6
   \   0001DE   F9           MOV       R1,A
   \   0001DF   12....       LCALL     `??SendByte::?relay`; Banked call to: SendByte
    850                SendByte(ch);
   \   0001E2                ; Setup parameters for call to function SendByte
   \   0001E2   EF           MOV       A,R7
   \   0001E3   F9           MOV       R1,A
   \   0001E4   12....       LCALL     `??SendByte::?relay`; Banked call to: SendByte
    851                SendByte(cl);
   \   0001E7                ; Setup parameters for call to function SendByte
   \   0001E7   EE           MOV       A,R6
   \   0001E8   F9           MOV       R1,A
   \   0001E9   12....       LCALL     `??SendByte::?relay`; Banked call to: SendByte
    852                SendByte(ch);
   \   0001EC                ; Setup parameters for call to function SendByte
   \   0001EC   EF           MOV       A,R7
   \   0001ED   F9           MOV       R1,A
   \   0001EE   12....       LCALL     `??SendByte::?relay`; Banked call to: SendByte
    853                SendByte(cl);
   \   0001F1                ; Setup parameters for call to function SendByte
   \   0001F1   EE           MOV       A,R6
   \   0001F2   F9           MOV       R1,A
   \   0001F3   12....       LCALL     `??SendByte::?relay`; Banked call to: SendByte
    854                SendByte(ch);
   \   0001F6                ; Setup parameters for call to function SendByte
   \   0001F6   EF           MOV       A,R7
   \   0001F7   F9           MOV       R1,A
   \   0001F8   12....       LCALL     `??SendByte::?relay`; Banked call to: SendByte
    855                SendByte(cl);
   \   0001FB                ; Setup parameters for call to function SendByte
   \   0001FB   EE           MOV       A,R6
   \   0001FC   F9           MOV       R1,A
   \   0001FD   12....       LCALL     `??SendByte::?relay`; Banked call to: SendByte
    856                SendByte(ch);
   \   000200                ; Setup parameters for call to function SendByte
   \   000200   EF           MOV       A,R7
   \   000201   F9           MOV       R1,A
   \   000202   12....       LCALL     `??SendByte::?relay`; Banked call to: SendByte
    857                SendByte(cl);
   \   000205                ; Setup parameters for call to function SendByte
   \   000205   EE           MOV       A,R6
   \   000206   F9           MOV       R1,A
   \   000207   12....       LCALL     `??SendByte::?relay`; Banked call to: SendByte
    858                SendByte(ch);
   \   00020A                ; Setup parameters for call to function SendByte
   \   00020A   EF           MOV       A,R7
   \   00020B   F9           MOV       R1,A
   \   00020C   12....       LCALL     `??SendByte::?relay`; Banked call to: SendByte
    859                SendByte(cl);
   \   00020F                ; Setup parameters for call to function SendByte
   \   00020F   EE           MOV       A,R6
   \   000210   F9           MOV       R1,A
   \   000211   12....       LCALL     `??SendByte::?relay`; Banked call to: SendByte
    860                SendByte(ch);
   \   000214                ; Setup parameters for call to function SendByte
   \   000214   EF           MOV       A,R7
   \   000215   F9           MOV       R1,A
   \   000216   12....       LCALL     `??SendByte::?relay`; Banked call to: SendByte
    861                SendByte(cl);
   \   000219                ; Setup parameters for call to function SendByte
   \   000219   EE           MOV       A,R6
   \   00021A   F9           MOV       R1,A
   \   00021B   12....       LCALL     `??SendByte::?relay`; Banked call to: SendByte
    862                SendByte(ch);
   \   00021E                ; Setup parameters for call to function SendByte
   \   00021E   EF           MOV       A,R7
   \   00021F   F9           MOV       R1,A
   \   000220   12....       LCALL     `??SendByte::?relay`; Banked call to: SendByte
    863                SendByte(cl);
   \   000223                ; Setup parameters for call to function SendByte
   \   000223   EE           MOV       A,R6
   \   000224   F9           MOV       R1,A
   \   000225   12....       LCALL     `??SendByte::?relay`; Banked call to: SendByte
    864                SendByte(ch);
   \   000228                ; Setup parameters for call to function SendByte
   \   000228   EF           MOV       A,R7
   \   000229   F9           MOV       R1,A
   \   00022A   12....       LCALL     `??SendByte::?relay`; Banked call to: SendByte
    865                SendByte(cl);
   \   00022D                ; Setup parameters for call to function SendByte
   \   00022D   EE           MOV       A,R6
   \   00022E   F9           MOV       R1,A
   \   00022F   12....       LCALL     `??SendByte::?relay`; Banked call to: SendByte
    866                SendByte(ch);
   \   000232                ; Setup parameters for call to function SendByte
   \   000232   EF           MOV       A,R7
   \   000233   F9           MOV       R1,A
   \   000234   12....       LCALL     `??SendByte::?relay`; Banked call to: SendByte
    867                SendByte(cl);
   \   000237                ; Setup parameters for call to function SendByte
   \   000237   EE           MOV       A,R6
   \   000238   F9           MOV       R1,A
   \   000239   12....       LCALL     `??SendByte::?relay`; Banked call to: SendByte
    868                SendByte(ch);
   \   00023C                ; Setup parameters for call to function SendByte
   \   00023C   EF           MOV       A,R7
   \   00023D   F9           MOV       R1,A
   \   00023E   12....       LCALL     `??SendByte::?relay`; Banked call to: SendByte
    869                SendByte(cl);
   \   000241                ; Setup parameters for call to function SendByte
   \   000241   EE           MOV       A,R6
   \   000242   F9           MOV       R1,A
   \   000243   12....       LCALL     `??SendByte::?relay`; Banked call to: SendByte
    870                SendByte(ch);
   \   000246                ; Setup parameters for call to function SendByte
   \   000246   EF           MOV       A,R7
   \   000247   F9           MOV       R1,A
   \   000248   12....       LCALL     `??SendByte::?relay`; Banked call to: SendByte
    871                SendByte(cl);
   \   00024B                ; Setup parameters for call to function SendByte
   \   00024B   EE           MOV       A,R6
   \   00024C   F9           MOV       R1,A
   \   00024D   12....       LCALL     `??SendByte::?relay`; Banked call to: SendByte
    872                SendByte(ch);
   \   000250                ; Setup parameters for call to function SendByte
   \   000250   EF           MOV       A,R7
   \   000251   F9           MOV       R1,A
   \   000252   12....       LCALL     `??SendByte::?relay`; Banked call to: SendByte
    873                SendByte(cl);
   \   000255                ; Setup parameters for call to function SendByte
   \   000255   EE           MOV       A,R6
   \   000256   F9           MOV       R1,A
   \   000257   12....       LCALL     `??SendByte::?relay`; Banked call to: SendByte
    874                SendByte(ch);
   \   00025A                ; Setup parameters for call to function SendByte
   \   00025A   EF           MOV       A,R7
   \   00025B   F9           MOV       R1,A
   \   00025C   12....       LCALL     `??SendByte::?relay`; Banked call to: SendByte
    875                SendByte(cl);
   \   00025F                ; Setup parameters for call to function SendByte
   \   00025F   EE           MOV       A,R6
   \   000260   F9           MOV       R1,A
   \   000261   12....       LCALL     `??SendByte::?relay`; Banked call to: SendByte
    876                SendByte(ch);
   \   000264                ; Setup parameters for call to function SendByte
   \   000264   EF           MOV       A,R7
   \   000265   F9           MOV       R1,A
   \   000266   12....       LCALL     `??SendByte::?relay`; Banked call to: SendByte
    877                SendByte(cl);
   \   000269                ; Setup parameters for call to function SendByte
   \   000269   EE           MOV       A,R6
   \   00026A   F9           MOV       R1,A
   \   00026B   12....       LCALL     `??SendByte::?relay`; Banked call to: SendByte
    878                SendByte(ch);
   \   00026E                ; Setup parameters for call to function SendByte
   \   00026E   EF           MOV       A,R7
   \   00026F   F9           MOV       R1,A
   \   000270   12....       LCALL     `??SendByte::?relay`; Banked call to: SendByte
    879                SendByte(cl);
   \   000273                ; Setup parameters for call to function SendByte
   \   000273   EE           MOV       A,R6
   \   000274   F9           MOV       R1,A
   \   000275   12....       LCALL     `??SendByte::?relay`; Banked call to: SendByte
    880                SendByte(ch);
   \   000278                ; Setup parameters for call to function SendByte
   \   000278   EF           MOV       A,R7
   \   000279   F9           MOV       R1,A
   \   00027A   12....       LCALL     `??SendByte::?relay`; Banked call to: SendByte
    881                SendByte(cl);
   \   00027D                ; Setup parameters for call to function SendByte
   \   00027D   EE           MOV       A,R6
   \   00027E   F9           MOV       R1,A
   \   00027F   12....       LCALL     `??SendByte::?relay`; Banked call to: SendByte
    882                SendByte(ch);
   \   000282                ; Setup parameters for call to function SendByte
   \   000282   EF           MOV       A,R7
   \   000283   F9           MOV       R1,A
   \   000284   12....       LCALL     `??SendByte::?relay`; Banked call to: SendByte
    883                SendByte(cl);
   \   000287                ; Setup parameters for call to function SendByte
   \   000287   EE           MOV       A,R6
   \   000288   F9           MOV       R1,A
   \   000289   12....       LCALL     `??SendByte::?relay`; Banked call to: SendByte
    884                SendByte(ch);
   \   00028C                ; Setup parameters for call to function SendByte
   \   00028C   EF           MOV       A,R7
   \   00028D   F9           MOV       R1,A
   \   00028E   12....       LCALL     `??SendByte::?relay`; Banked call to: SendByte
    885                SendByte(cl);
   \   000291                ; Setup parameters for call to function SendByte
   \   000291   EE           MOV       A,R6
   \   000292   F9           MOV       R1,A
   \   000293   12....       LCALL     `??SendByte::?relay`; Banked call to: SendByte
    886                SendByte(ch);
   \   000296                ; Setup parameters for call to function SendByte
   \   000296   EF           MOV       A,R7
   \   000297   F9           MOV       R1,A
   \   000298   12....       LCALL     `??SendByte::?relay`; Banked call to: SendByte
    887                SendByte(cl);
   \   00029B                ; Setup parameters for call to function SendByte
   \   00029B   EE           MOV       A,R6
   \   00029C   F9           MOV       R1,A
   \   00029D   12....       LCALL     `??SendByte::?relay`; Banked call to: SendByte
    888                SendByte(ch);
   \   0002A0                ; Setup parameters for call to function SendByte
   \   0002A0   EF           MOV       A,R7
   \   0002A1   F9           MOV       R1,A
   \   0002A2   12....       LCALL     `??SendByte::?relay`; Banked call to: SendByte
    889                SendByte(cl);
   \   0002A5                ; Setup parameters for call to function SendByte
   \   0002A5   EE           MOV       A,R6
   \   0002A6   F9           MOV       R1,A
   \   0002A7   12....       LCALL     `??SendByte::?relay`; Banked call to: SendByte
    890                SendByte(ch);
   \   0002AA                ; Setup parameters for call to function SendByte
   \   0002AA   EF           MOV       A,R7
   \   0002AB   F9           MOV       R1,A
   \   0002AC   12....       LCALL     `??SendByte::?relay`; Banked call to: SendByte
    891                SendByte(cl);
   \   0002AF                ; Setup parameters for call to function SendByte
   \   0002AF   EE           MOV       A,R6
   \   0002B0   F9           MOV       R1,A
   \   0002B1   12....       LCALL     `??SendByte::?relay`; Banked call to: SendByte
    892                SendByte(ch);
   \   0002B4                ; Setup parameters for call to function SendByte
   \   0002B4   EF           MOV       A,R7
   \   0002B5   F9           MOV       R1,A
   \   0002B6   12....       LCALL     `??SendByte::?relay`; Banked call to: SendByte
    893                SendByte(cl);
   \   0002B9                ; Setup parameters for call to function SendByte
   \   0002B9   EE           MOV       A,R6
   \   0002BA   F9           MOV       R1,A
   \   0002BB   12....       LCALL     `??SendByte::?relay`; Banked call to: SendByte
    894              }
   \   0002BE   15..         DEC       ?V0
   \   0002C0   E5..         MOV       A,?V0
   \   0002C2   6003         JZ        $+5
   \   0002C4   02....       LJMP      ??LCD_clear_1 & 0xFFFF
   \   0002C7   15..         DEC       ?V1
   \   0002C9   E5..         MOV       A,?V1
   \   0002CB   6003         JZ        $+5
   \   0002CD   02....       LJMP      ??LCD_clear_0 & 0xFFFF
    895            LCD_DC_SET;
   \   0002D0   02....       LJMP      ?Subroutine4 & 0xFFFF
   \   0002D3                REQUIRE _A_P0
    896            //LCD_CS_SET;
    897          }
    898          
    899          /****************************************************************************
    900          * 名    称: LCD_write_EN()
    901          * 功    能: 在指定位置显示 7 ×14 点阵ASCII字符 
    902          * 入口参数: X - 显示位置左上角横坐标      Y ―显示位置左上角纵坐标
    903          *           c ―显示字符                  
    904          * 出口参数: 无
    905          ****************************************************************************/

   \                                 In  segment BANKED_CODE, align 1, keep-with-next
    906          static void LCD_write_EN(unsigned int X, unsigned int Y, unsigned char c)
   \                     LCD_write_EN:
    907          {
   \   000000                REQUIRE ?V0
   \   000000                REQUIRE ?V1
   \   000000                REQUIRE ?V2
   \   000000                REQUIRE ?V3
   \   000000   74F4         MOV       A,#-0xc
   \   000002   12....       LCALL     ?BANKED_ENTER_XDATA
   \   000005                ; Saved register size: 12
   \   000005                ; Auto size: 0
   \   000005   89..         MOV       ?V1,R1
    908            unsigned char i,j,temp;
    909            
    910            LCD_set_window(X,Y,7,14);
   \   000007                ; Setup parameters for call to function LCD_set_window
   \   000007   75..0E       MOV       ?V2,#0xe
   \   00000A   75..00       MOV       ?V3,#0x0
   \   00000D   78..         MOV       R0,#?V2
   \   00000F   12....       LCALL     ?PUSH_XSTACK_I_TWO
   \   000012   75..07       MOV       ?V2,#0x7
   \   000015   78..         MOV       R0,#?V2
   \   000017   12....       LCALL     ?PUSH_XSTACK_I_TWO
   \   00001A   12....       LCALL     `??LCD_set_window::?relay`; Banked call to: LCD_set_window
   \   00001D   7404         MOV       A,#0x4
   \   00001F   12....       LCALL     ?DEALLOC_XSTACK8
    911            //LCD_CS_CLR ;
    912            LCD_DC_SET ;
   \   000022   D280         SETB      0x80.0
    913            for(i=0;i<14;i++)
   \   000024   7F00         MOV       R7,#0x0
    914            {
    915              temp = ASCII7x14[c-32][i];
   \                     ??LCD_write_EN_0:
   \   000026   E5..         MOV       A,?V1
   \   000028   75F00E       MOV       B,#0xe
   \   00002B   A4           MUL       AB
   \   00002C   FA           MOV       R2,A
   \   00002D   ABF0         MOV       R3,B
   \   00002F   EF           MOV       A,R7
   \   000030   F8           MOV       R0,A
   \   000031   74..         MOV       A,#(ASCII7x14 + 64) & 0xff
   \   000033   28           ADD       A,R0
   \   000034   F8           MOV       R0,A
   \   000035   E4           CLR       A
   \   000036   34..         ADDC      A,#((ASCII7x14 - 448) >> 8) & 0xff
   \   000038   F9           MOV       R1,A
   \   000039   E8           MOV       A,R0
   \   00003A   2A           ADD       A,R2
   \   00003B   F582         MOV       DPL,A
   \   00003D   E9           MOV       A,R1
   \   00003E   3B           ADDC      A,R3
   \   00003F   F583         MOV       DPH,A
   \   000041   E4           CLR       A
   \   000042   93           MOVC      A,@A+DPTR
   \   000043   FE           MOV       R6,A
    916              for(j=0;j<7;j++)
   \   000044   75..07       MOV       ?V0,#0x7
    917              {
    918                if(temp&0x80)
   \                     ??LCD_write_EN_1:
   \   000047   EE           MOV       A,R6
   \   000048   A2E7         MOV       C,0xE0 /* A   */.7
   \   00004A   500D         JNC       ??LCD_write_EN_2
    919                {
    920                  SendByte(Color>>8);  
   \   00004C                ; Setup parameters for call to function SendByte
   \   00004C   90....       MOV       DPTR,#Color + 1
   \   00004F   E0           MOVX      A,@DPTR
   \   000050   F9           MOV       R1,A
   \   000051   12....       LCALL     `??SendByte::?relay`; Banked call to: SendByte
    921                  SendByte(Color) ;
   \   000054                ; Setup parameters for call to function SendByte
   \   000054   90....       MOV       DPTR,#Color
   \   000057   800B         SJMP      ??LCD_write_EN_3
    922                }
    923                else
    924                {
    925                  SendByte(Color_BK>>8) ;  
   \                     ??LCD_write_EN_2:
   \   000059                ; Setup parameters for call to function SendByte
   \   000059   90....       MOV       DPTR,#Color_BK + 1
   \   00005C   E0           MOVX      A,@DPTR
   \   00005D   F9           MOV       R1,A
   \   00005E   12....       LCALL     `??SendByte::?relay`; Banked call to: SendByte
    926                  SendByte(Color_BK);
   \   000061                ; Setup parameters for call to function SendByte
   \   000061   90....       MOV       DPTR,#Color_BK
   \                     ??LCD_write_EN_3:
   \   000064   E0           MOVX      A,@DPTR
   \   000065   F9           MOV       R1,A
   \   000066   12....       LCALL     `??SendByte::?relay`; Banked call to: SendByte
    927                }            
    928                temp <<= 1 ;
   \   000069   EE           MOV       A,R6
   \   00006A   C3           CLR       C
   \   00006B   33           RLC       A
   \   00006C   FE           MOV       R6,A
    929              }
   \   00006D   15..         DEC       ?V0
   \   00006F   E5..         MOV       A,?V0
   \   000071   70D4         JNZ       ??LCD_write_EN_1
    930            }
   \   000073   0F           INC       R7
   \   000074   EF           MOV       A,R7
   \   000075   C3           CLR       C
   \   000076   940E         SUBB      A,#0xe
   \   000078   40AC         JC        ??LCD_write_EN_0
    931            //LCD_CS_SET ; andy
    932            LCD_DC_SET ;
   \   00007A   02....       LJMP      ?Subroutine4 & 0xFFFF
   \   00007D                REQUIRE _A_P0
    933          }
    934          
    935          /****************************************************************************
    936          * 名    称: LCD_write_EN_string()
    937          * 功    能: 在指定位置显示 7 ×14 点阵ASCII字符串 
    938          * 入口参数: X - 显示位置左上角横坐标      Y ―显示位置左上角纵坐标
    939          *           s ―字符串指针                  
    940          * 出口参数: 无
    941          ****************************************************************************/

   \                                 In  segment BANKED_CODE, align 1, keep-with-next
    942          void LCD_write_EN_string(unsigned char X,unsigned char Y,uint8 *s)
   \                     LCD_write_EN_string:
    943          {
   \   000000                REQUIRE ?V0
   \   000000                REQUIRE ?V1
   \   000000                REQUIRE ?V2
   \   000000                REQUIRE ?V3
   \   000000                REQUIRE ?V4
   \   000000   74F3         MOV       A,#-0xd
   \   000002   12....       LCALL     ?BANKED_ENTER_XDATA
   \   000005                ; Saved register size: 13
   \   000005                ; Auto size: 0
   \   000005   89..         MOV       ?V1,R1
   \   000007   8A..         MOV       ?V4,R2
   \   000009   EC           MOV       A,R4
   \   00000A   FE           MOV       R6,A
   \   00000B   ED           MOV       A,R5
   \   00000C   FF           MOV       R7,A
    944            unsigned char i=0;
   \   00000D   75..00       MOV       ?V0,#0x0
    945            
    946            while (*s)
   \                     ??LCD_write_EN_string_0:
   \   000010   8E82         MOV       DPL,R6
   \   000012   8F83         MOV       DPH,R7
   \   000014   E0           MOVX      A,@DPTR
   \   000015   602E         JZ        ??LCD_write_EN_string_1
    947            {
    948              LCD_write_EN(X+i*7,Y,*s);
   \   000017                ; Setup parameters for call to function LCD_write_EN
   \   000017   F9           MOV       R1,A
   \   000018   AC..         MOV       R4,?V4
   \   00001A   7D00         MOV       R5,#0x0
   \   00001C   E5..         MOV       A,?V1
   \   00001E   F5..         MOV       ?V2,A
   \   000020   E5..         MOV       A,?V0
   \   000022   75F007       MOV       B,#0x7
   \   000025   A4           MUL       AB
   \   000026   FA           MOV       R2,A
   \   000027   ABF0         MOV       R3,B
   \   000029   E5..         MOV       A,?V2
   \   00002B   2A           ADD       A,R2
   \   00002C   FA           MOV       R2,A
   \   00002D   E4           CLR       A
   \   00002E   3B           ADDC      A,R3
   \   00002F   FB           MOV       R3,A
   \   000030   12....       LCALL     `??LCD_write_EN::?relay`; Banked call to: LCD_write_EN
    949              s++;
   \   000033   8E82         MOV       DPL,R6
   \   000035   8F83         MOV       DPH,R7
   \   000037   A3           INC       DPTR
   \   000038   AE82         MOV       R6,DPL
   \   00003A   AF83         MOV       R7,DPH
    950              i++;
   \   00003C   05..         INC       ?V0
    951              if(i>=HAL_LCD_MAX_CHARS)return;
   \   00003E   E5..         MOV       A,?V0
   \   000040   C3           CLR       C
   \   000041   9410         SUBB      A,#0x10
   \   000043   40CB         JC        ??LCD_write_EN_string_0
    952            }
    953            return;
   \                     ??LCD_write_EN_string_1:
   \   000045   7F05         MOV       R7,#0x5
   \   000047   02....       LJMP      ?BANKED_LEAVE_XDATA
    954          }
    955          
    956          /****************************************************************************
    957          * 名    称: LCD_write_CN()
    958          * 功    能: 在指定位置显示 14 ×14 点阵汉字字符  
    959          * 入口参数: X - 显示位置左上角横坐标      Y ―显示位置左上角纵坐标
    960          *           c ―显示字符指针                  
    961          * 出口参数: 无
    962          ****************************************************************************/

   \                                 In  segment BANKED_CODE, align 1, keep-with-next
    963          static void LCD_write_CN(unsigned int X, unsigned int Y, unsigned char c)
   \                     LCD_write_CN:
    964          {
   \   000000                REQUIRE ?V0
   \   000000                REQUIRE ?V1
   \   000000   74F6         MOV       A,#-0xa
   \   000002   12....       LCALL     ?BANKED_ENTER_XDATA
   \   000005                ; Saved register size: 10
   \   000005                ; Auto size: 0
   \   000005   E9           MOV       A,R1
   \   000006   FF           MOV       R7,A
    965            unsigned char i,j,temp;
    966            
    967            LCD_set_window(X,Y,14,14);  //按字符点阵大小设置显示窗口
   \   000007                ; Setup parameters for call to function LCD_set_window
   \   000007   75..0E       MOV       ?V0,#0xe
   \   00000A   75..00       MOV       ?V1,#0x0
   \   00000D   78..         MOV       R0,#?V0
   \   00000F   12....       LCALL     ?PUSH_XSTACK_I_TWO
   \   000012   78..         MOV       R0,#?V0
   \   000014   12....       LCALL     ?PUSH_XSTACK_I_TWO
   \   000017   12....       LCALL     `??LCD_set_window::?relay`; Banked call to: LCD_set_window
   \   00001A   7404         MOV       A,#0x4
   \   00001C   12....       LCALL     ?DEALLOC_XSTACK8
    968            //LCD_CS_CLR;               //液晶SPI使能andy
    969            LCD_DC_SET;                 //发送数据信号使能
   \   00001F   D280         SETB      0x80.0
    970            for(i=0;i<28;i++)           // 14x14字符点阵数据大小为2x14=28字节
   \   000021   75..00       MOV       ?V0,#0x0
    971            {
    972              temp = CN14x14[c][i] ;    //读字模数组
   \                     ??LCD_write_CN_0:
   \   000024   12....       LCALL     ?Subroutine6 & 0xFFFF
    973              for(j=0;j<8;j++)          // 按位显示
   \                     ??CrossCallReturnLabel_0:
   \   000027   75..08       MOV       ?V1,#0x8
    974              {
    975                if(temp&0x80)           //如果位值为1，显示字符色
   \                     ??LCD_write_CN_1:
   \   00002A   EE           MOV       A,R6
   \   00002B   A2E7         MOV       C,0xE0 /* A   */.7
   \   00002D   500D         JNC       ??LCD_write_CN_2
    976                {
    977                  SendByte(Color>>8);  
   \   00002F                ; Setup parameters for call to function SendByte
   \   00002F   90....       MOV       DPTR,#Color + 1
   \   000032   E0           MOVX      A,@DPTR
   \   000033   F9           MOV       R1,A
   \   000034   12....       LCALL     `??SendByte::?relay`; Banked call to: SendByte
    978                  SendByte(Color) ;
   \   000037                ; Setup parameters for call to function SendByte
   \   000037   90....       MOV       DPTR,#Color
   \   00003A   800B         SJMP      ??LCD_write_CN_3
    979                }
    980                else                    //如果位值为0，显示背景色
    981                {
    982                  SendByte(Color_BK>>8) ;  
   \                     ??LCD_write_CN_2:
   \   00003C                ; Setup parameters for call to function SendByte
   \   00003C   90....       MOV       DPTR,#Color_BK + 1
   \   00003F   E0           MOVX      A,@DPTR
   \   000040   F9           MOV       R1,A
   \   000041   12....       LCALL     `??SendByte::?relay`; Banked call to: SendByte
    983                  SendByte(Color_BK);
   \   000044                ; Setup parameters for call to function SendByte
   \   000044   90....       MOV       DPTR,#Color_BK
   \                     ??LCD_write_CN_3:
   \   000047   E0           MOVX      A,@DPTR
   \   000048   F9           MOV       R1,A
   \   000049   12....       LCALL     `??SendByte::?relay`; Banked call to: SendByte
    984                }            
    985                temp <<= 1 ;
   \   00004C   EE           MOV       A,R6
   \   00004D   C3           CLR       C
   \   00004E   33           RLC       A
   \   00004F   FE           MOV       R6,A
    986              }
   \   000050   15..         DEC       ?V1
   \   000052   E5..         MOV       A,?V1
   \   000054   70D4         JNZ       ??LCD_write_CN_1
    987              i++ ;                     //指向下一字节
   \   000056   05..         INC       ?V0
    988              temp = CN14x14[c][i];
   \   000058   12....       LCALL     ?Subroutine6 & 0xFFFF
    989              for(j=0;j<6;j++)          // 按位显示，点阵横向为14像素，
   \                     ??CrossCallReturnLabel_1:
   \   00005B   75..06       MOV       ?V1,#0x6
    990              {                         // 所以每行第2字节最后2位抛弃
    991                if(temp&0x80)           // 如果位值为1，显示字符色
   \                     ??LCD_write_CN_4:
   \   00005E   EE           MOV       A,R6
   \   00005F   A2E7         MOV       C,0xE0 /* A   */.7
   \   000061   500D         JNC       ??LCD_write_CN_5
    992                {
    993                  SendByte(Color>>8);  
   \   000063                ; Setup parameters for call to function SendByte
   \   000063   90....       MOV       DPTR,#Color + 1
   \   000066   E0           MOVX      A,@DPTR
   \   000067   F9           MOV       R1,A
   \   000068   12....       LCALL     `??SendByte::?relay`; Banked call to: SendByte
    994                  SendByte(Color) ;
   \   00006B                ; Setup parameters for call to function SendByte
   \   00006B   90....       MOV       DPTR,#Color
   \   00006E   800B         SJMP      ??LCD_write_CN_6
    995                }
    996                else                    // 如果位值为0，显示背景色
    997                {
    998                  SendByte(Color_BK>>8) ;  
   \                     ??LCD_write_CN_5:
   \   000070                ; Setup parameters for call to function SendByte
   \   000070   90....       MOV       DPTR,#Color_BK + 1
   \   000073   E0           MOVX      A,@DPTR
   \   000074   F9           MOV       R1,A
   \   000075   12....       LCALL     `??SendByte::?relay`; Banked call to: SendByte
    999                  SendByte(Color_BK);
   \   000078                ; Setup parameters for call to function SendByte
   \   000078   90....       MOV       DPTR,#Color_BK
   \                     ??LCD_write_CN_6:
   \   00007B   E0           MOVX      A,@DPTR
   \   00007C   F9           MOV       R1,A
   \   00007D   12....       LCALL     `??SendByte::?relay`; Banked call to: SendByte
   1000                }            
   1001                temp <<= 1 ;
   \   000080   EE           MOV       A,R6
   \   000081   C3           CLR       C
   \   000082   33           RLC       A
   \   000083   FE           MOV       R6,A
   1002              }
   \   000084   15..         DEC       ?V1
   \   000086   E5..         MOV       A,?V1
   \   000088   70D4         JNZ       ??LCD_write_CN_4
   1003            }
   \   00008A   05..         INC       ?V0
   \   00008C   E5..         MOV       A,?V0
   \   00008E   C3           CLR       C
   \   00008F   941C         SUBB      A,#0x1c
   \   000091   4091         JC        ??LCD_write_CN_0
   1004            //LCD_CS_SET;               //液晶SPI禁止
   1005            LCD_DC_SET;                 //数据控制信号禁止
   \   000093   D280         SETB      0x80.0
   1006          }
   \   000095   7F02         MOV       R7,#0x2
   \   000097   02....       LJMP      ?BANKED_LEAVE_XDATA
   \   00009A                REQUIRE _A_P0

   \                                 In  segment BANKED_CODE, align 1, keep-with-next
   \                     ?Subroutine6:
   \   000000   AA..         MOV       R2,?V0
   \   000002   EF           MOV       A,R7
   \   000003   75F01C       MOV       B,#0x1c
   \   000006   A4           MUL       AB
   \   000007   F8           MOV       R0,A
   \   000008   A9F0         MOV       R1,B
   \   00000A   74..         MOV       A,#CN14x14 & 0xff
   \   00000C   28           ADD       A,R0
   \   00000D   F8           MOV       R0,A
   \   00000E   74..         MOV       A,#(CN14x14 >> 8) & 0xff
   \   000010   39           ADDC      A,R1
   \   000011   F9           MOV       R1,A
   \   000012   E8           MOV       A,R0
   \   000013   2A           ADD       A,R2
   \   000014   F582         MOV       DPL,A
   \   000016   E4           CLR       A
   \   000017   39           ADDC      A,R1
   \   000018   F583         MOV       DPH,A
   \   00001A   E0           MOVX      A,@DPTR
   \   00001B   FE           MOV       R6,A
   \   00001C   22           RET
   1007          
   1008          /****************************************************************************
   1009          * 名    称: LCD_write_CN_string()
   1010          * 功    能: 在指定位置显示 14 ×14 点阵中文字符串   
   1011          * 入口参数: X - 显示位置左上角横坐标      Y ―显示位置左上角纵坐标
   1012          *           s ―字符串指针                  
   1013          * 出口参数: 无
   1014          ****************************************************************************/

   \                                 In  segment BANKED_CODE, align 1, keep-with-next
   1015          void LCD_write_CN_string(unsigned char X,unsigned char Y,uint8 *s)
   \                     LCD_write_CN_string:
   1016          {
   \   000000                REQUIRE ?V0
   \   000000                REQUIRE ?V1
   \   000000                REQUIRE ?V2
   \   000000                REQUIRE ?V3
   \   000000                REQUIRE ?V4
   \   000000                REQUIRE ?V5
   \   000000   74F2         MOV       A,#-0xe
   \   000002   12....       LCALL     ?BANKED_ENTER_XDATA
   \   000005                ; Saved register size: 14
   \   000005                ; Auto size: 0
   \   000005   89..         MOV       ?V1,R1
   \   000007   8A..         MOV       ?V2,R2
   \   000009   EC           MOV       A,R4
   \   00000A   FE           MOV       R6,A
   \   00000B   ED           MOV       A,R5
   \   00000C   FF           MOV       R7,A
   1017            unsigned char i=0;
   \   00000D   75..00       MOV       ?V0,#0x0
   1018            static unsigned char j=0;
   1019            
   1020            while (*s)
   \                     ??LCD_write_CN_string_0:
   \   000010   8E82         MOV       DPL,R6
   \   000012   8F83         MOV       DPH,R7
   \   000014   E0           MOVX      A,@DPTR
   \   000015   7003         JNZ       $+5
   \   000017   02....       LJMP      ??LCD_write_CN_string_1 & 0xFFFF
   1021            {
   1022              for(j=0;j<ALL_CNS;j++)                  //搜索点阵字模
   \   00001A   90....       MOV       DPTR,#??j
   \   00001D   E4           CLR       A
   \   00001E   F0           MOVX      @DPTR,A
   1023              { 
   1024                if(  *s    ==CN14x14_Index[j*2]            
   1025                   &&*(s+1)==CN14x14_Index[j*2+1])    //汉字内码存在于字模索引数组中
   \                     ??LCD_write_CN_string_2:
   \   00001F   8E82         MOV       DPL,R6
   \   000021   8F83         MOV       DPH,R7
   \   000023   E0           MOVX      A,@DPTR
   \   000024   FA           MOV       R2,A
   \   000025   90....       MOV       DPTR,#??j
   \   000028   E0           MOVX      A,@DPTR
   \   000029   25E0         ADD       A,0xE0 /* A   */
   \   00002B   F8           MOV       R0,A
   \   00002C   E4           CLR       A
   \   00002D   33           RLC       A
   \   00002E   F9           MOV       R1,A
   \   00002F   74..         MOV       A,#CN14x14_Index & 0xff
   \   000031   28           ADD       A,R0
   \   000032   F582         MOV       DPL,A
   \   000034   74..         MOV       A,#(CN14x14_Index >> 8) & 0xff
   \   000036   39           ADDC      A,R1
   \   000037   F583         MOV       DPH,A
   \   000039   E4           CLR       A
   \   00003A   93           MOVC      A,@A+DPTR
   \   00003B   6A           XRL       A,R2
   \   00003C   7038         JNZ       ??LCD_write_CN_string_3
   \   00003E   8E82         MOV       DPL,R6
   \   000040   8F83         MOV       DPH,R7
   \   000042   A3           INC       DPTR
   \   000043   E0           MOVX      A,@DPTR
   \   000044   FA           MOV       R2,A
   \   000045   74..         MOV       A,#(CN14x14_Index + 1) & 0xff
   \   000047   28           ADD       A,R0
   \   000048   F582         MOV       DPL,A
   \   00004A   74..         MOV       A,#((CN14x14_Index + 1) >> 8) & 0xff
   \   00004C   39           ADDC      A,R1
   \   00004D   F583         MOV       DPH,A
   \   00004F   E4           CLR       A
   \   000050   93           MOVC      A,@A+DPTR
   \   000051   6A           XRL       A,R2
   \   000052   7022         JNZ       ??LCD_write_CN_string_3
   1026                {
   1027                  LCD_write_CN(X+i*14,Y,j) ;          //显示汉字
   \   000054                ; Setup parameters for call to function LCD_write_CN
   \   000054   90....       MOV       DPTR,#??j
   \   000057   E0           MOVX      A,@DPTR
   \   000058   F9           MOV       R1,A
   \   000059   AC..         MOV       R4,?V2
   \   00005B   7D00         MOV       R5,#0x0
   \   00005D   E5..         MOV       A,?V1
   \   00005F   F5..         MOV       ?V4,A
   \   000061   E5..         MOV       A,?V0
   \   000063   75F00E       MOV       B,#0xe
   \   000066   A4           MUL       AB
   \   000067   FA           MOV       R2,A
   \   000068   ABF0         MOV       R3,B
   \   00006A   E5..         MOV       A,?V4
   \   00006C   2A           ADD       A,R2
   \   00006D   FA           MOV       R2,A
   \   00006E   E4           CLR       A
   \   00006F   3B           ADDC      A,R3
   \   000070   FB           MOV       R3,A
   \   000071   12....       LCALL     `??LCD_write_CN::?relay`; Banked call to: LCD_write_CN
   1028                  break; 
   \   000074   800B         SJMP      ??LCD_write_CN_string_4
   1029                }
   1030              }
   \                     ??LCD_write_CN_string_3:
   \   000076   90....       MOV       DPTR,#??j
   \   000079   E0           MOVX      A,@DPTR
   \   00007A   04           INC       A
   \   00007B   F0           MOVX      @DPTR,A
   \   00007C   C3           CLR       C
   \   00007D   9480         SUBB      A,#-0x80
   \   00007F   409E         JC        ??LCD_write_CN_string_2
   1031              if(j>=ALL_CNS)                          //无此字的点阵字模
   \                     ??LCD_write_CN_string_4:
   \   000081   90....       MOV       DPTR,#??j
   \   000084   E0           MOVX      A,@DPTR
   \   000085   C3           CLR       C
   \   000086   9480         SUBB      A,#-0x80
   \   000088   4035         JC        ??LCD_write_CN_string_5
   1032              {
   1033                DrawRectFill(X+i*14,Y,14,14,Color_BK);//显示空格
   \   00008A                ; Setup parameters for call to function DrawRectFill
   \   00008A   90....       MOV       DPTR,#Color_BK
   \   00008D   12....       LCALL     ?PUSH_XSTACK8_X_TWO
   \   000090   75..0E       MOV       ?V4,#0xe
   \   000093   75..00       MOV       ?V5,#0x0
   \   000096   78..         MOV       R0,#?V4
   \   000098   12....       LCALL     ?PUSH_XSTACK_I_TWO
   \   00009B   78..         MOV       R0,#?V4
   \   00009D   12....       LCALL     ?PUSH_XSTACK_I_TWO
   \   0000A0   AC..         MOV       R4,?V2
   \   0000A2   7D00         MOV       R5,#0x0
   \   0000A4   E5..         MOV       A,?V0
   \   0000A6   75F00E       MOV       B,#0xe
   \   0000A9   A4           MUL       AB
   \   0000AA   F8           MOV       R0,A
   \   0000AB   85F0..       MOV       ?V3,B
   \   0000AE   A9..         MOV       R1,?V3
   \   0000B0   E5..         MOV       A,?V1
   \   0000B2   28           ADD       A,R0
   \   0000B3   FA           MOV       R2,A
   \   0000B4   E4           CLR       A
   \   0000B5   39           ADDC      A,R1
   \   0000B6   FB           MOV       R3,A
   \   0000B7   12....       LCALL     `??DrawRectFill::?relay`; Banked call to: DrawRectFill
   \   0000BA   7406         MOV       A,#0x6
   \   0000BC   12....       LCALL     ?DEALLOC_XSTACK8
   1034              }
   1035              s++; s++ ;                              //字符指针移位
   \                     ??LCD_write_CN_string_5:
   \   0000BF   EE           MOV       A,R6
   \   0000C0   2402         ADD       A,#0x2
   \   0000C2   FE           MOV       R6,A
   \   0000C3   5001         JNC       ??LCD_write_CN_string_6
   \   0000C5   0F           INC       R7
   1036              i++;
   \                     ??LCD_write_CN_string_6:
   \   0000C6   05..         INC       ?V0
   1037              if(i>=HAL_LCD_MAX_CHARS/2)  
   \   0000C8   E5..         MOV       A,?V0
   \   0000CA   C3           CLR       C
   \   0000CB   9408         SUBB      A,#0x8
   \   0000CD   5003         JNC       $+5
   \   0000CF   02....       LJMP      ??LCD_write_CN_string_0 & 0xFFFF
   1038                return;                               //超过最大显示字符数，返回
   1039            }
   1040            return ;
   \                     ??LCD_write_CN_string_1:
   \   0000D2   02....       LJMP      ?Subroutine1 & 0xFFFF
   1041          }

   \                                 In  segment XDATA_Z, align 1, keep-with-next
   \                     ??j:
   \   000000                DS 1
   \   000001                REQUIRE __INIT_XDATA_Z
   1042          
   1043          /****************************************************************************
   1044          * 名    称: ShowImage()
   1045          * 功    能: 显示图片   
   1046          * 入口参数: p - 图片点阵数据  取模方式 水平扫描 从左到右 低位在前           
   1047          * 出口参数: 无
   1048          ****************************************************************************/

   \                                 In  segment BANKED_CODE, align 1, keep-with-next
   1049          void ShowImage(const unsigned char *p) 
   \                     ShowImage:
   1050          {
   \   000000                REQUIRE ?V0
   \   000000                REQUIRE ?V1
   \   000000                REQUIRE ?V2
   \   000000                REQUIRE ?V3
   \   000000   74F4         MOV       A,#-0xc
   \   000002   12....       LCALL     ?BANKED_ENTER_XDATA
   \   000005                ; Saved register size: 12
   \   000005                ; Auto size: 0
   \   000005   8A..         MOV       ?V0,R2
   \   000007   8B..         MOV       ?V1,R3
   1051            int i; 
   1052            unsigned char picH,picL;
   1053            
   1054            LCD_set_window(24,5,80,40); //坐标设置
   \   000009                ; Setup parameters for call to function LCD_set_window
   \   000009   75..28       MOV       ?V2,#0x28
   \   00000C   75..00       MOV       ?V3,#0x0
   \   00000F   78..         MOV       R0,#?V2
   \   000011   12....       LCALL     ?PUSH_XSTACK_I_TWO
   \   000014   75..50       MOV       ?V2,#0x50
   \   000017   78..         MOV       R0,#?V2
   \   000019   12....       LCALL     ?PUSH_XSTACK_I_TWO
   \   00001C   7C05         MOV       R4,#0x5
   \   00001E   7D00         MOV       R5,#0x0
   \   000020   7A18         MOV       R2,#0x18
   \   000022   7B00         MOV       R3,#0x0
   \   000024   12....       LCALL     `??LCD_set_window::?relay`; Banked call to: LCD_set_window
   \   000027   7404         MOV       A,#0x4
   \   000029   12....       LCALL     ?DEALLOC_XSTACK8
   1055            for(i=0;i<80*40;i++)
   \   00002C   7E00         MOV       R6,#0x0
   \   00002E   7F00         MOV       R7,#0x0
   1056            {	
   1057              picL=*(p+i*2);	//数据低位在前
   1058              picH=*(p+i*2+1);				
   1059              LCD_WriteData_16Bit(picH<<8|picL);  						
   \                     ??ShowImage_0:
   \   000030   EE           MOV       A,R6
   \   000031   F8           MOV       R0,A
   \   000032   EF           MOV       A,R7
   \   000033   F9           MOV       R1,A
   \   000034   E8           MOV       A,R0
   \   000035   28           ADD       A,R0
   \   000036   F8           MOV       R0,A
   \   000037   E9           MOV       A,R1
   \   000038   33           RLC       A
   \   000039   F9           MOV       R1,A
   \   00003A   E5..         MOV       A,?V0
   \   00003C   28           ADD       A,R0
   \   00003D   F8           MOV       R0,A
   \   00003E   E5..         MOV       A,?V1
   \   000040   39           ADDC      A,R1
   \   000041   F9           MOV       R1,A
   \   000042                ; Setup parameters for call to function LCD_WriteData_16Bit
   \   000042   8882         MOV       DPL,R0
   \   000044   8983         MOV       DPH,R1
   \   000046   A3           INC       DPTR
   \   000047   E0           MOVX      A,@DPTR
   \   000048   FB           MOV       R3,A
   \   000049   8882         MOV       DPL,R0
   \   00004B   8983         MOV       DPH,R1
   \   00004D   E0           MOVX      A,@DPTR
   \   00004E   FA           MOV       R2,A
   \   00004F   12....       LCALL     `??LCD_WriteData_16Bit::?relay`; Banked call to: LCD_WriteData_16Bit
   1060            }	
   \   000052   0E           INC       R6
   \   000053   EE           MOV       A,R6
   \   000054   7001         JNZ       ??ShowImage_1
   \   000056   0F           INC       R7
   \                     ??ShowImage_1:
   \   000057   C3           CLR       C
   \   000058   9480         SUBB      A,#-0x80
   \   00005A   EF           MOV       A,R7
   \   00005B   940C         SUBB      A,#0xc
   \   00005D   A2D2         MOV       C,0xD0 /* PSW */.2
   \   00005F   65D0         XRL       A,PSW
   \   000061   33           RLC       A
   \   000062   40CC         JC        ??ShowImage_0
   1061          }
   \   000064   02....       LJMP      ??Subroutine13_0 & 0xFFFF
   1062          
   1063          //初始化LCD

   \                                 In  segment BANKED_CODE, align 1, keep-with-next
   1064          void HalLcd_HW_Init(void)
   \                     HalLcd_HW_Init:
   1065          {
   \   000000   C082         PUSH      DPL
   \   000002   C083         PUSH      DPH
   \   000004                ; Saved register size: 2
   \   000004                ; Auto size: 0
   1066            P0SEL &= 0xFE; //设置P00为普通IO口，
   \   000004   53F3FE       ANL       0xf3,#0xfe
   1067            P0DIR |= 0x01; //设置P00为输出
   \   000007   43FD01       ORL       0xfd,#0x1
   1068            P1SEL &= 0x73; //设置P12，P13,P17为普通IO口
   \   00000A   53F473       ANL       0xf4,#0x73
   1069            P1DIR |= 0x8c; //设置P12，P13,P17为输出 
   \   00000D   43FE8C       ORL       0xfe,#0x8c
   1070          
   1071            Lcd_Reset();
   \   000010                ; Setup parameters for call to function Lcd_Reset
   \   000010   12....       LCALL     `??Lcd_Reset::?relay`; Banked call to: Lcd_Reset
   1072            
   1073          #ifdef HARDWARE_SPI                                         
   1074            P1DIR &= 0x9F;
   1075            SPI_Init();   //初始化SPI端口  
   1076          #endif
   1077           
   1078            LCD_write_byte(0x11,LCD_COMMAND); //退出睡眠模式
   \   000013                ; Setup parameters for call to function LCD_write_byte
   \   000013   7A00         MOV       R2,#0x0
   \   000015   7911         MOV       R1,#0x11
   \   000017   12....       LCALL     `??LCD_write_byte::?relay`; Banked call to: LCD_write_byte
   1079            DelayMS(1); 
   \   00001A                ; Setup parameters for call to function DelayMS
   \   00001A   7A01         MOV       R2,#0x1
   \   00001C   7B00         MOV       R3,#0x0
   \   00001E   12....       LCALL     `??DelayMS::?relay`; Banked call to: DelayMS
   1080          
   1081            ///ST7735R Frame Rate
   1082            LCD_write_byte(0xB1,LCD_COMMAND); 
   \   000021                ; Setup parameters for call to function LCD_write_byte
   \   000021   7A00         MOV       R2,#0x0
   \   000023   79B1         MOV       R1,#-0x4f
   \   000025   12....       LCALL     `??LCD_write_byte::?relay`; Banked call to: LCD_write_byte
   1083            LCD_write_byte(0x01,LCD_DATA); 
   \   000028                ; Setup parameters for call to function LCD_write_byte
   \   000028   7A01         MOV       R2,#0x1
   \   00002A   7901         MOV       R1,#0x1
   \   00002C   12....       LCALL     `??LCD_write_byte::?relay`; Banked call to: LCD_write_byte
   1084            LCD_write_byte(0x2C,LCD_DATA); 
   \   00002F                ; Setup parameters for call to function LCD_write_byte
   \   00002F   7A01         MOV       R2,#0x1
   \   000031   792C         MOV       R1,#0x2c
   \   000033   12....       LCALL     `??LCD_write_byte::?relay`; Banked call to: LCD_write_byte
   1085            LCD_write_byte(0x2D,LCD_DATA); 
   \   000036                ; Setup parameters for call to function LCD_write_byte
   \   000036   7A01         MOV       R2,#0x1
   \   000038   792D         MOV       R1,#0x2d
   \   00003A   12....       LCALL     `??LCD_write_byte::?relay`; Banked call to: LCD_write_byte
   1086            LCD_write_byte(0xB2,LCD_COMMAND); 
   \   00003D                ; Setup parameters for call to function LCD_write_byte
   \   00003D   7A00         MOV       R2,#0x0
   \   00003F   79B2         MOV       R1,#-0x4e
   \   000041   12....       LCALL     `??LCD_write_byte::?relay`; Banked call to: LCD_write_byte
   1087            LCD_write_byte(0x01,LCD_DATA); 
   \   000044                ; Setup parameters for call to function LCD_write_byte
   \   000044   7A01         MOV       R2,#0x1
   \   000046   7901         MOV       R1,#0x1
   \   000048   12....       LCALL     `??LCD_write_byte::?relay`; Banked call to: LCD_write_byte
   1088            LCD_write_byte(0x2C,LCD_DATA); 
   \   00004B                ; Setup parameters for call to function LCD_write_byte
   \   00004B   7A01         MOV       R2,#0x1
   \   00004D   792C         MOV       R1,#0x2c
   \   00004F   12....       LCALL     `??LCD_write_byte::?relay`; Banked call to: LCD_write_byte
   1089            LCD_write_byte(0x2D,LCD_DATA); 
   \   000052                ; Setup parameters for call to function LCD_write_byte
   \   000052   7A01         MOV       R2,#0x1
   \   000054   792D         MOV       R1,#0x2d
   \   000056   12....       LCALL     `??LCD_write_byte::?relay`; Banked call to: LCD_write_byte
   1090            LCD_write_byte(0xB3,LCD_COMMAND); 
   \   000059                ; Setup parameters for call to function LCD_write_byte
   \   000059   7A00         MOV       R2,#0x0
   \   00005B   79B3         MOV       R1,#-0x4d
   \   00005D   12....       LCALL     `??LCD_write_byte::?relay`; Banked call to: LCD_write_byte
   1091            LCD_write_byte(0x01,LCD_DATA); 
   \   000060                ; Setup parameters for call to function LCD_write_byte
   \   000060   7A01         MOV       R2,#0x1
   \   000062   7901         MOV       R1,#0x1
   \   000064   12....       LCALL     `??LCD_write_byte::?relay`; Banked call to: LCD_write_byte
   1092            LCD_write_byte(0x2C,LCD_DATA); 
   \   000067                ; Setup parameters for call to function LCD_write_byte
   \   000067   7A01         MOV       R2,#0x1
   \   000069   792C         MOV       R1,#0x2c
   \   00006B   12....       LCALL     `??LCD_write_byte::?relay`; Banked call to: LCD_write_byte
   1093            LCD_write_byte(0x2D,LCD_DATA); 
   \   00006E                ; Setup parameters for call to function LCD_write_byte
   \   00006E   7A01         MOV       R2,#0x1
   \   000070   792D         MOV       R1,#0x2d
   \   000072   12....       LCALL     `??LCD_write_byte::?relay`; Banked call to: LCD_write_byte
   1094            LCD_write_byte(0x01,LCD_DATA); 
   \   000075                ; Setup parameters for call to function LCD_write_byte
   \   000075   7A01         MOV       R2,#0x1
   \   000077   7901         MOV       R1,#0x1
   \   000079   12....       LCALL     `??LCD_write_byte::?relay`; Banked call to: LCD_write_byte
   1095            LCD_write_byte(0x2C,LCD_DATA); 
   \   00007C                ; Setup parameters for call to function LCD_write_byte
   \   00007C   7A01         MOV       R2,#0x1
   \   00007E   792C         MOV       R1,#0x2c
   \   000080   12....       LCALL     `??LCD_write_byte::?relay`; Banked call to: LCD_write_byte
   1096            LCD_write_byte(0x2D,LCD_DATA); 
   \   000083                ; Setup parameters for call to function LCD_write_byte
   \   000083   7A01         MOV       R2,#0x1
   \   000085   792D         MOV       R1,#0x2d
   \   000087   12....       LCALL     `??LCD_write_byte::?relay`; Banked call to: LCD_write_byte
   1097          
   1098            LCD_write_byte(0xB4,LCD_COMMAND);//列对调
   \   00008A                ; Setup parameters for call to function LCD_write_byte
   \   00008A   7A00         MOV       R2,#0x0
   \   00008C   79B4         MOV       R1,#-0x4c
   \   00008E   12....       LCALL     `??LCD_write_byte::?relay`; Banked call to: LCD_write_byte
   1099            LCD_write_byte(0x07,LCD_DATA); 
   \   000091                ; Setup parameters for call to function LCD_write_byte
   \   000091   7A01         MOV       R2,#0x1
   \   000093   7907         MOV       R1,#0x7
   \   000095   12....       LCALL     `??LCD_write_byte::?relay`; Banked call to: LCD_write_byte
   1100            //ST7735R加电序列
   1101            LCD_write_byte(0xC0,LCD_COMMAND); 
   \   000098                ; Setup parameters for call to function LCD_write_byte
   \   000098   7A00         MOV       R2,#0x0
   \   00009A   79C0         MOV       R1,#-0x40
   \   00009C   12....       LCALL     `??LCD_write_byte::?relay`; Banked call to: LCD_write_byte
   1102            LCD_write_byte(0xA2,LCD_DATA); 
   \   00009F                ; Setup parameters for call to function LCD_write_byte
   \   00009F   7A01         MOV       R2,#0x1
   \   0000A1   79A2         MOV       R1,#-0x5e
   \   0000A3   12....       LCALL     `??LCD_write_byte::?relay`; Banked call to: LCD_write_byte
   1103            LCD_write_byte(0x02,LCD_DATA); 
   \   0000A6                ; Setup parameters for call to function LCD_write_byte
   \   0000A6   7A01         MOV       R2,#0x1
   \   0000A8   7902         MOV       R1,#0x2
   \   0000AA   12....       LCALL     `??LCD_write_byte::?relay`; Banked call to: LCD_write_byte
   1104            LCD_write_byte(0x84,LCD_DATA); 
   \   0000AD                ; Setup parameters for call to function LCD_write_byte
   \   0000AD   7A01         MOV       R2,#0x1
   \   0000AF   7984         MOV       R1,#-0x7c
   \   0000B1   12....       LCALL     `??LCD_write_byte::?relay`; Banked call to: LCD_write_byte
   1105            LCD_write_byte(0xC1,LCD_COMMAND); 
   \   0000B4                ; Setup parameters for call to function LCD_write_byte
   \   0000B4   7A00         MOV       R2,#0x0
   \   0000B6   79C1         MOV       R1,#-0x3f
   \   0000B8   12....       LCALL     `??LCD_write_byte::?relay`; Banked call to: LCD_write_byte
   1106            LCD_write_byte(0xC5,LCD_DATA); 
   \   0000BB                ; Setup parameters for call to function LCD_write_byte
   \   0000BB   7A01         MOV       R2,#0x1
   \   0000BD   79C5         MOV       R1,#-0x3b
   \   0000BF   12....       LCALL     `??LCD_write_byte::?relay`; Banked call to: LCD_write_byte
   1107            LCD_write_byte(0xC2,LCD_COMMAND); 
   \   0000C2                ; Setup parameters for call to function LCD_write_byte
   \   0000C2   7A00         MOV       R2,#0x0
   \   0000C4   79C2         MOV       R1,#-0x3e
   \   0000C6   12....       LCALL     `??LCD_write_byte::?relay`; Banked call to: LCD_write_byte
   1108            LCD_write_byte(0x0A,LCD_DATA); 
   \   0000C9                ; Setup parameters for call to function LCD_write_byte
   \   0000C9   7A01         MOV       R2,#0x1
   \   0000CB   790A         MOV       R1,#0xa
   \   0000CD   12....       LCALL     `??LCD_write_byte::?relay`; Banked call to: LCD_write_byte
   1109            LCD_write_byte(0x00,LCD_DATA); 
   \   0000D0                ; Setup parameters for call to function LCD_write_byte
   \   0000D0   7A01         MOV       R2,#0x1
   \   0000D2   7900         MOV       R1,#0x0
   \   0000D4   12....       LCALL     `??LCD_write_byte::?relay`; Banked call to: LCD_write_byte
   1110            LCD_write_byte(0xC3,LCD_COMMAND); 
   \   0000D7                ; Setup parameters for call to function LCD_write_byte
   \   0000D7   7A00         MOV       R2,#0x0
   \   0000D9   79C3         MOV       R1,#-0x3d
   \   0000DB   12....       LCALL     `??LCD_write_byte::?relay`; Banked call to: LCD_write_byte
   1111            LCD_write_byte(0x8A,LCD_DATA); 
   \   0000DE                ; Setup parameters for call to function LCD_write_byte
   \   0000DE   7A01         MOV       R2,#0x1
   \   0000E0   798A         MOV       R1,#-0x76
   \   0000E2   12....       LCALL     `??LCD_write_byte::?relay`; Banked call to: LCD_write_byte
   1112            LCD_write_byte(0x2A,LCD_DATA); 
   \   0000E5                ; Setup parameters for call to function LCD_write_byte
   \   0000E5   7A01         MOV       R2,#0x1
   \   0000E7   792A         MOV       R1,#0x2a
   \   0000E9   12....       LCALL     `??LCD_write_byte::?relay`; Banked call to: LCD_write_byte
   1113            LCD_write_byte(0xC4,LCD_COMMAND); 
   \   0000EC                ; Setup parameters for call to function LCD_write_byte
   \   0000EC   7A00         MOV       R2,#0x0
   \   0000EE   79C4         MOV       R1,#-0x3c
   \   0000F0   12....       LCALL     `??LCD_write_byte::?relay`; Banked call to: LCD_write_byte
   1114            LCD_write_byte(0x8A,LCD_DATA); 
   \   0000F3                ; Setup parameters for call to function LCD_write_byte
   \   0000F3   7A01         MOV       R2,#0x1
   \   0000F5   798A         MOV       R1,#-0x76
   \   0000F7   12....       LCALL     `??LCD_write_byte::?relay`; Banked call to: LCD_write_byte
   1115            LCD_write_byte(0xEE,LCD_DATA); 
   \   0000FA                ; Setup parameters for call to function LCD_write_byte
   \   0000FA   7A01         MOV       R2,#0x1
   \   0000FC   79EE         MOV       R1,#-0x12
   \   0000FE   12....       LCALL     `??LCD_write_byte::?relay`; Banked call to: LCD_write_byte
   1116          
   1117            LCD_write_byte(0xC5,LCD_COMMAND); //加VCOM 
   \   000101                ; Setup parameters for call to function LCD_write_byte
   \   000101   7A00         MOV       R2,#0x0
   \   000103   79C5         MOV       R1,#-0x3b
   \   000105   12....       LCALL     `??LCD_write_byte::?relay`; Banked call to: LCD_write_byte
   1118            LCD_write_byte(0x0E,LCD_DATA); 
   \   000108                ; Setup parameters for call to function LCD_write_byte
   \   000108   7A01         MOV       R2,#0x1
   \   00010A   790E         MOV       R1,#0xe
   \   00010C   12....       LCALL     `??LCD_write_byte::?relay`; Banked call to: LCD_write_byte
   1119          
   1120            LCD_write_byte(0x36,LCD_COMMAND); //RGB模式 
   \   00010F                ; Setup parameters for call to function LCD_write_byte
   \   00010F   7A00         MOV       R2,#0x0
   \   000111   7936         MOV       R1,#0x36
   \   000113   12....       LCALL     `??LCD_write_byte::?relay`; Banked call to: LCD_write_byte
   1121            LCD_write_byte(0xC8,LCD_DATA); 
   \   000116                ; Setup parameters for call to function LCD_write_byte
   \   000116   7A01         MOV       R2,#0x1
   \   000118   79C8         MOV       R1,#-0x38
   \   00011A   12....       LCALL     `??LCD_write_byte::?relay`; Banked call to: LCD_write_byte
   1122            
   1123            // ST7735R Gamma 校正序列
   1124            LCD_write_byte(0xe0,LCD_COMMAND); 
   \   00011D                ; Setup parameters for call to function LCD_write_byte
   \   00011D   7A00         MOV       R2,#0x0
   \   00011F   79E0         MOV       R1,#-0x20
   \   000121   12....       LCALL     `??LCD_write_byte::?relay`; Banked call to: LCD_write_byte
   1125            LCD_write_byte(0x0f,LCD_DATA); 
   \   000124                ; Setup parameters for call to function LCD_write_byte
   \   000124   7A01         MOV       R2,#0x1
   \   000126   790F         MOV       R1,#0xf
   \   000128   12....       LCALL     `??LCD_write_byte::?relay`; Banked call to: LCD_write_byte
   1126            LCD_write_byte(0x1a,LCD_DATA); 
   \   00012B                ; Setup parameters for call to function LCD_write_byte
   \   00012B   7A01         MOV       R2,#0x1
   \   00012D   791A         MOV       R1,#0x1a
   \   00012F   12....       LCALL     `??LCD_write_byte::?relay`; Banked call to: LCD_write_byte
   1127            LCD_write_byte(0x0f,LCD_DATA); 
   \   000132                ; Setup parameters for call to function LCD_write_byte
   \   000132   7A01         MOV       R2,#0x1
   \   000134   790F         MOV       R1,#0xf
   \   000136   12....       LCALL     `??LCD_write_byte::?relay`; Banked call to: LCD_write_byte
   1128            LCD_write_byte(0x18,LCD_DATA); 
   \   000139                ; Setup parameters for call to function LCD_write_byte
   \   000139   7A01         MOV       R2,#0x1
   \   00013B   7918         MOV       R1,#0x18
   \   00013D   12....       LCALL     `??LCD_write_byte::?relay`; Banked call to: LCD_write_byte
   1129            LCD_write_byte(0x2f,LCD_DATA); 
   \   000140                ; Setup parameters for call to function LCD_write_byte
   \   000140   7A01         MOV       R2,#0x1
   \   000142   792F         MOV       R1,#0x2f
   \   000144   12....       LCALL     `??LCD_write_byte::?relay`; Banked call to: LCD_write_byte
   1130            LCD_write_byte(0x28,LCD_DATA); 
   \   000147                ; Setup parameters for call to function LCD_write_byte
   \   000147   7A01         MOV       R2,#0x1
   \   000149   7928         MOV       R1,#0x28
   \   00014B   12....       LCALL     `??LCD_write_byte::?relay`; Banked call to: LCD_write_byte
   1131            LCD_write_byte(0x20,LCD_DATA); 
   \   00014E                ; Setup parameters for call to function LCD_write_byte
   \   00014E   7A01         MOV       R2,#0x1
   \   000150   7920         MOV       R1,#0x20
   \   000152   12....       LCALL     `??LCD_write_byte::?relay`; Banked call to: LCD_write_byte
   1132            LCD_write_byte(0x22,LCD_DATA); 
   \   000155                ; Setup parameters for call to function LCD_write_byte
   \   000155   7A01         MOV       R2,#0x1
   \   000157   7922         MOV       R1,#0x22
   \   000159   12....       LCALL     `??LCD_write_byte::?relay`; Banked call to: LCD_write_byte
   1133            LCD_write_byte(0x1f,LCD_DATA); 
   \   00015C                ; Setup parameters for call to function LCD_write_byte
   \   00015C   7A01         MOV       R2,#0x1
   \   00015E   791F         MOV       R1,#0x1f
   \   000160   12....       LCALL     `??LCD_write_byte::?relay`; Banked call to: LCD_write_byte
   1134            LCD_write_byte(0x1b,LCD_DATA); 
   \   000163                ; Setup parameters for call to function LCD_write_byte
   \   000163   7A01         MOV       R2,#0x1
   \   000165   791B         MOV       R1,#0x1b
   \   000167   12....       LCALL     `??LCD_write_byte::?relay`; Banked call to: LCD_write_byte
   1135            LCD_write_byte(0x23,LCD_DATA); 
   \   00016A                ; Setup parameters for call to function LCD_write_byte
   \   00016A   7A01         MOV       R2,#0x1
   \   00016C   7923         MOV       R1,#0x23
   \   00016E   12....       LCALL     `??LCD_write_byte::?relay`; Banked call to: LCD_write_byte
   1136            LCD_write_byte(0x37,LCD_DATA); 
   \   000171                ; Setup parameters for call to function LCD_write_byte
   \   000171   7A01         MOV       R2,#0x1
   \   000173   7937         MOV       R1,#0x37
   \   000175   12....       LCALL     `??LCD_write_byte::?relay`; Banked call to: LCD_write_byte
   1137            LCD_write_byte(0x00,LCD_DATA); 
   \   000178                ; Setup parameters for call to function LCD_write_byte
   \   000178   7A01         MOV       R2,#0x1
   \   00017A   7900         MOV       R1,#0x0
   \   00017C   12....       LCALL     `??LCD_write_byte::?relay`; Banked call to: LCD_write_byte
   1138          
   1139            LCD_write_byte(0x07,LCD_DATA); 
   \   00017F                ; Setup parameters for call to function LCD_write_byte
   \   00017F   7A01         MOV       R2,#0x1
   \   000181   7907         MOV       R1,#0x7
   \   000183   12....       LCALL     `??LCD_write_byte::?relay`; Banked call to: LCD_write_byte
   1140            LCD_write_byte(0x02,LCD_DATA); 
   \   000186                ; Setup parameters for call to function LCD_write_byte
   \   000186   7A01         MOV       R2,#0x1
   \   000188   7902         MOV       R1,#0x2
   \   00018A   12....       LCALL     `??LCD_write_byte::?relay`; Banked call to: LCD_write_byte
   1141            LCD_write_byte(0x10,LCD_DATA); 
   \   00018D                ; Setup parameters for call to function LCD_write_byte
   \   00018D   7A01         MOV       R2,#0x1
   \   00018F   7910         MOV       R1,#0x10
   \   000191   12....       LCALL     `??LCD_write_byte::?relay`; Banked call to: LCD_write_byte
   1142            LCD_write_byte(0xe1,LCD_COMMAND); 
   \   000194                ; Setup parameters for call to function LCD_write_byte
   \   000194   7A00         MOV       R2,#0x0
   \   000196   79E1         MOV       R1,#-0x1f
   \   000198   12....       LCALL     `??LCD_write_byte::?relay`; Banked call to: LCD_write_byte
   1143            LCD_write_byte(0x0f,LCD_DATA); 
   \   00019B                ; Setup parameters for call to function LCD_write_byte
   \   00019B   7A01         MOV       R2,#0x1
   \   00019D   790F         MOV       R1,#0xf
   \   00019F   12....       LCALL     `??LCD_write_byte::?relay`; Banked call to: LCD_write_byte
   1144            LCD_write_byte(0x1b,LCD_DATA); 
   \   0001A2                ; Setup parameters for call to function LCD_write_byte
   \   0001A2   7A01         MOV       R2,#0x1
   \   0001A4   791B         MOV       R1,#0x1b
   \   0001A6   12....       LCALL     `??LCD_write_byte::?relay`; Banked call to: LCD_write_byte
   1145            LCD_write_byte(0x0f,LCD_DATA); 
   \   0001A9                ; Setup parameters for call to function LCD_write_byte
   \   0001A9   7A01         MOV       R2,#0x1
   \   0001AB   790F         MOV       R1,#0xf
   \   0001AD   12....       LCALL     `??LCD_write_byte::?relay`; Banked call to: LCD_write_byte
   1146            LCD_write_byte(0x17,LCD_DATA); 
   \   0001B0                ; Setup parameters for call to function LCD_write_byte
   \   0001B0   7A01         MOV       R2,#0x1
   \   0001B2   7917         MOV       R1,#0x17
   \   0001B4   12....       LCALL     `??LCD_write_byte::?relay`; Banked call to: LCD_write_byte
   1147            LCD_write_byte(0x33,LCD_DATA); 
   \   0001B7                ; Setup parameters for call to function LCD_write_byte
   \   0001B7   7A01         MOV       R2,#0x1
   \   0001B9   7933         MOV       R1,#0x33
   \   0001BB   12....       LCALL     `??LCD_write_byte::?relay`; Banked call to: LCD_write_byte
   1148            LCD_write_byte(0x2c,LCD_DATA); 
   \   0001BE                ; Setup parameters for call to function LCD_write_byte
   \   0001BE   7A01         MOV       R2,#0x1
   \   0001C0   792C         MOV       R1,#0x2c
   \   0001C2   12....       LCALL     `??LCD_write_byte::?relay`; Banked call to: LCD_write_byte
   1149            LCD_write_byte(0x29,LCD_DATA); 
   \   0001C5                ; Setup parameters for call to function LCD_write_byte
   \   0001C5   7A01         MOV       R2,#0x1
   \   0001C7   7929         MOV       R1,#0x29
   \   0001C9   12....       LCALL     `??LCD_write_byte::?relay`; Banked call to: LCD_write_byte
   1150            LCD_write_byte(0x2e,LCD_DATA); 
   \   0001CC                ; Setup parameters for call to function LCD_write_byte
   \   0001CC   7A01         MOV       R2,#0x1
   \   0001CE   792E         MOV       R1,#0x2e
   \   0001D0   12....       LCALL     `??LCD_write_byte::?relay`; Banked call to: LCD_write_byte
   1151            LCD_write_byte(0x30,LCD_DATA); 
   \   0001D3                ; Setup parameters for call to function LCD_write_byte
   \   0001D3   7A01         MOV       R2,#0x1
   \   0001D5   7930         MOV       R1,#0x30
   \   0001D7   12....       LCALL     `??LCD_write_byte::?relay`; Banked call to: LCD_write_byte
   1152            LCD_write_byte(0x30,LCD_DATA); 
   \   0001DA                ; Setup parameters for call to function LCD_write_byte
   \   0001DA   7A01         MOV       R2,#0x1
   \   0001DC   7930         MOV       R1,#0x30
   \   0001DE   12....       LCALL     `??LCD_write_byte::?relay`; Banked call to: LCD_write_byte
   1153            LCD_write_byte(0x39,LCD_DATA); 
   \   0001E1                ; Setup parameters for call to function LCD_write_byte
   \   0001E1   7A01         MOV       R2,#0x1
   \   0001E3   7939         MOV       R1,#0x39
   \   0001E5   12....       LCALL     `??LCD_write_byte::?relay`; Banked call to: LCD_write_byte
   1154            LCD_write_byte(0x3f,LCD_DATA); 
   \   0001E8                ; Setup parameters for call to function LCD_write_byte
   \   0001E8   7A01         MOV       R2,#0x1
   \   0001EA   793F         MOV       R1,#0x3f
   \   0001EC   12....       LCALL     `??LCD_write_byte::?relay`; Banked call to: LCD_write_byte
   1155            LCD_write_byte(0x00,LCD_DATA); 
   \   0001EF                ; Setup parameters for call to function LCD_write_byte
   \   0001EF   7A01         MOV       R2,#0x1
   \   0001F1   7900         MOV       R1,#0x0
   \   0001F3   12....       LCALL     `??LCD_write_byte::?relay`; Banked call to: LCD_write_byte
   1156            LCD_write_byte(0x07,LCD_DATA); 
   \   0001F6                ; Setup parameters for call to function LCD_write_byte
   \   0001F6   7A01         MOV       R2,#0x1
   \   0001F8   7907         MOV       R1,#0x7
   \   0001FA   12....       LCALL     `??LCD_write_byte::?relay`; Banked call to: LCD_write_byte
   1157            LCD_write_byte(0x03,LCD_DATA); 
   \   0001FD                ; Setup parameters for call to function LCD_write_byte
   \   0001FD   7A01         MOV       R2,#0x1
   \   0001FF   7903         MOV       R1,#0x3
   \   000201   12....       LCALL     `??LCD_write_byte::?relay`; Banked call to: LCD_write_byte
   1158            LCD_write_byte(0x10,LCD_DATA);  
   \   000204                ; Setup parameters for call to function LCD_write_byte
   \   000204   7A01         MOV       R2,#0x1
   \   000206   7910         MOV       R1,#0x10
   \   000208   12....       LCALL     `??LCD_write_byte::?relay`; Banked call to: LCD_write_byte
   1159          
   1160            LCD_write_byte(0x2a,LCD_COMMAND);
   \   00020B                ; Setup parameters for call to function LCD_write_byte
   \   00020B   7A00         MOV       R2,#0x0
   \   00020D   792A         MOV       R1,#0x2a
   \   00020F   12....       LCALL     `??LCD_write_byte::?relay`; Banked call to: LCD_write_byte
   1161            LCD_write_byte(0x00,LCD_DATA);
   \   000212                ; Setup parameters for call to function LCD_write_byte
   \   000212   7A01         MOV       R2,#0x1
   \   000214   7900         MOV       R1,#0x0
   \   000216   12....       LCALL     `??LCD_write_byte::?relay`; Banked call to: LCD_write_byte
   1162            LCD_write_byte(0x00,LCD_DATA);
   \   000219                ; Setup parameters for call to function LCD_write_byte
   \   000219   7A01         MOV       R2,#0x1
   \   00021B   7900         MOV       R1,#0x0
   \   00021D   12....       LCALL     `??LCD_write_byte::?relay`; Banked call to: LCD_write_byte
   1163            LCD_write_byte(0x00,LCD_DATA);
   \   000220                ; Setup parameters for call to function LCD_write_byte
   \   000220   7A01         MOV       R2,#0x1
   \   000222   7900         MOV       R1,#0x0
   \   000224   12....       LCALL     `??LCD_write_byte::?relay`; Banked call to: LCD_write_byte
   1164            LCD_write_byte(0x7f,LCD_DATA);
   \   000227                ; Setup parameters for call to function LCD_write_byte
   \   000227   7A01         MOV       R2,#0x1
   \   000229   797F         MOV       R1,#0x7f
   \   00022B   12....       LCALL     `??LCD_write_byte::?relay`; Banked call to: LCD_write_byte
   1165            LCD_write_byte(0x2b,LCD_COMMAND);
   \   00022E                ; Setup parameters for call to function LCD_write_byte
   \   00022E   7A00         MOV       R2,#0x0
   \   000230   792B         MOV       R1,#0x2b
   \   000232   12....       LCALL     `??LCD_write_byte::?relay`; Banked call to: LCD_write_byte
   1166            LCD_write_byte(0x00,LCD_DATA);
   \   000235                ; Setup parameters for call to function LCD_write_byte
   \   000235   7A01         MOV       R2,#0x1
   \   000237   7900         MOV       R1,#0x0
   \   000239   12....       LCALL     `??LCD_write_byte::?relay`; Banked call to: LCD_write_byte
   1167            LCD_write_byte(0x00,LCD_DATA);
   \   00023C                ; Setup parameters for call to function LCD_write_byte
   \   00023C   7A01         MOV       R2,#0x1
   \   00023E   7900         MOV       R1,#0x0
   \   000240   12....       LCALL     `??LCD_write_byte::?relay`; Banked call to: LCD_write_byte
   1168            LCD_write_byte(0x00,LCD_DATA);
   \   000243                ; Setup parameters for call to function LCD_write_byte
   \   000243   7A01         MOV       R2,#0x1
   \   000245   7900         MOV       R1,#0x0
   \   000247   12....       LCALL     `??LCD_write_byte::?relay`; Banked call to: LCD_write_byte
   1169            LCD_write_byte(0x9f,LCD_DATA);
   \   00024A                ; Setup parameters for call to function LCD_write_byte
   \   00024A   7A01         MOV       R2,#0x1
   \   00024C   799F         MOV       R1,#-0x61
   \   00024E   12....       LCALL     `??LCD_write_byte::?relay`; Banked call to: LCD_write_byte
   1170          
   1171            LCD_write_byte(0xF0,LCD_COMMAND); //使能测试命令  
   \   000251                ; Setup parameters for call to function LCD_write_byte
   \   000251   7A00         MOV       R2,#0x0
   \   000253   79F0         MOV       R1,#-0x10
   \   000255   12....       LCALL     `??LCD_write_byte::?relay`; Banked call to: LCD_write_byte
   1172            LCD_write_byte(0x01,LCD_DATA); 
   \   000258                ; Setup parameters for call to function LCD_write_byte
   \   000258   7A01         MOV       R2,#0x1
   \   00025A   7901         MOV       R1,#0x1
   \   00025C   12....       LCALL     `??LCD_write_byte::?relay`; Banked call to: LCD_write_byte
   1173            LCD_write_byte(0xF6,LCD_COMMAND); //关闭ram省电模式 
   \   00025F                ; Setup parameters for call to function LCD_write_byte
   \   00025F   7A00         MOV       R2,#0x0
   \   000261   79F6         MOV       R1,#-0xa
   \   000263   12....       LCALL     `??LCD_write_byte::?relay`; Banked call to: LCD_write_byte
   1174            LCD_write_byte(0x00,LCD_DATA); 
   \   000266                ; Setup parameters for call to function LCD_write_byte
   \   000266   7A01         MOV       R2,#0x1
   \   000268   7900         MOV       R1,#0x0
   \   00026A   12....       LCALL     `??LCD_write_byte::?relay`; Banked call to: LCD_write_byte
   1175          
   1176            LCD_write_byte(0x3A,LCD_COMMAND); //色深16bit 
   \   00026D                ; Setup parameters for call to function LCD_write_byte
   \   00026D   7A00         MOV       R2,#0x0
   \   00026F   793A         MOV       R1,#0x3a
   \   000271   12....       LCALL     `??LCD_write_byte::?relay`; Banked call to: LCD_write_byte
   1177            LCD_write_byte(0x05,LCD_DATA); 
   \   000274                ; Setup parameters for call to function LCD_write_byte
   \   000274   7A01         MOV       R2,#0x1
   \   000276   7905         MOV       R1,#0x5
   \   000278   12....       LCALL     `??LCD_write_byte::?relay`; Banked call to: LCD_write_byte
   1178            
   1179            LCD_write_byte(0x29,LCD_COMMAND); //开显示  
   \   00027B                ; Setup parameters for call to function LCD_write_byte
   \   00027B   7A00         MOV       R2,#0x0
   \   00027D   7929         MOV       R1,#0x29
   \   00027F   12....       LCALL     `??LCD_write_byte::?relay`; Banked call to: LCD_write_byte
   1180            LCD_clear(GREEN);                 //清屏 
   \   000282                ; Setup parameters for call to function LCD_clear
   \   000282   7AE0         MOV       R2,#-0x20
   \   000284   7B07         MOV       R3,#0x7
   \   000286   12....       LCALL     `??LCD_clear::?relay`; Banked call to: LCD_clear
   1181          }
   \   000289   02....       LJMP      ?Subroutine0 & 0xFFFF
   \   00028C                REQUIRE P0SEL
   \   00028C                REQUIRE P0DIR
   \   00028C                REQUIRE P1SEL
   \   00028C                REQUIRE P1DIR

   \                                 In  segment XDATA_ID, align 1, keep-with-next
   \                     `?<Initializer for Color>`:
   \   000000   1F00         DW 31

   \                                 In  segment XDATA_ID, align 1, keep-with-next
   \                     `?<Initializer for Color_BK>`:
   \   000000   E007         DW 2016

   \                                 In  segment BANK_RELAYS, align 1
   \                     `??HalLcdInit::?relay`:
   \   000000   12....       LCALL   ?BDISPATCH
   \   000003   ......       DC24    HalLcdInit

   \                                 In  segment BANK_RELAYS, align 1
   \                     `??HalLcdWriteValue::?relay`:
   \   000000   12....       LCALL   ?BDISPATCH
   \   000003   ......       DC24    HalLcdWriteValue

   \                                 In  segment BANK_RELAYS, align 1
   \                     `??HalLcdWriteScreen::?relay`:
   \   000000   12....       LCALL   ?BDISPATCH
   \   000003   ......       DC24    HalLcdWriteScreen

   \                                 In  segment BANK_RELAYS, align 1
   \                     `??HalLcdWriteStringValue::?relay`:
   \   000000   12....       LCALL   ?BDISPATCH
   \   000003   ......       DC24    HalLcdWriteStringValue

   \                                 In  segment BANK_RELAYS, align 1
   \                     `??HalLcdWriteStringValueValue::?relay`:
   \   000000   12....       LCALL   ?BDISPATCH
   \   000003   ......       DC24    HalLcdWriteStringValueValue

   \                                 In  segment BANK_RELAYS, align 1
   \                     `??DelayMS::?relay`:
   \   000000   12....       LCALL   ?BDISPATCH
   \   000003   ......       DC24    DelayMS

   \                                 In  segment BANK_RELAYS, align 1
   \                     `??HalLcdWriteString::?relay`:
   \   000000   12....       LCALL   ?BDISPATCH
   \   000003   ......       DC24    HalLcdWriteString

   \                                 In  segment BANK_RELAYS, align 1
   \                     `??SendByte::?relay`:
   \   000000   12....       LCALL   ?BDISPATCH
   \   000003   ......       DC24    SendByte

   \                                 In  segment BANK_RELAYS, align 1
   \                     `??SPI_WriteData::?relay`:
   \   000000   12....       LCALL   ?BDISPATCH
   \   000003   ......       DC24    SPI_WriteData

   \                                 In  segment BANK_RELAYS, align 1
   \                     `??LCD_WrCmd::?relay`:
   \   000000   12....       LCALL   ?BDISPATCH
   \   000003   ......       DC24    LCD_WrCmd

   \                                 In  segment BANK_RELAYS, align 1
   \                     `??LCD_WrDat::?relay`:
   \   000000   12....       LCALL   ?BDISPATCH
   \   000003   ......       DC24    LCD_WrDat

   \                                 In  segment BANK_RELAYS, align 1
   \                     `??LCD_WriteData_16Bit::?relay`:
   \   000000   12....       LCALL   ?BDISPATCH
   \   000003   ......       DC24    LCD_WriteData_16Bit

   \                                 In  segment BANK_RELAYS, align 1
   \                     `??LCD_write_byte::?relay`:
   \   000000   12....       LCALL   ?BDISPATCH
   \   000003   ......       DC24    LCD_write_byte

   \                                 In  segment BANK_RELAYS, align 1
   \                     `??Lcd_Reset::?relay`:
   \   000000   12....       LCALL   ?BDISPATCH
   \   000003   ......       DC24    Lcd_Reset

   \                                 In  segment BANK_RELAYS, align 1
   \                     `??LCD_set_window::?relay`:
   \   000000   12....       LCALL   ?BDISPATCH
   \   000003   ......       DC24    LCD_set_window

   \                                 In  segment BANK_RELAYS, align 1
   \                     `??DrawPixel::?relay`:
   \   000000   12....       LCALL   ?BDISPATCH
   \   000003   ......       DC24    DrawPixel

   \                                 In  segment BANK_RELAYS, align 1
   \                     `??DrawVerticalLine::?relay`:
   \   000000   12....       LCALL   ?BDISPATCH
   \   000003   ......       DC24    DrawVerticalLine

   \                                 In  segment BANK_RELAYS, align 1
   \                     `??DrawHorizonLine::?relay`:
   \   000000   12....       LCALL   ?BDISPATCH
   \   000003   ......       DC24    DrawHorizonLine

   \                                 In  segment BANK_RELAYS, align 1
   \                     `??DrawRect::?relay`:
   \   000000   12....       LCALL   ?BDISPATCH
   \   000003   ......       DC24    DrawRect

   \                                 In  segment BANK_RELAYS, align 1
   \                     `??DrawRectFill::?relay`:
   \   000000   12....       LCALL   ?BDISPATCH
   \   000003   ......       DC24    DrawRectFill

   \                                 In  segment BANK_RELAYS, align 1
   \                     `??LCD_clear::?relay`:
   \   000000   12....       LCALL   ?BDISPATCH
   \   000003   ......       DC24    LCD_clear

   \                                 In  segment BANK_RELAYS, align 1
   \                     `??LCD_write_EN::?relay`:
   \   000000   12....       LCALL   ?BDISPATCH
   \   000003   ......       DC24    LCD_write_EN

   \                                 In  segment BANK_RELAYS, align 1
   \                     `??LCD_write_EN_string::?relay`:
   \   000000   12....       LCALL   ?BDISPATCH
   \   000003   ......       DC24    LCD_write_EN_string

   \                                 In  segment BANK_RELAYS, align 1
   \                     `??LCD_write_CN::?relay`:
   \   000000   12....       LCALL   ?BDISPATCH
   \   000003   ......       DC24    LCD_write_CN

   \                                 In  segment BANK_RELAYS, align 1
   \                     `??LCD_write_CN_string::?relay`:
   \   000000   12....       LCALL   ?BDISPATCH
   \   000003   ......       DC24    LCD_write_CN_string

   \                                 In  segment BANK_RELAYS, align 1
   \                     `??ShowImage::?relay`:
   \   000000   12....       LCALL   ?BDISPATCH
   \   000003   ......       DC24    ShowImage

   \                                 In  segment BANK_RELAYS, align 1
   \                     `??HalLcd_HW_Init::?relay`:
   \   000000   12....       LCALL   ?BDISPATCH
   \   000003   ......       DC24    HalLcd_HW_Init
   1182          #endif

   Maximum stack usage in bytes:

   ISTACK XSTACK Function
   ------ ------ --------
      0      0   DelayMS
      0     40   DrawHorizonLine
        0     20   -> LCD_set_window
        0     16   -> LCD_write_byte
      0     11   DrawPixel
        0      9   -> LCD_write_byte
      0     26   DrawRect
        0     20   -> DrawHorizonLine
        0     20   -> DrawVerticalLine
      0     40   DrawRectFill
        0     20   -> LCD_set_window
        0     16   -> LCD_write_byte
        0     16   -> SendByte
      0     40   DrawVerticalLine
        0     20   -> LCD_set_window
        0     16   -> LCD_write_byte
      2      0   HalLcdInit
        2      0   -> HalLcd_HW_Init
      0      9   HalLcdWriteScreen
        0      9   -> HalLcdWriteString
      0     58   HalLcdWriteString
        0     18   -> DrawRectFill
        0     12   -> LCD_write_EN_string
      0     44   HalLcdWriteStringValue
        0     40   -> HalLcdWriteString
        0     42   -> _ltoa
        0     43   -> osal_memcpy
        0     40   -> osal_strlen
      0     47   HalLcdWriteStringValueValue
        0     40   -> HalLcdWriteString
        0     42   -> _ltoa
        0     43   -> osal_memcpy
        0     40   -> osal_strlen
      0     42   HalLcdWriteValue
        0     39   -> HalLcdWriteString
        0     41   -> _ltoa
      2      0   HalLcd_HW_Init
        2      0   -> DelayMS
        2      0   -> LCD_clear
        2      0   -> LCD_write_byte
        2      0   -> Lcd_Reset
      0     18   LCD_WrCmd
        0      9   -> SPI_WriteData
      0     18   LCD_WrDat
        0      9   -> SPI_WriteData
      0     21   LCD_WriteData_16Bit
        0      9   -> SPI_WriteData
      0     16   LCD_clear
        0     16   -> LCD_set_window
        0     12   -> LCD_write_byte
        0     12   -> SendByte
      0     32   LCD_set_window
        0     12   -> LCD_write_byte
      0     28   LCD_write_CN
        0     14   -> LCD_set_window
        0     10   -> SendByte
      0     20   LCD_write_CN_string
        0     20   -> DrawRectFill
        0     14   -> LCD_write_CN
      0     29   LCD_write_EN
        0     16   -> LCD_set_window
        0     12   -> SendByte
      0     25   LCD_write_EN_string
        0     13   -> LCD_write_EN
      0     25   LCD_write_byte
        0      9   -> LCD_WrCmd
        0      9   -> LCD_WrDat
      2      0   Lcd_Reset
        2      0   -> DelayMS
      0      9   SPI_WriteData
      0     16   SendByte
      0     16   ShowImage
        0     12   -> LCD_WriteData_16Bit
        0     16   -> LCD_set_window


   Segment part sizes:

   Bytes  Function/Label
   -----  --------------
       2  ?<Initializer for Color>
       2  ?<Initializer for Color_BK>
       5  ??Subroutine12_0
       5  ??Subroutine13_0
       7  ?Subroutine0
       5  ?Subroutine1
      12  ?Subroutine10
      19  ?Subroutine11
       3  ?Subroutine2
      22  ?Subroutine3
       2  ?Subroutine4
       5  ?Subroutine5
      29  ?Subroutine6
       8  ?Subroutine7
      14  ?Subroutine8
       8  ?Subroutine9
    1288  ASCII7x14
    1120  CN14x14
      81  CN14x14_Index
       2  Color
       2  Color_BK
      34  DelayMS
       6  DelayMS::?relay
      79  DrawHorizonLine
       6  DrawHorizonLine::?relay
      30  DrawPixel
       6  DrawPixel::?relay
     155  DrawRect
       6  DrawRect::?relay
     304  DrawRectFill
       6  DrawRectFill::?relay
      79  DrawVerticalLine
       6  DrawVerticalLine::?relay
       7  HalLcdInit
       6  HalLcdInit::?relay
      25  HalLcdWriteScreen
       6  HalLcdWriteScreen::?relay
     101  HalLcdWriteString
       6  HalLcdWriteString::?relay
      82  HalLcdWriteStringValue
       6  HalLcdWriteStringValue::?relay
     174  HalLcdWriteStringValueValue
       6  HalLcdWriteStringValueValue::?relay
      54  HalLcdWriteValue
       6  HalLcdWriteValue::?relay
     652  HalLcd_HW_Init
       6  HalLcd_HW_Init::?relay
      10  LCD_WrCmd
       6  LCD_WrCmd::?relay
      10  LCD_WrDat
       6  LCD_WrDat::?relay
      19  LCD_WriteData_16Bit
       6  LCD_WriteData_16Bit::?relay
     723  LCD_clear
       6  LCD_clear::?relay
     151  LCD_set_window
       6  LCD_set_window::?relay
     154  LCD_write_CN
       6  LCD_write_CN::?relay
     213  LCD_write_CN_string
       6  LCD_write_CN_string::?relay
     125  LCD_write_EN
       6  LCD_write_EN::?relay
      74  LCD_write_EN_string
       6  LCD_write_EN_string::?relay
      19  LCD_write_byte
       6  LCD_write_byte::?relay
      25  Lcd_Reset
       6  Lcd_Reset::?relay
       1  P0DIR
       1  P0SEL
       1  P1DIR
       1  P1SEL
      27  SPI_WriteData
       6  SPI_WriteData::?relay
      27  SendByte
       6  SendByte::?relay
     103  ShowImage
       6  ShowImage::?relay
       1  _A_P0
       1  _A_P1
       1  j

 
 3 600 bytes in segment BANKED_CODE
   162 bytes in segment BANK_RELAYS
 1 369 bytes in segment CODE_C
     6 bytes in segment SFR_AN
     4 bytes in segment XDATA_I
     4 bytes in segment XDATA_ID
 1 120 bytes in segment XDATA_ROM_C
     1 byte  in segment XDATA_Z
 
 1 535 bytes of CODE     memory
 1 120 bytes of CONST    memory
     0 bytes of DATA     memory (+ 6 bytes shared)
 3 600 bytes of HUGECODE memory
     5 bytes of XDATA    memory

Errors: none
Warnings: none
